libbcc.so.0:LLVMAddAggressiveInstCombinerPass
libbcc.so.0:LLVMAddInstructionCombiningPass
libbcc.so.0:LLVMAddSymbol
libbcc.so.0:LLVMCloneModule
libbcc.so.0:LLVMConsumeError
libbcc.so.0:LLVMCreateDIBuilder
libbcc.so.0:LLVMCreateDIBuilderDisallowUnresolved
libbcc.so.0:LLVMCreateGDBRegistrationListener
libbcc.so.0:LLVMCreateStringError
libbcc.so.0:LLVMDIBuilderCreateArrayType
libbcc.so.0:LLVMDIBuilderCreateArtificialType
libbcc.so.0:LLVMDIBuilderCreateAutoVariable
libbcc.so.0:LLVMDIBuilderCreateBasicType
libbcc.so.0:LLVMDIBuilderCreateBitFieldMemberType
libbcc.so.0:LLVMDIBuilderCreateClassType
libbcc.so.0:LLVMDIBuilderCreateCompileUnit
libbcc.so.0:LLVMDIBuilderCreateConstantValueExpression
libbcc.so.0:LLVMDIBuilderCreateDebugLocation
libbcc.so.0:LLVMDIBuilderCreateEnumerationType
libbcc.so.0:LLVMDIBuilderCreateEnumerator
libbcc.so.0:LLVMDIBuilderCreateExpression
libbcc.so.0:LLVMDIBuilderCreateFile
libbcc.so.0:LLVMDIBuilderCreateForwardDecl
libbcc.so.0:LLVMDIBuilderCreateFunction
libbcc.so.0:LLVMDIBuilderCreateGlobalVariableExpression
libbcc.so.0:LLVMDIBuilderCreateImportedDeclaration
libbcc.so.0:LLVMDIBuilderCreateImportedModuleFromAlias
libbcc.so.0:LLVMDIBuilderCreateImportedModuleFromModule
libbcc.so.0:LLVMDIBuilderCreateImportedModuleFromNamespace
libbcc.so.0:LLVMDIBuilderCreateInheritance
libbcc.so.0:LLVMDIBuilderCreateLexicalBlock
libbcc.so.0:LLVMDIBuilderCreateLexicalBlockFile
libbcc.so.0:LLVMDIBuilderCreateMacro
libbcc.so.0:LLVMDIBuilderCreateMemberPointerType
libbcc.so.0:LLVMDIBuilderCreateMemberType
libbcc.so.0:LLVMDIBuilderCreateModule
libbcc.so.0:LLVMDIBuilderCreateNameSpace
libbcc.so.0:LLVMDIBuilderCreateNullPtrType
libbcc.so.0:LLVMDIBuilderCreateObjCIVar
libbcc.so.0:LLVMDIBuilderCreateObjCProperty
libbcc.so.0:LLVMDIBuilderCreateObjectPointerType
libbcc.so.0:LLVMDIBuilderCreateParameterVariable
libbcc.so.0:LLVMDIBuilderCreatePointerType
libbcc.so.0:LLVMDIBuilderCreateQualifiedType
libbcc.so.0:LLVMDIBuilderCreateReferenceType
libbcc.so.0:LLVMDIBuilderCreateReplaceableCompositeType
libbcc.so.0:LLVMDIBuilderCreateStaticMemberType
libbcc.so.0:LLVMDIBuilderCreateStructType
libbcc.so.0:LLVMDIBuilderCreateSubroutineType
libbcc.so.0:LLVMDIBuilderCreateTempGlobalVariableFwdDecl
libbcc.so.0:LLVMDIBuilderCreateTempMacroFile
libbcc.so.0:LLVMDIBuilderCreateTypedef
libbcc.so.0:LLVMDIBuilderCreateUnionType
libbcc.so.0:LLVMDIBuilderCreateUnspecifiedType
libbcc.so.0:LLVMDIBuilderCreateVectorType
libbcc.so.0:LLVMDIBuilderFinalize
libbcc.so.0:LLVMDIBuilderFinalizeSubprogram
libbcc.so.0:LLVMDIBuilderGetOrCreateArray
libbcc.so.0:LLVMDIBuilderGetOrCreateSubrange
libbcc.so.0:LLVMDIBuilderGetOrCreateTypeArray
libbcc.so.0:LLVMDIBuilderInsertDbgValueAtEnd
libbcc.so.0:LLVMDIBuilderInsertDbgValueBefore
libbcc.so.0:LLVMDIBuilderInsertDeclareAtEnd
libbcc.so.0:LLVMDIBuilderInsertDeclareBefore
libbcc.so.0:LLVMDIFileGetDirectory
libbcc.so.0:LLVMDIFileGetFilename
libbcc.so.0:LLVMDIFileGetSource
libbcc.so.0:LLVMDIGlobalVariableExpressionGetExpression
libbcc.so.0:LLVMDIGlobalVariableExpressionGetVariable
libbcc.so.0:LLVMDILocationGetColumn
libbcc.so.0:LLVMDILocationGetInlinedAt
libbcc.so.0:LLVMDILocationGetLine
libbcc.so.0:LLVMDILocationGetScope
libbcc.so.0:LLVMDIScopeGetFile
libbcc.so.0:LLVMDISubprogramGetLine
libbcc.so.0:LLVMDITypeGetAlignInBits
libbcc.so.0:LLVMDITypeGetFlags
libbcc.so.0:LLVMDITypeGetLine
libbcc.so.0:LLVMDITypeGetName
libbcc.so.0:LLVMDITypeGetOffsetInBits
libbcc.so.0:LLVMDITypeGetSizeInBits
libbcc.so.0:LLVMDIVariableGetFile
libbcc.so.0:LLVMDIVariableGetLine
libbcc.so.0:LLVMDIVariableGetScope
libbcc.so.0:LLVMDebugMetadataVersion
libbcc.so.0:LLVMDisposeDIBuilder
libbcc.so.0:LLVMDisposeErrorMessage
libbcc.so.0:LLVMDisposeTemporaryMDNode
libbcc.so.0:LLVMEnablePrettyStackTrace
libbcc.so.0:LLVMGetComdat
libbcc.so.0:LLVMGetComdatSelectionKind
libbcc.so.0:LLVMGetErrorMessage
libbcc.so.0:LLVMGetErrorTypeId
libbcc.so.0:LLVMGetMetadataKind
libbcc.so.0:LLVMGetModuleDebugMetadataVersion
libbcc.so.0:LLVMGetOrInsertComdat
libbcc.so.0:LLVMGetStringErrorTypeId
libbcc.so.0:LLVMGetSubprogram
libbcc.so.0:LLVMInitializeAggressiveInstCombiner
libbcc.so.0:LLVMInitializeBPFTargetInfo
libbcc.so.0:LLVMInitializeBPFTargetMC
libbcc.so.0:LLVMInitializeCodeGen
libbcc.so.0:LLVMInitializeInstCombine
libbcc.so.0:LLVMInitializeInstrumentation
libbcc.so.0:LLVMInstallFatalErrorHandler
libbcc.so.0:LLVMInstructionGetDebugLoc
libbcc.so.0:LLVMInstructionSetDebugLoc
libbcc.so.0:LLVMLoadLibraryPermanently
libbcc.so.0:LLVMMetadataReplaceAllUsesWith
libbcc.so.0:LLVMParseCommandLineOptions
libbcc.so.0:LLVMPassManagerBuilderCreate
libbcc.so.0:LLVMPassManagerBuilderDispose
libbcc.so.0:LLVMPassManagerBuilderPopulateFunctionPassManager
libbcc.so.0:LLVMPassManagerBuilderPopulateModulePassManager
libbcc.so.0:LLVMPassManagerBuilderSetDisableSimplifyLibCalls
libbcc.so.0:LLVMPassManagerBuilderSetDisableUnitAtATime
libbcc.so.0:LLVMPassManagerBuilderSetDisableUnrollLoops
libbcc.so.0:LLVMPassManagerBuilderSetOptLevel
libbcc.so.0:LLVMPassManagerBuilderSetSizeLevel
libbcc.so.0:LLVMPassManagerBuilderUseInlinerWithThreshold
libbcc.so.0:LLVMRemarkParserCreateBitstream
libbcc.so.0:LLVMRemarkParserCreateYAML
libbcc.so.0:LLVMRemarkParserDispose
libbcc.so.0:LLVMRemarkParserGetErrorMessage
libbcc.so.0:LLVMRemarkParserGetNext
libbcc.so.0:LLVMRemarkParserHasError
libbcc.so.0:LLVMResetFatalErrorHandler
libbcc.so.0:LLVMSearchForAddressOfSymbol
libbcc.so.0:LLVMSetComdat
libbcc.so.0:LLVMSetComdatSelectionKind
libbcc.so.0:LLVMSetSubprogram
libbcc.so.0:LLVMStripModuleDebugInfo
libbcc.so.0:LLVMTemporaryMDNode
libbcc.so.0:_Z14matchIncrementPKN4llvm11InstructionERPS0_RPNS_8ConstantE
libbcc.so.0:_Z15refineIndexTypeRN4llvm7SDValueERNS_3ISD12MemIndexTypeENS_3EVTERNS_12SelectionDAGE
libbcc.so.0:_Z16replaceConstantsRN4llvm16OutlinableRegionE
libbcc.so.0:_Z17getPredicatedMaskPN4llvm13VPRegionBlockE
libbcc.so.0:_Z17refineUniformBaseRN4llvm7SDValueES1_bRNS_12SelectionDAGE
libbcc.so.0:_Z18getCountersSectionRKN4llvm6object10ObjectFileE
libbcc.so.0:_Z18getDwarfOpForBinOpN4llvm11Instruction9BinaryOpsE
libbcc.so.0:_Z18getPollyPluginInfov
libbcc.so.0:_Z18getSubRangeForMaskN4llvm11LaneBitmaskERKNS_12LiveIntervalE
libbcc.so.0:_Z18setUnsafeStackSizeRKN4llvm8FunctionERNS_16MachineFrameInfoE
libbcc.so.0:_Z19getConstantAtOffsetPN4llvm8ConstantENS_5APIntERKNS_10DataLayoutE
libbcc.so.0:_Z19getSalvageOpsForGEPPN4llvm17GetElementPtrInstERKNS_10DataLayoutEmRNS_15SmallVectorImplImEERNS5_IPNS_5ValueEEE
libbcc.so.0:_Z20getIConstantSplatValRKN4llvm12MachineInstrERKNS_19MachineRegisterInfoE
libbcc.so.0:_Z21createSwitchStatementRN4llvm6ModuleER15OutlinableGroupRNS_8DenseMapIPNS_5ValueEPNS_10BasicBlockENS_12DenseMapInfoIS6_vEENS_6detail12DenseMapPairIS6_S8_EEEERSt6vectorISE_SaISE_EE
libbcc.so.0:_Z21getSalvageOpsForBinOpPN4llvm14BinaryOperatorEmRNS_15SmallVectorImplImEERNS2_IPNS_5ValueEEE
libbcc.so.0:_Z21replaceCalledFunctionRN4llvm6ModuleERNS_16OutlinableRegionE
libbcc.so.0:_Z22SCEVMinMaxExprContainsPKN4llvm4SCEVES2_NS_9SCEVTypesE
libbcc.so.0:_Z22clusterSortPtrAccessesN4llvm8ArrayRefIPNS_5ValueEEEPNS_4TypeERKNS_10DataLayoutERNS_15ScalarEvolutionERNS_15SmallVectorImplIjEE
libbcc.so.0:_Z23getPreferredVectorIndexPN4llvm11ConstantIntE
libbcc.so.0:_Z23getSubRangeForMaskExactN4llvm11LaneBitmaskERKNS_12LiveIntervalE
libbcc.so.0:_Z23getSubRangeForMaskExactN4llvm11LaneBitmaskERNS_12LiveIntervalE
libbcc.so.0:_Z24StripPointerGEPsAndCastsPN4llvm5ValueE
libbcc.so.0:_Z24checkNumberingAndReplaceRN4llvm8DenseMapIjNS_8DenseSetIjNS_12DenseMapInfoIjvEEEES3_NS_6detail12DenseMapPairIjS4_EEEEjj
libbcc.so.0:_Z24createDebugifyModulePass12DebugifyModeN4llvm9StringRefEP16DebugInfoPerPass
libbcc.so.0:_Z24createProfileFileNameVarRN4llvm6ModuleE
libbcc.so.0:_Z24findDuplicateOutputBlockRN4llvm8DenseMapIPNS_5ValueEPNS_10BasicBlockENS_12DenseMapInfoIS2_vEENS_6detail12DenseMapPairIS2_S4_EEEERSt6vectorISA_SaISA_EE
libbcc.so.0:_Z24getArchiveMemberDecFieldN4llvm5TwineENS_9StringRefEPKNS_6object7ArchiveEPKNS2_27AbstractArchiveMemberHeaderE
libbcc.so.0:_Z24getArchiveMemberOctFieldN4llvm5TwineENS_9StringRefEPKNS_6object7ArchiveEPKNS2_27AbstractArchiveMemberHeaderE
libbcc.so.0:_Z24updateLoopCountStatisticN5polly13ScopDetection9LoopStatsENS_4Scop14ScopStatisticsE
libbcc.so.0:_Z26createDebugifyFunctionPass12DebugifyModeN4llvm9StringRefEP16DebugInfoPerPass
libbcc.so.0:_Z26mangledNameForMallocFamilyRK12MallocFamily
libbcc.so.0:_Z27computeHostNumPhysicalCoresv
libbcc.so.0:_Z27getBBClusterInfoForFunctionRKN4llvm15MachineFunctionEPNS_31BasicBlockSectionsProfileReaderERSt6vectorINS_8OptionalINS_13BBClusterInfoEEESaIS8_EE
libbcc.so.0:_Z28deserializeSanitizerMetadataj
libbcc.so.0:_Z28foldAndOrOfICmpEqZeroAndICmpPN4llvm8ICmpInstES1_bRNS_13IRBuilderBaseE
libbcc.so.0:_Z29computeHostNumHardwareThreadsv
libbcc.so.0:_Z29createCheckDebugifyModulePassbN4llvm9StringRefEPNS_9MapVectorIS0_18DebugifyStatisticsNS_8DenseMapIS0_jNS_12DenseMapInfoIS0_vEENS_6detail12DenseMapPairIS0_jEEEESt6vectorISt4pairIS0_S2_ESaISC_EEEE12DebugifyModeP16DebugInfoPerPassS0_
libbcc.so.0:_Z30getFreeFunctionDataForFunctionPKN4llvm8FunctionENS_7LibFuncE
libbcc.so.0:_Z31createCheckDebugifyFunctionPassbN4llvm9StringRefEPNS_9MapVectorIS0_18DebugifyStatisticsNS_8DenseMapIS0_jNS_12DenseMapInfoIS0_vEENS_6detail12DenseMapPairIS0_jEEEESt6vectorISt4pairIS0_S2_ESaISC_EEEE12DebugifyModeP16DebugInfoPerPassS0_
libbcc.so.0:_Z31updateValueInfoForIndirectCallsRN4llvm18ModuleSummaryIndexEPNS_15FunctionSummaryE
libbcc.so.0:_Z33checkTerminalEnvironmentForColorsv
libbcc.so.0:_Z34canTryToConstantAddTwoShiftAmountsPN4llvm5ValueES1_S1_S1_
libbcc.so.0:_Z3gcdPKN4llvm12SCEVConstantES2_
libbcc.so.0:_Z7FlattenRN4llvm8LoopNestEPNS_13DominatorTreeEPNS_8LoopInfoEPNS_15ScalarEvolutionEPNS_15AssumptionCacheEPNS_19TargetTransformInfoEPNS_10LPMUpdaterEPNS_16MemorySSAUpdaterE
libbcc.so.0:_Z9getDomainPN4llvm5ValueEPNS_13LazyValueInfoEPNS_11InstructionE
libbcc.so.0:_ZN15LiveDebugValues11MLocTracker12writeRegMaskEPKN4llvm14MachineOperandEjj
libbcc.so.0:_ZN15LiveDebugValues11MLocTracker13trackRegisterEj
libbcc.so.0:_ZN15LiveDebugValues11MLocTracker18getOrTrackSpillLocENS_8SpillLocE
libbcc.so.0:_ZN15LiveDebugValues11MLocTracker7emitLocEN4llvm8OptionalINS_6LocIdxEEERKNS1_13DebugVariableERKNS_18DbgValuePropertiesE
libbcc.so.0:_ZN15LiveDebugValues11MLocTrackerC1ERN4llvm15MachineFunctionERKNS1_15TargetInstrInfoERKNS1_18TargetRegisterInfoERKNS1_14TargetLoweringE
libbcc.so.0:_ZN15LiveDebugValues11MLocTrackerC2ERN4llvm15MachineFunctionERKNS1_15TargetInstrInfoERKNS1_18TargetRegisterInfoERKNS1_14TargetLoweringE
libbcc.so.0:_ZN15LiveDebugValues16InstrRefBasedLDV11performCopyEN4llvm8RegisterES2_
libbcc.so.0:_ZN15LiveDebugValues16InstrRefBasedLDV11pickVPHILocERKN4llvm17MachineBasicBlockERKNS1_13DebugVariableERKNS1_8DenseMapIPS3_PNS_8DbgValueENS1_12DenseMapInfoIS9_vEENS1_6detail12DenseMapPairIS9_SB_EEEERSt10unique_ptrIA_SK_IA_NS_10ValueIDNumESt14default_deleteISM_EESN_ISQ_EERKNS1_15SmallVectorImplIS9_EE
libbcc.so.0:_ZN15LiveDebugValues16InstrRefBasedLDV12ExtendRangesERN4llvm15MachineFunctionEPNS1_20MachineDominatorTreeEPNS1_16TargetPassConfigEjj
libbcc.so.0:_ZN15LiveDebugValues16InstrRefBasedLDV12initialSetupERN4llvm15MachineFunctionE
libbcc.so.0:_ZN15LiveDebugValues16InstrRefBasedLDV13emitTransfersERN4llvm8DenseMapINS1_13DebugVariableEjNS1_12DenseMapInfoIS3_vEENS1_6detail12DenseMapPairIS3_jEEEE
libbcc.so.0:_ZN15LiveDebugValues16InstrRefBasedLDV13placeMLocPHIsERN4llvm15MachineFunctionERNS1_15SmallPtrSetImplIPNS1_17MachineBasicBlockEEERSt10unique_ptrIA_S9_IA_NS_10ValueIDNumESt14default_deleteISB_EESC_ISF_EERNS1_15SmallVectorImplINS1_13SmallDenseMapINS_6LocIdxESA_Lj4ENS1_12DenseMapInfoISL_vEENS1_6detail12DenseMapPairISL_SA_EEEEEE
libbcc.so.0:_ZN15LiveDebugValues16InstrRefBasedLDV14resolveDbgPHIsERN4llvm15MachineFunctionEPKSt10unique_ptrIA_NS_10ValueIDNumESt14default_deleteIS6_EESB_RNS1_12MachineInstrEm
libbcc.so.0:_ZN15LiveDebugValues16InstrRefBasedLDV15isLocationSpillERKN4llvm12MachineInstrEPNS1_15MachineFunctionERj
libbcc.so.0:_ZN15LiveDebugValues16InstrRefBasedLDV16transferDebugPHIERN4llvm12MachineInstrE
libbcc.so.0:_ZN15LiveDebugValues16InstrRefBasedLDV17BlockPHIPlacementERKN4llvm15SmallPtrSetImplIPNS1_17MachineBasicBlockEEES7_RNS1_15SmallVectorImplIS4_EE
libbcc.so.0:_ZN15LiveDebugValues16InstrRefBasedLDV17buildMLocValueMapERN4llvm15MachineFunctionERSt10unique_ptrIA_S4_IA_NS_10ValueIDNumESt14default_deleteIS6_EES7_ISA_EESD_RNS1_15SmallVectorImplINS1_13SmallDenseMapINS_6LocIdxES5_Lj4ENS1_12DenseMapInfoISG_vEENS1_6detail12DenseMapPairISG_S5_EEEEEE
libbcc.so.0:_ZN15LiveDebugValues16InstrRefBasedLDV17buildVLocValueMapEPKN4llvm10DILocationERKNS1_8SmallSetINS1_13DebugVariableELj4ESt4lessIS6_EEERNS1_15SmallPtrSetImplIPNS1_17MachineBasicBlockEEERNS1_11SmallVectorINSH_ISt4pairIS6_NS_8DbgValueEELj8EEELj8EEERSt10unique_ptrIA_SO_IA_NS_10ValueIDNumESt14default_deleteISQ_EESR_ISU_EESX_RNS1_15SmallVectorImplINS_11VLocTrackerEEE
libbcc.so.0:_ZN15LiveDebugValues16InstrRefBasedLDV17getBlocksForScopeEPKN4llvm10DILocationERNS1_15SmallPtrSetImplIPKNS1_17MachineBasicBlockEEERKNS5_IPS6_EE
libbcc.so.0:_ZN15LiveDebugValues16InstrRefBasedLDV18isSpillInstructionERKN4llvm12MachineInstrEPNS1_15MachineFunctionE
libbcc.so.0:_ZN15LiveDebugValues16InstrRefBasedLDV18resolveDbgPHIsImplERN4llvm15MachineFunctionEPKSt10unique_ptrIA_NS_10ValueIDNumESt14default_deleteIS6_EESB_RNS1_12MachineInstrEm
libbcc.so.0:_ZN15LiveDebugValues16InstrRefBasedLDV18transferDebugValueERKN4llvm12MachineInstrE
libbcc.so.0:_ZN15LiveDebugValues16InstrRefBasedLDV19transferRegisterDefERN4llvm12MachineInstrE
libbcc.so.0:_ZN15LiveDebugValues16InstrRefBasedLDV20isRestoreInstructionERKN4llvm12MachineInstrEPNS1_15MachineFunctionERj
libbcc.so.0:_ZN15LiveDebugValues16InstrRefBasedLDV20transferRegisterCopyERN4llvm12MachineInstrE
libbcc.so.0:_ZN15LiveDebugValues16InstrRefBasedLDV21accumulateFragmentMapERN4llvm12MachineInstrE
libbcc.so.0:_ZN15LiveDebugValues16InstrRefBasedLDV21depthFirstVLocAndEmitEjRKN4llvm8DenseMapIPKNS1_12LexicalScopeEPKNS1_10DILocationENS1_12DenseMapInfoIS5_vEENS1_6detail12DenseMapPairIS5_S8_EEEERKNS2_IS5_NS1_8SmallSetINS1_13DebugVariableELj4ESt4lessISI_EEESA_NSC_IS5_SL_EEEERNS2_IS5_NS1_11SmallPtrSetIPNS1_17MachineBasicBlockELj4EEESA_NSC_IS5_ST_EEEERNS1_11SmallVectorINSX_ISt4pairISI_NS_8DbgValueEELj8EEELj8EEERSt10unique_ptrIA_S14_IA_NS_10ValueIDNumESt14default_deleteIS16_EES17_IS1A_EES1D_RNS1_15SmallVectorImplINS_11VLocTrackerEEERNS1_15MachineFunctionERNS2_ISI_jNS9_ISI_vEENSC_ISI_jEEEERKNS1_16TargetPassConfigE
libbcc.so.0:_ZN15LiveDebugValues16InstrRefBasedLDV21transferDebugInstrRefERN4llvm12MachineInstrEPKSt10unique_ptrIA_NS_10ValueIDNumESt14default_deleteIS6_EESB_
libbcc.so.0:_ZN15LiveDebugValues16InstrRefBasedLDV25findLocationForMemOperandERKN4llvm12MachineInstrE
libbcc.so.0:_ZN15LiveDebugValues16InstrRefBasedLDV25makeDepthFirstEjectionMapERN4llvm15SmallVectorImplIjEERKNS1_8DenseMapIPKNS1_12LexicalScopeEPKNS1_10DILocationENS1_12DenseMapInfoIS8_vEENS1_6detail12DenseMapPairIS8_SB_EEEERNS5_IS8_NS1_11SmallPtrSetIPNS1_17MachineBasicBlockELj4EEESD_NSF_IS8_SN_EEEE
libbcc.so.0:_ZN15LiveDebugValues16InstrRefBasedLDV26findStackIndexInterferenceERN4llvm15SmallVectorImplIjEE
libbcc.so.0:_ZN15LiveDebugValues16InstrRefBasedLDV26transferSpillOrRestoreInstERN4llvm12MachineInstrE
libbcc.so.0:_ZN15LiveDebugValues16InstrRefBasedLDV27produceMLocTransferFunctionERN4llvm15MachineFunctionERNS1_15SmallVectorImplINS1_13SmallDenseMapINS_6LocIdxENS_10ValueIDNumELj4ENS1_12DenseMapInfoIS6_vEENS1_6detail12DenseMapPairIS6_S7_EEEEEEj
libbcc.so.0:_ZN15LiveDebugValues16InstrRefBasedLDV28extractSpillBaseRegAndOffsetERKN4llvm12MachineInstrE
libbcc.so.0:_ZN15LiveDebugValues16InstrRefBasedLDV31placePHIsForSingleVarDefinitionERKN4llvm15SmallPtrSetImplIPNS1_17MachineBasicBlockEEES4_RNS1_15SmallVectorImplINS_11VLocTrackerEEERKNS1_13DebugVariableERNS1_11SmallVectorINSF_ISt4pairISC_NS_8DbgValueEELj8EEELj8EEE
libbcc.so.0:_ZN15LiveDebugValues16InstrRefBasedLDV7processERN4llvm12MachineInstrEPKSt10unique_ptrIA_NS_10ValueIDNumESt14default_deleteIS6_EESB_
libbcc.so.0:_ZN15LiveDebugValues16InstrRefBasedLDV8mlocJoinERN4llvm17MachineBasicBlockERNS1_11SmallPtrSetIPKS2_Lj16EEERSt10unique_ptrIA_S9_IA_NS_10ValueIDNumESt14default_deleteISB_EESC_ISF_EERSE_
libbcc.so.0:_ZN15LiveDebugValues16InstrRefBasedLDV8vlocJoinERN4llvm17MachineBasicBlockERNS1_8DenseMapIPKS2_PNS_8DbgValueENS1_12DenseMapInfoIS6_vEENS1_6detail12DenseMapPairIS6_S8_EEEERNS1_11SmallPtrSetIS6_Lj8EEERS7_
libbcc.so.0:_ZN15LiveDebugValues16InstrRefBasedLDVC1Ev
libbcc.so.0:_ZN15LiveDebugValues16InstrRefBasedLDVC2Ev
libbcc.so.0:_ZN15OutlinableGroup17findSameConstantsERN4llvm8DenseSetIjNS0_12DenseMapInfoIjvEEEE
libbcc.so.0:_ZN15OutlinableGroup19collectGVNStoreSetsERN4llvm6ModuleE
libbcc.so.0:_ZN16btf_ext_vendored12btf_ext__newEPKhj
libbcc.so.0:_ZN16btf_ext_vendored13btf_ext__freeEPNS_7btf_extE
libbcc.so.0:_ZN16btf_ext_vendored24btf_ext__reloc_func_infoEPK3btfPKNS_7btf_extEPKcjPPvPj
libbcc.so.0:_ZN16btf_ext_vendored24btf_ext__reloc_line_infoEPK3btfPKNS_7btf_extEPKcjPPvPj
libbcc.so.0:_ZN17NewPMDebugifyPass3runERN4llvm6ModuleERNS0_15AnalysisManagerIS1_JEEE
libbcc.so.0:_ZN17SPIRVObjectWriter11writeHeaderERKN4llvm11MCAssemblerE
libbcc.so.0:_ZN17SPIRVObjectWriter11writeObjectERN4llvm11MCAssemblerERKNS0_11MCAsmLayoutE
libbcc.so.0:_ZN22NewPMCheckDebugifyPass3runERN4llvm6ModuleERNS0_15AnalysisManagerIS1_JEEE
libbcc.so.0:_ZN27MachineCycleInfoPrinterPass20runOnMachineFunctionERN4llvm15MachineFunctionE
libbcc.so.0:_ZN27MachineCycleInfoPrinterPassC1Ev
libbcc.so.0:_ZN27MachineCycleInfoPrinterPassC2Ev
libbcc.so.0:_ZN4USDT14ArgumentParser11print_errorEl
libbcc.so.0:_ZN4USDT14ArgumentParser20skip_whitespace_fromEm
libbcc.so.0:_ZN4USDT14ArgumentParser26skip_until_whitespace_fromEm
libbcc.so.0:_ZN4USDT18ArgumentParser_x6410parse_exprElPNS_8ArgumentE
libbcc.so.0:_ZN4USDT18ArgumentParser_x6411parse_scaleElPNS_8ArgumentE
libbcc.so.0:_ZN4USDT18ArgumentParser_x6411reg_to_nameEPNSt7__cxx1112basic_stringIcSt11char_traitsIcESaIcEEENS0_8RegisterE
libbcc.so.0:_ZN4USDT18ArgumentParser_x6414parse_registerElRNSt7__cxx1112basic_stringIcSt11char_traitsIcESaIcEEERi
libbcc.so.0:_ZN4USDT18ArgumentParser_x6416parse_identifierElPNSt12experimental8optionalINSt7__cxx1112basic_stringIcSt11char_traitsIcESaIcEEEEE
libbcc.so.0:_ZN4USDT18ArgumentParser_x6418normalize_registerEPNSt7__cxx1112basic_stringIcSt11char_traitsIcESaIcEEEPi
libbcc.so.0:_ZN4USDT18ArgumentParser_x6419parse_base_registerElPNS_8ArgumentE
libbcc.so.0:_ZN4USDT18ArgumentParser_x6420parse_index_registerElPNS_8ArgumentE
libbcc.so.0:_ZN4USDT18ArgumentParser_x645parseEPNS_8ArgumentE
libbcc.so.0:_ZN4USDT18ArgumentParser_x647parse_1ElPNS_8ArgumentE
libbcc.so.0:_ZN4USDT20ArgumentParser_s390x5parseEPNS_8ArgumentE
libbcc.so.0:_ZN4USDT22ArgumentParser_aarch6410parse_sizeElRlPNSt12experimental8optionalIiEE
libbcc.so.0:_ZN4USDT22ArgumentParser_aarch6414parse_registerElRlRNSt7__cxx1112basic_stringIcSt11char_traitsIcESaIcEEE
libbcc.so.0:_ZN4USDT22ArgumentParser_aarch645parseEPNS_8ArgumentE
libbcc.so.0:_ZN4USDT22ArgumentParser_aarch649parse_memElRlPNS_8ArgumentE
libbcc.so.0:_ZN4USDT24ArgumentParser_powerpc645parseEPNS_8ArgumentE
libbcc.so.0:_ZN4USDT26ArgumentParser_loongarch6410parse_sizeElRlPNSt12experimental8optionalIiEE
libbcc.so.0:_ZN4USDT26ArgumentParser_loongarch6414parse_registerElRlRNSt7__cxx1112basic_stringIcSt11char_traitsIcESaIcEEE
libbcc.so.0:_ZN4USDT26ArgumentParser_loongarch645parseEPNS_8ArgumentE
libbcc.so.0:_ZN4USDT26ArgumentParser_loongarch649parse_memElRlPNS_8ArgumentE
libbcc.so.0:_ZN4USDT5Probe11usdt_getargERSo
libbcc.so.0:_ZN4USDT5Probe11usdt_getargERSoRKNSt7__cxx1112basic_stringIcSt11char_traitsIcESaIcEEE
libbcc.so.0:_ZN4USDT5Probe12add_locationEmRKNSt7__cxx1112basic_stringIcSt11char_traitsIcESaIcEEEPKc
libbcc.so.0:_ZN4USDT5Probe16add_to_semaphoreEs
libbcc.so.0:_ZN4USDT5Probe16in_shared_objectERKNSt7__cxx1112basic_stringIcSt11char_traitsIcESaIcEEE
libbcc.so.0:_ZN4USDT5Probe16largest_arg_typeEm
libbcc.so.0:_ZN4USDT5Probe18finalize_locationsEv
libbcc.so.0:_ZN4USDT5Probe22resolve_global_addressEPmRKNSt7__cxx1112basic_stringIcSt11char_traitsIcESaIcEEEm
libbcc.so.0:_ZN4USDT5Probe6enableERKNSt7__cxx1112basic_stringIcSt11char_traitsIcESaIcEEE
libbcc.so.0:_ZN4USDT5Probe7disableEv
libbcc.so.0:_ZN4USDT5ProbeC1EPKcS2_S2_mmRKNSt12experimental8optionalIiEEh
libbcc.so.0:_ZN4USDT5ProbeC2EPKcS2_S2_mmRKNSt12experimental8optionalIiEEh
libbcc.so.0:_ZN4USDT7Context11_each_probeEPKcPK12bcc_elf_usdtPv
libbcc.so.0:_ZN4USDT7Context11each_uprobeEPFvPKcS2_miE
libbcc.so.0:_ZN4USDT7Context11get_checkedERKNSt7__cxx1112basic_stringIcSt11char_traitsIcESaIcEEES8_
libbcc.so.0:_ZN4USDT7Context12_each_moduleEP8mod_infoiPv
libbcc.so.0:_ZN4USDT7Context12addsem_probeERKNSt7__cxx1112basic_stringIcSt11char_traitsIcESaIcEEES8_S8_s
libbcc.so.0:_ZN4USDT7Context12enable_probeERKNSt7__cxx1112basic_stringIcSt11char_traitsIcESaIcEEES8_
libbcc.so.0:_ZN4USDT7Context12enable_probeERKNSt7__cxx1112basic_stringIcSt11char_traitsIcESaIcEEES8_S8_
libbcc.so.0:_ZN4USDT7Context16resolve_bin_pathERKNSt7__cxx1112basic_stringIcSt11char_traitsIcESaIcEEE
libbcc.so.0:_ZN4USDT7Context3getERKNSt7__cxx1112basic_stringIcSt11char_traitsIcESaIcEEE
libbcc.so.0:_ZN4USDT7Context3getERKNSt7__cxx1112basic_stringIcSt11char_traitsIcESaIcEEES8_
libbcc.so.0:_ZN4USDT7Context4eachEPFvP8bcc_usdtE
libbcc.so.0:_ZN4USDT7Context9add_probeEPKcPK12bcc_elf_usdt
libbcc.so.0:_ZN4USDT7ContextC1ERKNSt7__cxx1112basic_stringIcSt11char_traitsIcESaIcEEEh
libbcc.so.0:_ZN4USDT7ContextC1EiRKNSt7__cxx1112basic_stringIcSt11char_traitsIcESaIcEEEh
libbcc.so.0:_ZN4USDT7ContextC1Eih
libbcc.so.0:_ZN4USDT7ContextC2ERKNSt7__cxx1112basic_stringIcSt11char_traitsIcESaIcEEEh
libbcc.so.0:_ZN4USDT7ContextC2EiRKNSt7__cxx1112basic_stringIcSt11char_traitsIcESaIcEEEh
libbcc.so.0:_ZN4USDT7ContextC2Eih
libbcc.so.0:_ZN4USDT7ContextD1Ev
libbcc.so.0:_ZN4USDT7ContextD2Ev
libbcc.so.0:_ZN4USDT8ArgumentC1Ev
libbcc.so.0:_ZN4USDT8ArgumentC2Ev
libbcc.so.0:_ZN4USDT8ArgumentD1Ev
libbcc.so.0:_ZN4USDT8ArgumentD2Ev
libbcc.so.0:_ZN4USDT8LocationC1EmRKNSt7__cxx1112basic_stringIcSt11char_traitsIcESaIcEEEPKc
libbcc.so.0:_ZN4USDT8LocationC2EmRKNSt7__cxx1112basic_stringIcSt11char_traitsIcESaIcEEEPKc
libbcc.so.0:_ZN4ebpf10MapVisitor13VisitCallExprEPN5clang8CallExprE
libbcc.so.0:_ZN4ebpf10MapVisitorC1ERSt3setIPN5clang4DeclESt4lessIS4_ESaIS4_EE
libbcc.so.0:_ZN4ebpf10MapVisitorC2ERSt3setIPN5clang4DeclESt4lessIS4_ESaIS4_EE
libbcc.so.0:_ZN4ebpf11ClangLoader10do_compileEPSt10unique_ptrIN4llvm6ModuleESt14default_deleteIS3_EERNS_12TableStorageEbRKSt6vectorIPKcSaISC_EESG_RKNSt7__cxx1112basic_stringIcSt11char_traitsIcESaIcEEERKS1_INS2_12MemoryBufferES4_ISP_EESO_RNS_12ProgFuncInfoERSM_bSO_RSt3mapIiSt5tupleIJiSM_iiiiiSM_SM_EESt4lessIiESaISt4pairIKiSZ_EEERSX_ISM_SA_ISM_SaISM_EES10_ISM_ESaIS12_ISN_S19_EEE
libbcc.so.0:_ZN4ebpf11ClangLoader14add_main_inputERN5clang18CompilerInvocationERKNSt7__cxx1112basic_stringIcSt11char_traitsIcESaIcEEEPN4llvm12MemoryBufferE
libbcc.so.0:_ZN4ebpf11ClangLoader21add_remapped_includesERN5clang18CompilerInvocationE
libbcc.so.0:_ZN4ebpf11ClangLoader5parseEPSt10unique_ptrIN4llvm6ModuleESt14default_deleteIS3_EERNS_12TableStorageERKNSt7__cxx1112basic_stringIcSt11char_traitsIcESaIcEEEbPPKciSH_RNS_12ProgFuncInfoERSF_SH_RSt3mapIiSt5tupleIJiSF_iiiiiSF_SF_EESt4lessIiESaISt4pairIKiSQ_EEERSO_ISF_St6vectorISF_SaISF_EESR_ISF_ESaIST_ISG_S11_EEE
libbcc.so.0:_ZN4ebpf11ClangLoaderC1EPN4llvm11LLVMContextEj
libbcc.so.0:_ZN4ebpf11ClangLoaderC2EPN4llvm11LLVMContextEj
libbcc.so.0:_ZN4ebpf11ClangLoaderD1Ev
libbcc.so.0:_ZN4ebpf11ClangLoaderD2Ev
libbcc.so.0:_ZN4ebpf11get_pid_exeB5cxx11Ei
libbcc.so.0:_ZN4ebpf11uint_to_hexB5cxx11Em
libbcc.so.0:_ZN4ebpf12BPFProgTable12remove_valueERKi
libbcc.so.0:_ZN4ebpf12BPFProgTable12update_valueERKiS2_
libbcc.so.0:_ZN4ebpf12BPFProgTableC1ERKNS_9TableDescE
libbcc.so.0:_ZN4ebpf12BPFProgTableC2ERKNS_9TableDescE
libbcc.so.0:_ZN4ebpf12BTypeVisitor12VisitVarDeclEPN5clang7VarDeclE
libbcc.so.0:_ZN4ebpf12BTypeVisitor13VisitCallExprEPN5clang8CallExprE
libbcc.so.0:_ZN4ebpf12BTypeVisitor13getFieldValueEPN5clang7VarDeclEPNS1_9FieldDeclEl
libbcc.so.0:_ZN4ebpf12BTypeVisitor14expansionRangeEN5clang11SourceRangeE
libbcc.so.0:_ZN4ebpf12BTypeVisitor16TraverseCallExprEPN5clang8CallExprE
libbcc.so.0:_ZN4ebpf12BTypeVisitor16rewriteFuncParamEPN5clang12FunctionDeclE
libbcc.so.0:_ZN4ebpf12BTypeVisitor17VisitFunctionDeclEPN5clang12FunctionDeclE
libbcc.so.0:_ZN4ebpf12BTypeVisitor19VisitBinaryOperatorEPN5clang14BinaryOperatorE
libbcc.so.0:_ZN4ebpf12BTypeVisitor20genParamDirectAssignEPN5clang12FunctionDeclERNSt7__cxx1112basic_stringIcSt11char_traitsIcESaIcEEEPPKc
libbcc.so.0:_ZN4ebpf12BTypeVisitor21VisitImplicitCastExprEPN5clang16ImplicitCastExprE
libbcc.so.0:_ZN4ebpf12BTypeVisitor21checkFormatSpecifiersERKNSt7__cxx1112basic_stringIcSt11char_traitsIcESaIcEEEN5clang14SourceLocationE
libbcc.so.0:_ZN4ebpf12BTypeVisitor22genParamIndirectAssignEPN5clang12FunctionDeclERNSt7__cxx1112basic_stringIcSt11char_traitsIcESaIcEEEPPKc
libbcc.so.0:_ZN4ebpf12BTypeVisitorC1ERN5clang10ASTContextERNS_15BFrontendActionE
libbcc.so.0:_ZN4ebpf12BTypeVisitorC2ERN5clang10ASTContextERNS_15BFrontendActionE
libbcc.so.0:_ZN4ebpf12KBuildHelper9get_flagsEPKcPSt6vectorINSt7__cxx1112basic_stringIcSt11char_traitsIcESaIcEEESaIS9_EE
libbcc.so.0:_ZN4ebpf12KBuildHelperC1ERKNSt7__cxx1112basic_stringIcSt11char_traitsIcESaIcEEEb
libbcc.so.0:_ZN4ebpf12KBuildHelperC2ERKNSt7__cxx1112basic_stringIcSt11char_traitsIcESaIcEEEb
libbcc.so.0:_ZN4ebpf12ProbeVisitor12TraverseStmtEPN5clang4StmtE
libbcc.so.0:_ZN4ebpf12ProbeVisitor12VisitVarDeclEPN5clang7VarDeclE
libbcc.so.0:_ZN4ebpf12ProbeVisitor12expansionLocEN5clang14SourceLocationE
libbcc.so.0:_ZN4ebpf12ProbeVisitor13VisitCallExprEPN5clang8CallExprE
libbcc.so.0:_ZN4ebpf12ProbeVisitor13assignsExtPtrEPN5clang4ExprEPi
libbcc.so.0:_ZN4ebpf12ProbeVisitor14expansionRangeEN5clang11SourceRangeE
libbcc.so.0:_ZN4ebpf12ProbeVisitor15VisitMemberExprEPN5clang10MemberExprE
libbcc.so.0:_ZN4ebpf12ProbeVisitor15VisitReturnStmtEPN5clang10ReturnStmtE
libbcc.so.0:_ZN4ebpf12ProbeVisitor18VisitUnaryOperatorEPN5clang13UnaryOperatorE
libbcc.so.0:_ZN4ebpf12ProbeVisitor19IsContextMemberExprEPN5clang4ExprE
libbcc.so.0:_ZN4ebpf12ProbeVisitor19VisitBinaryOperatorEPN5clang14BinaryOperatorE
libbcc.so.0:_ZN4ebpf12ProbeVisitor19isMemberDereferenceEPN5clang4ExprE
libbcc.so.0:_ZN4ebpf12ProbeVisitor23VisitArraySubscriptExprEPN5clang18ArraySubscriptExprE
libbcc.so.0:_ZN4ebpf12ProbeVisitorC1ERN5clang10ASTContextERNS1_8RewriterERSt3setIPNS1_4DeclESt4lessIS8_ESaIS8_EEb
libbcc.so.0:_ZN4ebpf12ProbeVisitorC2ERN5clang10ASTContextERNS1_8RewriterERSt3setIPNS1_4DeclESt4lessIS8_ESaIS8_EEb
libbcc.so.0:_ZN4ebpf12ProgFuncInfo13for_each_funcESt8functionIFvNSt7__cxx1112basic_stringIcSt11char_traitsIcESaIcEEERNS_8FuncInfoEEE
libbcc.so.0:_ZN4ebpf12ProgFuncInfo8add_funcENSt7__cxx1112basic_stringIcSt11char_traitsIcESaIcEEE
libbcc.so.0:_ZN4ebpf12ProgFuncInfo8get_funcENSt7__cxx1112basic_stringIcSt11char_traitsIcESaIcEEE
libbcc.so.0:_ZN4ebpf12ProgFuncInfo8get_funcEm
libbcc.so.0:_ZN4ebpf12ProgFuncInfo9func_nameB5cxx11Em
libbcc.so.0:_ZN4ebpf12TableStorage11lower_boundERKNS_4PathE
libbcc.so.0:_ZN4ebpf12TableStorage11upper_boundERKNS_4PathE
libbcc.so.0:_ZN4ebpf12TableStorage12DeletePrefixERKNS_4PathE
libbcc.so.0:_ZN4ebpf12TableStorage12VisitMapTypeERNS_9TableDescERN5clang10ASTContextENS3_8QualTypeES6_
libbcc.so.0:_ZN4ebpf12TableStorage18AddMapTypesVisitorESt10unique_ptrINS_15MapTypesVisitorESt14default_deleteIS2_EE
libbcc.so.0:_ZN4ebpf12TableStorage3endEv
libbcc.so.0:_ZN4ebpf12TableStorage4InitESt10unique_ptrINS_16TableStorageImplESt14default_deleteIS2_EE
libbcc.so.0:_ZN4ebpf12TableStorage5beginEv
libbcc.so.0:_ZN4ebpf12TableStorage6DeleteERKNS_4PathE
libbcc.so.0:_ZN4ebpf12TableStorage6InsertERKNS_4PathEONS_9TableDescE
libbcc.so.0:_ZN4ebpf12TableStorage8iteratorC1EOS1_
libbcc.so.0:_ZN4ebpf12TableStorage8iteratorC1ERKS1_
libbcc.so.0:_ZN4ebpf12TableStorage8iteratorC1ESt10unique_ptrINS_24TableStorageIteratorImplESt14default_deleteIS3_EE
libbcc.so.0:_ZN4ebpf12TableStorage8iteratorC1Ev
libbcc.so.0:_ZN4ebpf12TableStorage8iteratorC2EOS1_
libbcc.so.0:_ZN4ebpf12TableStorage8iteratorC2ERKS1_
libbcc.so.0:_ZN4ebpf12TableStorage8iteratorC2ESt10unique_ptrINS_24TableStorageIteratorImplESt14default_deleteIS3_EE
libbcc.so.0:_ZN4ebpf12TableStorage8iteratorC2Ev
libbcc.so.0:_ZN4ebpf12TableStorage8iteratorD1Ev
libbcc.so.0:_ZN4ebpf12TableStorage8iteratorD2Ev
libbcc.so.0:_ZN4ebpf12TableStorage8iteratoraSEOS1_
libbcc.so.0:_ZN4ebpf12TableStorage8iteratorppEi
libbcc.so.0:_ZN4ebpf12TableStorage8iteratorppEv
libbcc.so.0:_ZN4ebpf12TableStorageC1Ev
libbcc.so.0:_ZN4ebpf12TableStorageC2Ev
libbcc.so.0:_ZN4ebpf12TableStorageD1Ev
libbcc.so.0:_ZN4ebpf12TableStorageD2Ev
libbcc.so.0:_ZN4ebpf12sanitize_strENSt7__cxx1112basic_stringIcSt11char_traitsIcESaIcEEEPFbcEc
libbcc.so.0:_ZN4ebpf13BPFPerfBuffer11open_on_cpuEPFvPvS1_iEPFvS1_mES1_iR20bcc_perf_buffer_opts
libbcc.so.0:_ZN4ebpf13BPFPerfBuffer12close_on_cpuEi
libbcc.so.0:_ZN4ebpf13BPFPerfBuffer12open_all_cpuEPFvPvS1_iEPFvS1_mES1_i
libbcc.so.0:_ZN4ebpf13BPFPerfBuffer12open_all_cpuEPFvPvS1_iEPFvS1_mES1_ii
libbcc.so.0:_ZN4ebpf13BPFPerfBuffer13close_all_cpuEv
libbcc.so.0:_ZN4ebpf13BPFPerfBuffer4pollEi
libbcc.so.0:_ZN4ebpf13BPFPerfBuffer7consumeEv
libbcc.so.0:_ZN4ebpf13BPFPerfBufferC1ERKNS_9TableDescE
libbcc.so.0:_ZN4ebpf13BPFPerfBufferC2ERKNS_9TableDescE
libbcc.so.0:_ZN4ebpf13BPFPerfBufferD1Ev
libbcc.so.0:_ZN4ebpf13BPFPerfBufferD2Ev
libbcc.so.0:_ZN4ebpf13BPFStackTable13free_symcacheEi
libbcc.so.0:_ZN4ebpf13BPFStackTable14get_stack_addrEi
libbcc.so.0:_ZN4ebpf13BPFStackTable16get_stack_symbolB5cxx11Eii
libbcc.so.0:_ZN4ebpf13BPFStackTable22clear_table_non_atomicEv
libbcc.so.0:_ZN4ebpf13BPFStackTableC1EOS0_
libbcc.so.0:_ZN4ebpf13BPFStackTableC1ERKNS_9TableDescEbb
libbcc.so.0:_ZN4ebpf13BPFStackTableC2EOS0_
libbcc.so.0:_ZN4ebpf13BPFStackTableC2ERKNS_9TableDescEbb
libbcc.so.0:_ZN4ebpf13BPFStackTableD1Ev
libbcc.so.0:_ZN4ebpf13BPFStackTableD2Ev
libbcc.so.0:_ZN4ebpf13BTypeConsumer21HandleTranslationUnitERN5clang10ASTContextE
libbcc.so.0:_ZN4ebpf13BTypeConsumerC1ERN5clang10ASTContextERNS_15BFrontendActionERNS1_8RewriterERSt3setIPNS1_4DeclESt4lessISA_ESaISA_EE
libbcc.so.0:_ZN4ebpf13BTypeConsumerC2ERN5clang10ASTContextERNS_15BFrontendActionERNS1_8RewriterERSt3setIPNS1_4DeclESt4lessISA_ESaISA_EE
libbcc.so.0:_ZN4ebpf13get_call_convEb
libbcc.so.0:_ZN4ebpf14BPFCgroupArray12remove_valueERKi
libbcc.so.0:_ZN4ebpf14BPFCgroupArray12update_valueERKiRKNSt7__cxx1112basic_stringIcSt11char_traitsIcESaIcEEE
libbcc.so.0:_ZN4ebpf14BPFCgroupArray12update_valueERKiS2_
libbcc.so.0:_ZN4ebpf14BPFCgroupArrayC1ERKNS_9TableDescE
libbcc.so.0:_ZN4ebpf14BPFCgroupArrayC2ERKNS_9TableDescE
libbcc.so.0:_ZN4ebpf14BPFDevmapTable12remove_valueERKi
libbcc.so.0:_ZN4ebpf14BPFDevmapTable12update_valueERKiS2_
libbcc.so.0:_ZN4ebpf14BPFDevmapTable9get_valueERKiRi
libbcc.so.0:_ZN4ebpf14BPFDevmapTableC1ERKNS_9TableDescE
libbcc.so.0:_ZN4ebpf14BPFDevmapTableC2ERKNS_9TableDescE
libbcc.so.0:_ZN4ebpf14BPFXskmapTable12remove_valueERKi
libbcc.so.0:_ZN4ebpf14BPFXskmapTable12update_valueERKiS2_
libbcc.so.0:_ZN4ebpf14BPFXskmapTable9get_valueERKiRi
libbcc.so.0:_ZN4ebpf14BPFXskmapTableC1ERKNS_9TableDescE
libbcc.so.0:_ZN4ebpf14BPFXskmapTableC2ERKNS_9TableDescE
libbcc.so.0:_ZN4ebpf14BTFStringTable9addStringENSt7__cxx1112basic_stringIcSt11char_traitsIcESaIcEEE
libbcc.so.0:_ZN4ebpf14SourceDebugger11dumpSrcLineERKSt6vectorINSt7__cxx1112basic_stringIcSt11char_traitsIcESaIcEEESaIS7_EERKS7_jRjRN4llvm11raw_ostreamE
libbcc.so.0:_ZN4ebpf14SourceDebugger14adjustInstSizeERmhh
libbcc.so.0:_ZN4ebpf14SourceDebugger14buildLineCacheB5cxx11Ev
libbcc.so.0:_ZN4ebpf14SourceDebugger16getDebugSectionsERN4llvm9StringMapISt10unique_ptrINS1_12MemoryBufferESt14default_deleteIS4_EENS1_15MallocAllocatorEEE
libbcc.so.0:_ZN4ebpf14SourceDebugger4dumpEv
libbcc.so.0:_ZN4ebpf14read_cpu_rangeENSt7__cxx1112basic_stringIcSt11char_traitsIcESaIcEEE
libbcc.so.0:_ZN4ebpf15BFrontendAction16DoMiscWorkAroundEv
libbcc.so.0:_ZN4ebpf15BFrontendAction17CreateASTConsumerERN5clang16CompilerInstanceEN4llvm9StringRefE
libbcc.so.0:_ZN4ebpf15BFrontendAction19EndSourceFileActionEv
libbcc.so.0:_ZN4ebpf15BFrontendAction22is_rewritable_ext_funcEPN5clang12FunctionDeclE
libbcc.so.0:_ZN4ebpf15BFrontendActionC1ERN4llvm11raw_ostreamEjRNS_12TableStorageERKNSt7__cxx1112basic_stringIcSt11char_traitsIcESaIcEEESD_RNS_12ProgFuncInfoERSB_SD_RSt3mapIiSt5tupleIJiSB_iiiiiSB_SB_EESt4lessIiESaISt4pairIKiSJ_EEERSH_ISB_St6vectorISB_SaISB_EESK_ISB_ESaISM_ISC_SU_EEE
libbcc.so.0:_ZN4ebpf15BFrontendActionC2ERN4llvm11raw_ostreamEjRNS_12TableStorageERKNSt7__cxx1112basic_stringIcSt11char_traitsIcESaIcEEESD_RNS_12ProgFuncInfoERSB_SD_RSt3mapIiSt5tupleIJiSB_iiiiiSB_SB_EESt4lessIiESaISt4pairIKiSJ_EEERSH_ISB_St6vectorISB_SaISB_EESK_ISB_ESaISM_ISC_SU_EEE
libbcc.so.0:_ZN4ebpf15BMapDeclVisitor12VisitTagTypeEPKN5clang7TagTypeE
libbcc.so.0:_ZN4ebpf15BMapDeclVisitor13VisitEnumDeclEPN5clang8EnumDeclE
libbcc.so.0:_ZN4ebpf15BMapDeclVisitor14VisitFieldDeclEPN5clang9FieldDeclE
libbcc.so.0:_ZN4ebpf15BMapDeclVisitor15VisitRecordDeclEPN5clang10RecordDeclE
libbcc.so.0:_ZN4ebpf15BMapDeclVisitor15genJSONForFieldEPN5clang9FieldDeclE
libbcc.so.0:_ZN4ebpf15BMapDeclVisitor16VisitBuiltinTypeEPKN5clang11BuiltinTypeE
libbcc.so.0:_ZN4ebpf15BMapDeclVisitor16VisitPointerTypeEPKN5clang11PointerTypeE
libbcc.so.0:_ZN4ebpf15BMapDeclVisitor16VisitTypedefTypeEPKN5clang11TypedefTypeE
libbcc.so.0:_ZN4ebpf15BMapDeclVisitor17shouldSkipPaddingEPKN5clang10RecordDeclE
libbcc.so.0:_ZN4ebpf15BMapDeclVisitor18TraverseRecordDeclEPN5clang10RecordDeclE
libbcc.so.0:_ZN4ebpf15BMapDeclVisitor9VisitAttrEPN5clang4AttrE
libbcc.so.0:_ZN4ebpf15BMapDeclVisitorC1ERN5clang10ASTContextERNSt7__cxx1112basic_stringIcSt11char_traitsIcESaIcEEE
libbcc.so.0:_ZN4ebpf15BMapDeclVisitorC2ERN5clang10ASTContextERNSt7__cxx1112basic_stringIcSt11char_traitsIcESaIcEEE
libbcc.so.0:_ZN4ebpf15BPFSockmapTable12remove_valueERKi
libbcc.so.0:_ZN4ebpf15BPFSockmapTable12update_valueERKiS2_
libbcc.so.0:_ZN4ebpf15BPFSockmapTableC1ERKNS_9TableDescE
libbcc.so.0:_ZN4ebpf15BPFSockmapTableC2ERKNS_9TableDescE
libbcc.so.0:_ZN4ebpf15get_online_cpusEv
libbcc.so.0:_ZN4ebpf16BPFSockhashTable12remove_valueERKi
libbcc.so.0:_ZN4ebpf16BPFSockhashTable12update_valueERKiS2_
libbcc.so.0:_ZN4ebpf16BPFSockhashTableC1ERKNS_9TableDescE
libbcc.so.0:_ZN4ebpf16BPFSockhashTableC2ERKNS_9TableDescE
libbcc.so.0:_ZN4ebpf16get_call_conv_cbE10bcc_arch_tb
libbcc.so.0:_ZN4ebpf16get_clang_targetB5cxx11Ev
libbcc.so.0:_ZN4ebpf16parse_tracepointERSiRKNSt7__cxx1112basic_stringIcSt11char_traitsIcESaIcEEES8_
libbcc.so.0:_ZN4ebpf17BPFPerfEventArray11open_on_cpuEijm
libbcc.so.0:_ZN4ebpf17BPFPerfEventArray12close_on_cpuEi
libbcc.so.0:_ZN4ebpf17BPFPerfEventArray12open_all_cpuEjm
libbcc.so.0:_ZN4ebpf17BPFPerfEventArray13close_all_cpuEv
libbcc.so.0:_ZN4ebpf17BPFPerfEventArrayC1ERKNS_9TableDescE
libbcc.so.0:_ZN4ebpf17BPFPerfEventArrayC2ERKNS_9TableDescE
libbcc.so.0:_ZN4ebpf17BPFPerfEventArrayD1Ev
libbcc.so.0:_ZN4ebpf17BPFPerfEventArrayD2Ev
libbcc.so.0:_ZN4ebpf17BpfFsTableStorage11lower_boundERKNSt7__cxx1112basic_stringIcSt11char_traitsIcESaIcEEE
libbcc.so.0:_ZN4ebpf17BpfFsTableStorage11upper_boundERKNSt7__cxx1112basic_stringIcSt11char_traitsIcESaIcEEE
libbcc.so.0:_ZN4ebpf17BpfFsTableStorage3endEv
libbcc.so.0:_ZN4ebpf17BpfFsTableStorage5beginEv
libbcc.so.0:_ZN4ebpf17BpfFsTableStorage5eraseERKNS_24TableStorageIteratorImplE
libbcc.so.0:_ZN4ebpf17BpfFsTableStorage6DeleteERKNSt7__cxx1112basic_stringIcSt11char_traitsIcESaIcEEE
libbcc.so.0:_ZN4ebpf17BpfFsTableStorage6InsertERKNSt7__cxx1112basic_stringIcSt11char_traitsIcESaIcEEEONS_9TableDescE
libbcc.so.0:_ZN4ebpf17get_possible_cpusEv
libbcc.so.0:_ZN4ebpf17get_proc_kheadersERNSt7__cxx1112basic_stringIcSt11char_traitsIcESaIcEEE
libbcc.so.0:_ZN4ebpf18SharedTableStorage11lower_boundERKNSt7__cxx1112basic_stringIcSt11char_traitsIcESaIcEEE
libbcc.so.0:_ZN4ebpf18SharedTableStorage11upper_boundERKNSt7__cxx1112basic_stringIcSt11char_traitsIcESaIcEEE
libbcc.so.0:_ZN4ebpf18SharedTableStorage3endEv
libbcc.so.0:_ZN4ebpf18SharedTableStorage5beginEv
libbcc.so.0:_ZN4ebpf18SharedTableStorage5eraseERKNS_24TableStorageIteratorImplE
libbcc.so.0:_ZN4ebpf18SharedTableStorage6DeleteERKNSt7__cxx1112basic_stringIcSt11char_traitsIcESaIcEEE
libbcc.so.0:_ZN4ebpf18SharedTableStorage6InsertERKNSt7__cxx1112basic_stringIcSt11char_traitsIcESaIcEEEONS_9TableDescE
libbcc.so.0:_ZN4ebpf19get_clang_target_cbE10bcc_arch_tb
libbcc.so.0:_ZN4ebpf20BPFStackBuildIdTable14get_stack_addrEi
libbcc.so.0:_ZN4ebpf20BPFStackBuildIdTable16get_stack_symbolB5cxx11Ei
libbcc.so.0:_ZN4ebpf20BPFStackBuildIdTable22clear_table_non_atomicEv
libbcc.so.0:_ZN4ebpf20BPFStackBuildIdTableC1ERKNS_9TableDescEbbPv
libbcc.so.0:_ZN4ebpf20BPFStackBuildIdTableC2ERKNS_9TableDescEbbPv
libbcc.so.0:_ZN4ebpf21TracepointTypeVisitor17VisitFunctionDeclEPN5clang12FunctionDeclE
libbcc.so.0:_ZN4ebpf21TracepointTypeVisitor24GenerateTracepointStructEN5clang14SourceLocationERKNSt7__cxx1112basic_stringIcSt11char_traitsIcESaIcEEESA_
libbcc.so.0:_ZN4ebpf21TracepointTypeVisitorC1ERN5clang10ASTContextERNS1_8RewriterE
libbcc.so.0:_ZN4ebpf21TracepointTypeVisitorC2ERN5clang10ASTContextERNS1_8RewriterE
libbcc.so.0:_ZN4ebpf22TracepointTypeConsumer18HandleTopLevelDeclEN5clang12DeclGroupRefE
libbcc.so.0:_ZN4ebpf22TracepointTypeConsumerC1ERN5clang10ASTContextERNS1_8RewriterE
libbcc.so.0:_ZN4ebpf22TracepointTypeConsumerC2ERN5clang10ASTContextERNS1_8RewriterE
libbcc.so.0:_ZN4ebpf23createBpfFsTableStorageEv
libbcc.so.0:_ZN4ebpf24TracepointFrontendAction17CreateASTConsumerERN5clang16CompilerInstanceEN4llvm9StringRefE
libbcc.so.0:_ZN4ebpf24TracepointFrontendAction19EndSourceFileActionEv
libbcc.so.0:_ZN4ebpf24TracepointFrontendActionC1ERN4llvm11raw_ostreamE
libbcc.so.0:_ZN4ebpf24TracepointFrontendActionC2ERN4llvm11raw_ostreamE
libbcc.so.0:_ZN4ebpf24createSharedTableStorageEv
libbcc.so.0:_ZN4ebpf25createJsonMapTypesVisitorEv
libbcc.so.0:_ZN4ebpf28bpf_module_rw_engine_enabledEv
libbcc.so.0:_ZN4ebpf3BPF10add_moduleENSt7__cxx1112basic_stringIcSt11char_traitsIcESaIcEEE
libbcc.so.0:_ZN4ebpf3BPF10detach_allEv
libbcc.so.0:_ZN4ebpf3BPF11attach_funcEii15bpf_attach_typem
libbcc.so.0:_ZN4ebpf3BPF11attach_usdtERKNS_4USDTEi
libbcc.so.0:_ZN4ebpf3BPF11detach_funcEii15bpf_attach_type
libbcc.so.0:_ZN4ebpf3BPF11detach_usdtERKNS_4USDTEi
libbcc.so.0:_ZN4ebpf3BPF11unload_funcERKNSt7__cxx1112basic_stringIcSt11char_traitsIcESaIcEEE
libbcc.so.0:_ZN4ebpf3BPF13attach_kprobeERKNSt7__cxx1112basic_stringIcSt11char_traitsIcESaIcEEES8_m21bpf_probe_attach_typei
libbcc.so.0:_ZN4ebpf3BPF13attach_uprobeERKNSt7__cxx1112basic_stringIcSt11char_traitsIcESaIcEEES8_S8_m21bpf_probe_attach_typeimj
libbcc.so.0:_ZN4ebpf3BPF13detach_kprobeERKNSt7__cxx1112basic_stringIcSt11char_traitsIcESaIcEEE21bpf_probe_attach_type
libbcc.so.0:_ZN4ebpf3BPF13detach_uprobeERKNSt7__cxx1112basic_stringIcSt11char_traitsIcESaIcEEES8_m21bpf_probe_attach_typeim
libbcc.so.0:_ZN4ebpf3BPF14get_prog_tableERKNSt7__cxx1112basic_stringIcSt11char_traitsIcESaIcEEE
libbcc.so.0:_ZN4ebpf3BPF15attach_usdt_allEv
libbcc.so.0:_ZN4ebpf3BPF15detach_usdt_allEv
libbcc.so.0:_ZN4ebpf3BPF15free_bcc_memoryEv
libbcc.so.0:_ZN4ebpf3BPF15get_perf_bufferERKNSt7__cxx1112basic_stringIcSt11char_traitsIcESaIcEEE
libbcc.so.0:_ZN4ebpf3BPF15get_stack_tableERKNSt7__cxx1112basic_stringIcSt11char_traitsIcESaIcEEEbb
libbcc.so.0:_ZN4ebpf3BPF15init_fail_resetEv
libbcc.so.0:_ZN4ebpf3BPF15open_perf_eventERKNSt7__cxx1112basic_stringIcSt11char_traitsIcESaIcEEEjm
libbcc.so.0:_ZN4ebpf3BPF16close_perf_eventERKNSt7__cxx1112basic_stringIcSt11char_traitsIcESaIcEEE
libbcc.so.0:_ZN4ebpf3BPF16get_cgroup_arrayERKNSt7__cxx1112basic_stringIcSt11char_traitsIcESaIcEEE
libbcc.so.0:_ZN4ebpf3BPF16get_devmap_tableERKNSt7__cxx1112basic_stringIcSt11char_traitsIcESaIcEEE
libbcc.so.0:_ZN4ebpf3BPF16get_kprobe_eventERKNSt7__cxx1112basic_stringIcSt11char_traitsIcESaIcEEE21bpf_probe_attach_type
libbcc.so.0:_ZN4ebpf3BPF16get_uprobe_eventERKNSt7__cxx1112basic_stringIcSt11char_traitsIcESaIcEEEm21bpf_probe_attach_typei
libbcc.so.0:_ZN4ebpf3BPF16get_xskmap_tableERKNSt7__cxx1112basic_stringIcSt11char_traitsIcESaIcEEE
libbcc.so.0:_ZN4ebpf3BPF16open_perf_bufferERKNSt7__cxx1112basic_stringIcSt11char_traitsIcESaIcEEEPFvPvS9_iEPFvS9_mES9_i
libbcc.so.0:_ZN4ebpf3BPF16poll_perf_bufferERKNSt7__cxx1112basic_stringIcSt11char_traitsIcESaIcEEEi
libbcc.so.0:_ZN4ebpf3BPF17attach_perf_eventEjjRKNSt7__cxx1112basic_stringIcSt11char_traitsIcESaIcEEEmmiii
libbcc.so.0:_ZN4ebpf3BPF17attach_tracepointERKNSt7__cxx1112basic_stringIcSt11char_traitsIcESaIcEEES8_
libbcc.so.0:_ZN4ebpf3BPF17close_perf_bufferERKNSt7__cxx1112basic_stringIcSt11char_traitsIcESaIcEEE
libbcc.so.0:_ZN4ebpf3BPF17detach_perf_eventEjj
libbcc.so.0:_ZN4ebpf3BPF17detach_tracepointERKNSt7__cxx1112basic_stringIcSt11char_traitsIcESaIcEEE
libbcc.so.0:_ZN4ebpf3BPF17get_sockmap_tableERKNSt7__cxx1112basic_stringIcSt11char_traitsIcESaIcEEE
libbcc.so.0:_ZN4ebpf3BPF18get_sockhash_tableERKNSt7__cxx1112basic_stringIcSt11char_traitsIcESaIcEEE
libbcc.so.0:_ZN4ebpf3BPF18get_syscall_fnnameERKNSt7__cxx1112basic_stringIcSt11char_traitsIcESaIcEEE
libbcc.so.0:_ZN4ebpf3BPF19check_binary_symbolERKNSt7__cxx1112basic_stringIcSt11char_traitsIcESaIcEEES8_mRS6_Rmm
libbcc.so.0:_ZN4ebpf3BPF19detach_kprobe_eventERKNSt7__cxx1112basic_stringIcSt11char_traitsIcESaIcEEERNS_12open_probe_tE
libbcc.so.0:_ZN4ebpf3BPF19detach_uprobe_eventERKNSt7__cxx1112basic_stringIcSt11char_traitsIcESaIcEEERNS_12open_probe_tE
libbcc.so.0:_ZN4ebpf3BPF21attach_perf_event_rawEPvRKNSt7__cxx1112basic_stringIcSt11char_traitsIcESaIcEEEiiim
libbcc.so.0:_ZN4ebpf3BPF21attach_raw_tracepointERKNSt7__cxx1112basic_stringIcSt11char_traitsIcESaIcEEES8_
libbcc.so.0:_ZN4ebpf3BPF21detach_perf_event_rawEPv
libbcc.so.0:_ZN4ebpf3BPF21detach_raw_tracepointERKNSt7__cxx1112basic_stringIcSt11char_traitsIcESaIcEEE
libbcc.so.0:_ZN4ebpf3BPF22get_stackbuildid_tableERKNSt7__cxx1112basic_stringIcSt11char_traitsIcESaIcEEEbb
libbcc.so.0:_ZN4ebpf3BPF23detach_tracepoint_eventERKNSt7__cxx1112basic_stringIcSt11char_traitsIcESaIcEEERNS_12open_probe_tE
libbcc.so.0:_ZN4ebpf3BPF25detach_perf_event_all_cpuERNS_12open_probe_tE
libbcc.so.0:_ZN4ebpf3BPF27detach_raw_tracepoint_eventERKNSt7__cxx1112basic_stringIcSt11char_traitsIcESaIcEEERNS_12open_probe_tE
libbcc.so.0:_ZN4ebpf3BPF30attach_usdt_without_validationERKNS_4USDTEi
libbcc.so.0:_ZN4ebpf3BPF30detach_usdt_without_validationERKNS_4USDTEi
libbcc.so.0:_ZN4ebpf3BPF4initERKNSt7__cxx1112basic_stringIcSt11char_traitsIcESaIcEEERKSt6vectorIS6_SaIS6_EERKS9_INS_4USDTESaISE_EE
libbcc.so.0:_ZN4ebpf3BPF9init_usdtERKNS_4USDTE
libbcc.so.0:_ZN4ebpf3BPF9load_funcERKNSt7__cxx1112basic_stringIcSt11char_traitsIcESaIcEEE13bpf_prog_typeRij15bpf_attach_type
libbcc.so.0:_ZN4ebpf3BPFD1Ev
libbcc.so.0:_ZN4ebpf3BPFD2Ev
libbcc.so.0:_ZN4ebpf3BTF12get_btf_infoEPKcPPvPjS5_S4_S5_S5_
libbcc.so.0:_ZN4ebpf3BTF12get_map_tidsENSt7__cxx1112basic_stringIcSt11char_traitsIcESaIcEEEjjPjS7_
libbcc.so.0:_ZN4ebpf3BTF4loadEPhmS1_mRSt3mapINSt7__cxx1112basic_stringIcSt11char_traitsIcESaIcEEES8_St4lessIS8_ESaISt4pairIKS8_S8_EEE
libbcc.so.0:_ZN4ebpf3BTF6adjustEPhmS1_mRSt3mapINSt7__cxx1112basic_stringIcSt11char_traitsIcESaIcEEES8_St4lessIS8_ESaISt4pairIKS8_S8_EEEPS1_Pm
libbcc.so.0:_ZN4ebpf3BTF6get_fdEv
libbcc.so.0:_ZN4ebpf3BTF7warningEPKcz
libbcc.so.0:_ZN4ebpf3BTF9fixup_btfEPhmPc
libbcc.so.0:_ZN4ebpf3BTFC1EbRSt3mapINSt7__cxx1112basic_stringIcSt11char_traitsIcESaIcEEESt5tupleIJPhmjEESt4lessIS7_ESaISt4pairIKS7_SA_EEE
libbcc.so.0:_ZN4ebpf3BTFC2EbRSt3mapINSt7__cxx1112basic_stringIcSt11char_traitsIcESaIcEEESt5tupleIJPhmjEESt4lessIS7_ESaISt4pairIKS7_SA_EEE
libbcc.so.0:_ZN4ebpf3BTFD1Ev
libbcc.so.0:_ZN4ebpf3BTFD2Ev
libbcc.so.0:_ZN4ebpf4USDT25set_probe_matching_kludgeEh
libbcc.so.0:_ZN4ebpf4USDT4initEv
libbcc.so.0:_ZN4ebpf4USDTC1EOS0_
libbcc.so.0:_ZN4ebpf4USDTC1ERKNSt7__cxx1112basic_stringIcSt11char_traitsIcESaIcEEES8_S8_S8_
libbcc.so.0:_ZN4ebpf4USDTC1ERKNSt7__cxx1112basic_stringIcSt11char_traitsIcESaIcEEEiS8_S8_S8_
libbcc.so.0:_ZN4ebpf4USDTC1ERKS0_
libbcc.so.0:_ZN4ebpf4USDTC1EiRKNSt7__cxx1112basic_stringIcSt11char_traitsIcESaIcEEES8_S8_
libbcc.so.0:_ZN4ebpf4USDTC2EOS0_
libbcc.so.0:_ZN4ebpf4USDTC2ERKNSt7__cxx1112basic_stringIcSt11char_traitsIcESaIcEEES8_S8_S8_
libbcc.so.0:_ZN4ebpf4USDTC2ERKNSt7__cxx1112basic_stringIcSt11char_traitsIcESaIcEEEiS8_S8_S8_
libbcc.so.0:_ZN4ebpf4USDTC2ERKS0_
libbcc.so.0:_ZN4ebpf4USDTC2EiRKNSt7__cxx1112basic_stringIcSt11char_traitsIcESaIcEEES8_S8_
libbcc.so.0:_ZN4ebpf8BPFTable12remove_valueERKNSt7__cxx1112basic_stringIcSt11char_traitsIcESaIcEEE
libbcc.so.0:_ZN4ebpf8BPFTable12update_valueERKNSt7__cxx1112basic_stringIcSt11char_traitsIcESaIcEEERKSt6vectorIS6_SaIS6_EE
libbcc.so.0:_ZN4ebpf8BPFTable12update_valueERKNSt7__cxx1112basic_stringIcSt11char_traitsIcESaIcEEES8_
libbcc.so.0:_ZN4ebpf8BPFTable17get_table_offlineERSt6vectorISt4pairINSt7__cxx1112basic_stringIcSt11char_traitsIcESaIcEEES8_ESaIS9_EE
libbcc.so.0:_ZN4ebpf8BPFTable22clear_table_non_atomicEv
libbcc.so.0:_ZN4ebpf8BPFTable22get_possible_cpu_countEv
libbcc.so.0:_ZN4ebpf8BPFTable9get_valueERKNSt7__cxx1112basic_stringIcSt11char_traitsIcESaIcEEERS6_
libbcc.so.0:_ZN4ebpf8BPFTable9get_valueERKNSt7__cxx1112basic_stringIcSt11char_traitsIcESaIcEEERSt6vectorIS6_SaIS6_EE
libbcc.so.0:_ZN4ebpf8BPFTableC1ERKNS_9TableDescE
libbcc.so.0:_ZN4ebpf8BPFTableC2ERKNS_9TableDescE
libbcc.so.0:_ZN4ebpf9BPFModule10load_cfileERKNSt7__cxx1112basic_stringIcSt11char_traitsIcESaIcEEEbPPKci
libbcc.so.0:_ZN4ebpf9BPFModule11create_mapsERSt3mapINSt7__cxx1112basic_stringIcSt11char_traitsIcESaIcEEESt4pairIiiESt4lessIS7_ESaIS8_IKS7_S9_EEERS1_IiiSA_IiESaIS8_IKiiEEERS1_IS7_iSB_SaIS8_ISC_iEEEb
libbcc.so.0:_ZN4ebpf9BPFModule11finalize_rwESt10unique_ptrIN4llvm6ModuleESt14default_deleteIS3_EE
libbcc.so.0:_ZN4ebpf9BPFModule11load_stringERKNSt7__cxx1112basic_stringIcSt11char_traitsIcESaIcEEEPPKci
libbcc.so.0:_ZN4ebpf9BPFModule11make_readerB5cxx11EPN4llvm6ModuleEPNS1_4TypeE
libbcc.so.0:_ZN4ebpf9BPFModule11make_writerB5cxx11EPN4llvm6ModuleEPNS1_4TypeE
libbcc.so.0:_ZN4ebpf9BPFModule13bcc_func_loadEiPKcPK8bpf_insniS2_jiPcjS2_ji
libbcc.so.0:_ZN4ebpf9BPFModule13load_includesERKNSt7__cxx1112basic_stringIcSt11char_traitsIcESaIcEEE
libbcc.so.0:_ZN4ebpf9BPFModule14annotate_lightEv
libbcc.so.0:_ZN4ebpf9BPFModule15bcc_func_attachEiiij
libbcc.so.0:_ZN4ebpf9BPFModule15bcc_func_detachEiii
libbcc.so.0:_ZN4ebpf9BPFModule15free_bcc_memoryEv
libbcc.so.0:_ZN4ebpf9BPFModule15table_key_scanfEmPKcPv
libbcc.so.0:_ZN4ebpf9BPFModule16run_pass_managerERN4llvm6ModuleE
libbcc.so.0:_ZN4ebpf9BPFModule16table_key_printfEmPcmPKv
libbcc.so.0:_ZN4ebpf9BPFModule16table_leaf_scanfEmPKcPv
libbcc.so.0:_ZN4ebpf9BPFModule17annotate_prog_tagERKNSt7__cxx1112basic_stringIcSt11char_traitsIcESaIcEEEiP8bpf_insni
libbcc.so.0:_ZN4ebpf9BPFModule17cleanup_rw_engineEv
libbcc.so.0:_ZN4ebpf9BPFModule17table_leaf_printfEmPcmPKv
libbcc.so.0:_ZN4ebpf9BPFModule20initialize_rw_engineEv
libbcc.so.0:_ZN4ebpf9BPFModule23finalize_prog_func_infoEv
libbcc.so.0:_ZN4ebpf9BPFModule6load_cERKNSt7__cxx1112basic_stringIcSt11char_traitsIcESaIcEEEPPKci
libbcc.so.0:_ZN4ebpf9BPFModule6sscanfENSt7__cxx1112basic_stringIcSt11char_traitsIcESaIcEEEPKcPv
libbcc.so.0:_ZN4ebpf9BPFModule7dump_irERN4llvm6ModuleE
libbcc.so.0:_ZN4ebpf9BPFModule8annotateEv
libbcc.so.0:_ZN4ebpf9BPFModule8finalizeEv
libbcc.so.0:_ZN4ebpf9BPFModule8load_btfERSt3mapINSt7__cxx1112basic_stringIcSt11char_traitsIcESaIcEEESt5tupleIJPhmjEESt4lessIS7_ESaISt4pairIKS7_SA_EEE
libbcc.so.0:_ZN4ebpf9BPFModule8snprintfENSt7__cxx1112basic_stringIcSt11char_traitsIcESaIcEEEPcmPKv
libbcc.so.0:_ZN4ebpf9BPFModule9load_mapsERSt3mapINSt7__cxx1112basic_stringIcSt11char_traitsIcESaIcEEESt5tupleIJPhmjEESt4lessIS7_ESaISt4pairIKS7_SA_EEE
libbcc.so.0:_ZN4ebpf9BPFModuleC1EjPNS_12TableStorageEbRKNSt7__cxx1112basic_stringIcSt11char_traitsIcESaIcEEEbPKc
libbcc.so.0:_ZN4ebpf9BPFModuleC2EjPNS_12TableStorageEbRKNSt7__cxx1112basic_stringIcSt11char_traitsIcESaIcEEEbPKc
libbcc.so.0:_ZN4ebpf9BPFModuleD1Ev
libbcc.so.0:_ZN4ebpf9BPFModuleD2Ev
libbcc.so.0:_ZN4llvm10AADepGraph5printEv
libbcc.so.0:_ZN4llvm10AADepGraph9dumpGraphEv
libbcc.so.0:_ZN4llvm10AADepGraph9viewGraphEv
libbcc.so.0:_ZN4llvm10AANoReturn17createForPositionERKNS_10IRPositionERNS_10AttributorE
libbcc.so.0:_ZN4llvm10AANoUnwind17createForPositionERKNS_10IRPositionERNS_10AttributorE
libbcc.so.0:_ZN4llvm10AllocaInstC1EPNS_4TypeEjPNS_5ValueENS_5AlignERKNS_5TwineEPNS_10BasicBlockE
libbcc.so.0:_ZN4llvm10AllocaInstC1EPNS_4TypeEjPNS_5ValueENS_5AlignERKNS_5TwineEPNS_11InstructionE
libbcc.so.0:_ZN4llvm10AllocaInstC1EPNS_4TypeEjPNS_5ValueERKNS_5TwineEPNS_10BasicBlockE
libbcc.so.0:_ZN4llvm10AllocaInstC1EPNS_4TypeEjPNS_5ValueERKNS_5TwineEPNS_11InstructionE
libbcc.so.0:_ZN4llvm10AllocaInstC1EPNS_4TypeEjRKNS_5TwineEPNS_10BasicBlockE
libbcc.so.0:_ZN4llvm10AllocaInstC1EPNS_4TypeEjRKNS_5TwineEPNS_11InstructionE
libbcc.so.0:_ZN4llvm10AllocaInstC2EPNS_4TypeEjPNS_5ValueENS_5AlignERKNS_5TwineEPNS_10BasicBlockE
libbcc.so.0:_ZN4llvm10AllocaInstC2EPNS_4TypeEjPNS_5ValueENS_5AlignERKNS_5TwineEPNS_11InstructionE
libbcc.so.0:_ZN4llvm10AllocaInstC2EPNS_4TypeEjPNS_5ValueERKNS_5TwineEPNS_10BasicBlockE
libbcc.so.0:_ZN4llvm10AllocaInstC2EPNS_4TypeEjPNS_5ValueERKNS_5TwineEPNS_11InstructionE
libbcc.so.0:_ZN4llvm10AllocaInstC2EPNS_4TypeEjRKNS_5TwineEPNS_10BasicBlockE
libbcc.so.0:_ZN4llvm10AllocaInstC2EPNS_4TypeEjRKNS_5TwineEPNS_11InstructionE
libbcc.so.0:_ZN4llvm10AsmPrinter10recordSledEPNS_8MCSymbolERKNS_12MachineInstrENS0_8SledKindEh
libbcc.so.0:_ZN4llvm10AsmPrinter13emitStackMapsERNS_9StackMapsE
libbcc.so.0:_ZN4llvm10AsmPrinter13emitXRayTableEv
libbcc.so.0:_ZN4llvm10AsmPrinter13lowerConstantEPKNS_8ConstantE
libbcc.so.0:_ZN4llvm10AsmPrinter13needsSEHMovesEv
libbcc.so.0:_ZN4llvm10AsmPrinter14EmitToStreamerERNS_10MCStreamerERKNS_6MCInstE
libbcc.so.0:_ZN4llvm10AsmPrinter14doFinalizationERNS_6ModuleE
libbcc.so.0:_ZN4llvm10AsmPrinter14emitFrameAllocERKNS_12MachineInstrE
libbcc.so.0:_ZN4llvm10AsmPrinter14emitStackUsageERKNS_15MachineFunctionE
libbcc.so.0:_ZN4llvm10AsmPrinter14getGVAlignmentEPKNS_12GlobalObjectERKNS_10DataLayoutENS_5AlignE
libbcc.so.0:_ZN4llvm10AsmPrinter15PrintAsmOperandEPKNS_12MachineInstrEjPKcRNS_11raw_ostreamE
libbcc.so.0:_ZN4llvm10AsmPrinter15emitGlobalAliasERNS_6ModuleERKNS_11GlobalAliasE
libbcc.so.0:_ZN4llvm10AsmPrinter15emitGlobalIFuncERNS_6ModuleERKNS_11GlobalIFuncE
libbcc.so.0:_ZN4llvm10AsmPrinter15emitPseudoProbeERKNS_12MachineInstrE
libbcc.so.0:_ZN4llvm10AsmPrinter15setDwarfVersionEt
libbcc.so.0:_ZN4llvm10AsmPrinter16doInitializationERNS_6ModuleE
libbcc.so.0:_ZN4llvm10AsmPrinter16emitConstantPoolEv
libbcc.so.0:_ZN4llvm10AsmPrinter16emitFunctionBodyEv
libbcc.so.0:_ZN4llvm10AsmPrinter16emitLLVMUsedListEPKNS_13ConstantArrayE
libbcc.so.0:_ZN4llvm10AsmPrinter16emitModuleIdentsERNS_6ModuleE
libbcc.so.0:_ZN4llvm10AsmPrinter17emitBasicBlockEndERKNS_17MachineBasicBlockE
libbcc.so.0:_ZN4llvm10AsmPrinter17emitJumpTableInfoEv
libbcc.so.0:_ZN4llvm10AsmPrinter18PrintSymbolOperandERKNS_14MachineOperandERNS_11raw_ostreamE
libbcc.so.0:_ZN4llvm10AsmPrinter18emitCFIInstructionERKNS_12MachineInstrE
libbcc.so.0:_ZN4llvm10AsmPrinter18emitFunctionHeaderEv
libbcc.so.0:_ZN4llvm10AsmPrinter18emitGlobalConstantERKNS_10DataLayoutEPKNS_8ConstantEPNS_8DenseMapImNS_11SmallVectorIPKNS_11GlobalAliasELj1EEENS_12DenseMapInfoImvEENS_6detail12DenseMapPairImSC_EEEE
libbcc.so.0:_ZN4llvm10AsmPrinter18emitGlobalVariableEPKNS_14GlobalVariableE
libbcc.so.0:_ZN4llvm10AsmPrinter18emitRemarksSectionERNS_7remarks14RemarkStreamerE
libbcc.so.0:_ZN4llvm10AsmPrinter18emitTTypeReferenceEPKNS_11GlobalValueEj
libbcc.so.0:_ZN4llvm10AsmPrinter18emitXXStructorListERKNS_10DataLayoutEPKNS_8ConstantEb
libbcc.so.0:_ZN4llvm10AsmPrinter18getMBBExceptionSymERKNS_17MachineBasicBlockE
libbcc.so.0:_ZN4llvm10AsmPrinter19emitBasicBlockStartERKNS_17MachineBasicBlockE
libbcc.so.0:_ZN4llvm10AsmPrinter19emitGlobalGOTEquivsEv
libbcc.so.0:_ZN4llvm10AsmPrinter20GetOrCreateGCPrinterERNS_10GCStrategyE
libbcc.so.0:_ZN4llvm10AsmPrinter20SetupMachineFunctionERNS_15MachineFunctionE
libbcc.so.0:_ZN4llvm10AsmPrinter20emitBBAddrMapSectionERKNS_15MachineFunctionE
libbcc.so.0:_ZN4llvm10AsmPrinter20emitStackSizeSectionERKNS_15MachineFunctionE
libbcc.so.0:_ZN4llvm10AsmPrinter21PrintAsmMemoryOperandEPKNS_12MachineInstrEjPKcRNS_11raw_ostreamE
libbcc.so.0:_ZN4llvm10AsmPrinter21emitSpecialLLVMGlobalEPKNS_14GlobalVariableE
libbcc.so.0:_ZN4llvm10AsmPrinter22computeGlobalGOTEquivsERNS_6ModuleE
libbcc.so.0:_ZN4llvm10AsmPrinter22emitFunctionEntryLabelEv
libbcc.so.0:_ZN4llvm10AsmPrinter22emitModuleCommandLinesERNS_6ModuleE
libbcc.so.0:_ZN4llvm10AsmPrinter24getAddrLabelSymbolToEmitEPKNS_10BasicBlockE
libbcc.so.0:_ZN4llvm10AsmPrinter24preprocessXXStructorListERKNS_10DataLayoutEPKNS_8ConstantERNS_11SmallVectorINS0_8StructorELj8EEE
libbcc.so.0:_ZN4llvm10AsmPrinter25emitFunctionHeaderCommentEv
libbcc.so.0:_ZN4llvm10AsmPrinter28emitMachineConstantPoolValueEPNS_24MachineConstantPoolValueE
libbcc.so.0:_ZN4llvm10AsmPrinter28emitPatchableFunctionEntriesEv
libbcc.so.0:_ZN4llvm10AsmPrinter29takeDeletedSymbolsForFunctionEPKNS_8FunctionERSt6vectorIPNS_8MCSymbolESaIS6_EE
libbcc.so.0:_ZN4llvm10AsmPrinter31emitInitialRawDwarfLocDirectiveERKNS_15MachineFunctionE
libbcc.so.0:_ZN4llvm10AsmPrinter8emitNopsEj
libbcc.so.0:_ZN4llvm10AsmPrinterC1ERNS_13TargetMachineESt10unique_ptrINS_10MCStreamerESt14default_deleteIS4_EE
libbcc.so.0:_ZN4llvm10AsmPrinterC2ERNS_13TargetMachineESt10unique_ptrINS_10MCStreamerESt14default_deleteIS4_EE
libbcc.so.0:_ZN4llvm10AsmPrinterD0Ev
libbcc.so.0:_ZN4llvm10AsmPrinterD1Ev
libbcc.so.0:_ZN4llvm10AsmPrinterD2Ev
libbcc.so.0:_ZN4llvm10Attributor13isAssumedDeadERKNS_10BasicBlockEPKNS_17AbstractAttributeEPKNS_8AAIsDeadENS_10DepClassTyE
libbcc.so.0:_ZN4llvm10Attributor13isAssumedDeadERKNS_10IRPositionEPKNS_17AbstractAttributeEPKNS_8AAIsDeadERbbNS_10DepClassTyE
libbcc.so.0:_ZN4llvm10Attributor13isAssumedDeadERKNS_11InstructionEPKNS_17AbstractAttributeEPKNS_8AAIsDeadERbbNS_10DepClassTyE
libbcc.so.0:_ZN4llvm10Attributor13isAssumedDeadERKNS_17AbstractAttributeEPKNS_8AAIsDeadERbbNS_10DepClassTyE
libbcc.so.0:_ZN4llvm10Attributor13isAssumedDeadERKNS_3UseEPKNS_17AbstractAttributeEPKNS_8AAIsDeadERbbNS_10DepClassTyE
libbcc.so.0:_ZN4llvm10Attributor15checkForAllUsesENS_12function_refIFbRKNS_3UseERbEEERKNS_17AbstractAttributeERKNS_5ValueEbNS_10DepClassTyEbNS1_IFbS4_S4_EEE
libbcc.so.0:_ZN4llvm10Attributor15runTillFixpointEv
libbcc.so.0:_ZN4llvm10Attributor16isInternalizableERNS_8FunctionE
libbcc.so.0:_ZN4llvm10Attributor16recordDependenceERKNS_17AbstractAttributeES3_NS_10DepClassTyE
libbcc.so.0:_ZN4llvm10Attributor17registerForUpdateERNS_17AbstractAttributeE
libbcc.so.0:_ZN4llvm10Attributor18getAssumedConstantERKNS_10IRPositionERKNS_17AbstractAttributeERb
libbcc.so.0:_ZN4llvm10Attributor18manifestAttributesEv
libbcc.so.0:_ZN4llvm10Attributor19internalizeFunctionERNS_8FunctionEb
libbcc.so.0:_ZN4llvm10Attributor19rememberDependencesEv
libbcc.so.0:_ZN4llvm10Attributor19shouldSeedAttributeERNS_17AbstractAttributeE
libbcc.so.0:_ZN4llvm10Attributor20checkForAllCallSitesENS_12function_refIFbNS_16AbstractCallSiteEEEERKNS_17AbstractAttributeEbRb
libbcc.so.0:_ZN4llvm10Attributor20checkForAllCallSitesENS_12function_refIFbNS_16AbstractCallSiteEEEERKNS_8FunctionEbPKNS_17AbstractAttributeERb
libbcc.so.0:_ZN4llvm10Attributor20createShallowWrapperERNS_8FunctionE
libbcc.so.0:_ZN4llvm10Attributor20getAssumedSimplifiedERKNS_10IRPositionEPKNS_17AbstractAttributeERbNS_2AA10ValueScopeE
libbcc.so.0:_ZN4llvm10Attributor20internalizeFunctionsERNS_15SmallPtrSetImplIPNS_8FunctionEEERNS_8DenseMapIS3_S3_NS_12DenseMapInfoIS3_vEENS_6detail12DenseMapPairIS3_S3_EEEE
libbcc.so.0:_ZN4llvm10Attributor23checkForAllInstructionsENS_12function_refIFbRNS_11InstructionEEEEPKNS_8FunctionERKNS_17AbstractAttributeERKNS_8ArrayRefIjEERbbb
libbcc.so.0:_ZN4llvm10Attributor23checkForAllInstructionsENS_12function_refIFbRNS_11InstructionEEEERKNS_17AbstractAttributeERKNS_8ArrayRefIjEERbbb
libbcc.so.0:_ZN4llvm10Attributor25checkForAllReturnedValuesENS_12function_refIFbRNS_5ValueEEEERKNS_17AbstractAttributeE
libbcc.so.0:_ZN4llvm10Attributor25rewriteFunctionSignaturesERNS_14SmallSetVectorIPNS_8FunctionELj8EEE
libbcc.so.0:_ZN4llvm10Attributor26getAssumedSimplifiedValuesERKNS_10IRPositionEPKNS_17AbstractAttributeERNS_15SmallVectorImplINS_2AA15ValueAndContextEEENS8_10ValueScopeERb
libbcc.so.0:_ZN4llvm10Attributor29identifyDeadInternalFunctionsEv
libbcc.so.0:_ZN4llvm10Attributor30shouldPropagateCallBaseContextERKNS_10IRPositionE
libbcc.so.0:_ZN4llvm10Attributor31isValidFunctionSignatureRewriteERNS_8ArgumentENS_8ArrayRefIPNS_4TypeEEE
libbcc.so.0:_ZN4llvm10Attributor32checkForAllReadWriteInstructionsENS_12function_refIFbRNS_11InstructionEEEERNS_17AbstractAttributeERb
libbcc.so.0:_ZN4llvm10Attributor32registerFunctionSignatureRewriteERNS_8ArgumentENS_8ArrayRefIPNS_4TypeEEEOSt8functionIFvRKNS0_23ArgumentReplacementInfoERNS_8FunctionEPS1_EEOS7_IFvSA_NS_16AbstractCallSiteERNS_15SmallVectorImplIPNS_5ValueEEEEE
libbcc.so.0:_ZN4llvm10Attributor33identifyDefaultAbstractAttributesERNS_8FunctionE
libbcc.so.0:_ZN4llvm10Attributor34translateArgumentToCallSiteContentENS_8OptionalIPNS_5ValueEEERNS_8CallBaseERKNS_17AbstractAttributeERb
libbcc.so.0:_ZN4llvm10Attributor39checkForAllReturnedValuesAndReturnInstsENS_12function_refIFbRNS_5ValueERKNS_14SmallSetVectorIPNS_10ReturnInstELj4EEEEEERKNS_17AbstractAttributeE
libbcc.so.0:_ZN4llvm10Attributor3runEv
libbcc.so.0:_ZN4llvm10Attributor8updateAAERNS_17AbstractAttributeE
libbcc.so.0:_ZN4llvm10Attributor9cleanupIREv
libbcc.so.0:_ZN4llvm10AttributorD1Ev
libbcc.so.0:_ZN4llvm10AttributorD2Ev
libbcc.so.0:_ZN4llvm10BasicBlock10insertIntoEPNS_8FunctionEPS0_
libbcc.so.0:_ZN4llvm10BasicBlock10moveBeforeEPS0_
libbcc.so.0:_ZN4llvm10BasicBlock15eraseFromParentEv
libbcc.so.0:_ZN4llvm10BasicBlock15splitBasicBlockENS_14ilist_iteratorINS_12ilist_detail12node_optionsINS_11InstructionELb0ELb0EvEELb0ELb0EEERKNS_5TwineEb
libbcc.so.0:_ZN4llvm10BasicBlock16removeFromParentEv
libbcc.so.0:_ZN4llvm10BasicBlock17dropAllReferencesEv
libbcc.so.0:_ZN4llvm10BasicBlock17removePredecessorEPS0_b
libbcc.so.0:_ZN4llvm10BasicBlock18replacePhiUsesWithEPS0_S1_
libbcc.so.0:_ZN4llvm10BasicBlock19getValueSymbolTableEv
libbcc.so.0:_ZN4llvm10BasicBlock20renumberInstructionsEv
libbcc.so.0:_ZN4llvm10BasicBlock21splitBasicBlockBeforeENS_14ilist_iteratorINS_12ilist_detail12node_optionsINS_11InstructionELb0ELb0EvEELb0ELb0EEERKNS_5TwineE
libbcc.so.0:_ZN4llvm10BasicBlock24instructionsWithoutDebugEb
libbcc.so.0:_ZN4llvm10BasicBlock28replaceSuccessorsPhiUsesWithEPS0_
libbcc.so.0:_ZN4llvm10BasicBlock28replaceSuccessorsPhiUsesWithEPS0_S1_
libbcc.so.0:_ZN4llvm10BasicBlock4phisEv
libbcc.so.0:_ZN4llvm10BasicBlock9moveAfterEPS0_
libbcc.so.0:_ZN4llvm10BasicBlock9setParentEPNS_8FunctionE
libbcc.so.0:_ZN4llvm10BasicBlockC1ERNS_11LLVMContextERKNS_5TwineEPNS_8FunctionEPS0_
libbcc.so.0:_ZN4llvm10BasicBlockC2ERNS_11LLVMContextERKNS_5TwineEPNS_8FunctionEPS0_
libbcc.so.0:_ZN4llvm10BasicBlockD1Ev
libbcc.so.0:_ZN4llvm10BasicBlockD2Ev
libbcc.so.0:_ZN4llvm10BranchInst14swapSuccessorsEv
libbcc.so.0:_ZN4llvm10BranchInst8AssertOKEv
libbcc.so.0:_ZN4llvm10BranchInstC1EPNS_10BasicBlockEPNS_11InstructionE
libbcc.so.0:_ZN4llvm10BranchInstC1EPNS_10BasicBlockES2_
libbcc.so.0:_ZN4llvm10BranchInstC1EPNS_10BasicBlockES2_PNS_5ValueEPNS_11InstructionE
libbcc.so.0:_ZN4llvm10BranchInstC1EPNS_10BasicBlockES2_PNS_5ValueES2_
libbcc.so.0:_ZN4llvm10BranchInstC1ERKS0_
libbcc.so.0:_ZN4llvm10BranchInstC2EPNS_10BasicBlockEPNS_11InstructionE
libbcc.so.0:_ZN4llvm10BranchInstC2EPNS_10BasicBlockES2_
libbcc.so.0:_ZN4llvm10BranchInstC2EPNS_10BasicBlockES2_PNS_5ValueEPNS_11InstructionE
libbcc.so.0:_ZN4llvm10BranchInstC2EPNS_10BasicBlockES2_PNS_5ValueES2_
libbcc.so.0:_ZN4llvm10BranchInstC2ERKS0_
libbcc.so.0:_ZN4llvm10CallBrInst4initEPNS_12FunctionTypeEPNS_5ValueEPNS_10BasicBlockENS_8ArrayRefIS6_EENS7_IS4_EENS7_INS_17OperandBundleDefTIS4_EEEERKNS_5TwineE
libbcc.so.0:_ZN4llvm10CallBrInst6CreateEPS0_NS_8ArrayRefINS_17OperandBundleDefTIPNS_5ValueEEEEEPNS_11InstructionE
libbcc.so.0:_ZN4llvm10CallBrInstC1ERKS0_
libbcc.so.0:_ZN4llvm10CallBrInstC2ERKS0_
libbcc.so.0:_ZN4llvm10CallbackVH6anchorEv
libbcc.so.0:_ZN4llvm10ConstantFP11getInfinityEPNS_4TypeEb
libbcc.so.0:_ZN4llvm10ConstantFP19destroyConstantImplEv
libbcc.so.0:_ZN4llvm10ConstantFP19isValueValidForTypeEPNS_4TypeERKNS_7APFloatE
libbcc.so.0:_ZN4llvm10ConstantFP23getZeroValueForNegationEPNS_4TypeE
libbcc.so.0:_ZN4llvm10ConstantFP3getEPNS_4TypeENS_9StringRefE
libbcc.so.0:_ZN4llvm10ConstantFP3getEPNS_4TypeERKNS_7APFloatE
libbcc.so.0:_ZN4llvm10ConstantFP3getEPNS_4TypeEd
libbcc.so.0:_ZN4llvm10ConstantFP3getERNS_11LLVMContextERKNS_7APFloatE
libbcc.so.0:_ZN4llvm10ConstantFP6getNaNEPNS_4TypeEbm
libbcc.so.0:_ZN4llvm10ConstantFP7getQNaNEPNS_4TypeEbPNS_5APIntE
libbcc.so.0:_ZN4llvm10ConstantFP7getSNaNEPNS_4TypeEbPNS_5APIntE
libbcc.so.0:_ZN4llvm10ConstantFP7getZeroEPNS_4TypeEb
libbcc.so.0:_ZN4llvm10ConstantFPC1EPNS_4TypeERKNS_7APFloatE
libbcc.so.0:_ZN4llvm10ConstantFPC2EPNS_4TypeERKNS_7APFloatE
libbcc.so.0:_ZN4llvm10DDGBuilder10mergeNodesERNS_7DDGNodeES2_
libbcc.so.0:_ZN4llvm10DILocation17getMergedLocationEPKS0_S2_
libbcc.so.0:_ZN4llvm10DILocation18getMergedLocationsENS_8ArrayRefIPKS0_EE
libbcc.so.0:_ZN4llvm10DILocation19decodeDiscriminatorEjRjS1_S1_
libbcc.so.0:_ZN4llvm10DILocation19encodeDiscriminatorEjjj
libbcc.so.0:_ZN4llvm10DILocation7getImplERNS_11LLVMContextEjjPNS_8MetadataES4_bNS3_11StorageTypeEb
libbcc.so.0:_ZN4llvm10DILocationC1ERNS_11LLVMContextENS_8Metadata11StorageTypeEjjNS_8ArrayRefIPS3_EEb
libbcc.so.0:_ZN4llvm10DILocationC2ERNS_11LLVMContextENS_8Metadata11StorageTypeEjjNS_8ArrayRefIPS3_EEb
libbcc.so.0:_ZN4llvm10DISubrange7getImplERNS_11LLVMContextEPNS_8MetadataES4_S4_S4_NS3_11StorageTypeEb
libbcc.so.0:_ZN4llvm10DISubrange7getImplERNS_11LLVMContextEPNS_8MetadataElNS3_11StorageTypeEb
libbcc.so.0:_ZN4llvm10DISubrange7getImplERNS_11LLVMContextEllNS_8Metadata11StorageTypeEb
libbcc.so.0:_ZN4llvm10DISubrangeC1ERNS_11LLVMContextENS_8Metadata11StorageTypeENS_8ArrayRefIPS3_EE
libbcc.so.0:_ZN4llvm10DISubrangeC2ERNS_11LLVMContextENS_8Metadata11StorageTypeENS_8ArrayRefIPS3_EE
libbcc.so.0:_ZN4llvm10DIVariableC1ERNS_11LLVMContextEjNS_8Metadata11StorageTypeEiNS_8ArrayRefIPS3_EEj
libbcc.so.0:_ZN4llvm10DIVariableC2ERNS_11LLVMContextEjNS_8Metadata11StorageTypeEiNS_8ArrayRefIPS3_EEj
libbcc.so.0:_ZN4llvm10DataLayout12setAlignmentENS_13AlignTypeEnumENS_5AlignES2_j
libbcc.so.0:_ZN4llvm10DataLayout14parseSpecifierENS_9StringRefE
libbcc.so.0:_ZN4llvm10DataLayout20getManglingComponentERKNS_6TripleE
libbcc.so.0:_ZN4llvm10DataLayout23findAlignmentLowerBoundENS_13AlignTypeEnumEj
libbcc.so.0:_ZN4llvm10DataLayout25setPointerAlignmentInBitsEjNS_5AlignES1_jj
libbcc.so.0:_ZN4llvm10DataLayout4initEPKNS_6ModuleE
libbcc.so.0:_ZN4llvm10DataLayout5clearEv
libbcc.so.0:_ZN4llvm10DataLayout5parseENS_9StringRefE
libbcc.so.0:_ZN4llvm10DataLayout5resetENS_9StringRefE
libbcc.so.0:_ZN4llvm10DataLayoutC1EPKNS_6ModuleE
libbcc.so.0:_ZN4llvm10DataLayoutC2EPKNS_6ModuleE
libbcc.so.0:_ZN4llvm10DataLayoutD1Ev
libbcc.so.0:_ZN4llvm10DataLayoutD2Ev
libbcc.so.0:_ZN4llvm10DwarfDebug11beginModuleEPNS_6ModuleE
libbcc.so.0:_ZN4llvm10DwarfDebug12addAccelNameERKNS_13DICompileUnitENS_9StringRefERKNS_3DIEE
libbcc.so.0:_ZN4llvm10DwarfDebug12addAccelObjCERKNS_13DICompileUnitENS_9StringRefERKNS_3DIEE
libbcc.so.0:_ZN4llvm10DwarfDebug12addAccelTypeERKNS_13DICompileUnitENS_9StringRefERKNS_3DIEEc
libbcc.so.0:_ZN4llvm10DwarfDebug12emitDebugLocEv
libbcc.so.0:_ZN4llvm10DwarfDebug12emitDebugStrEv
libbcc.so.0:_ZN4llvm10DwarfDebug13emitAccelObjCEv
libbcc.so.0:_ZN4llvm10DwarfDebug13emitDebugAddrEv
libbcc.so.0:_ZN4llvm10DwarfDebug13emitDebugInfoEv
libbcc.so.0:_ZN4llvm10DwarfDebug13emitMacroFileERNS_11DIMacroFileERNS_16DwarfCompileUnitE
libbcc.so.0:_ZN4llvm10DwarfDebug14emitAccelNamesEv
libbcc.so.0:_ZN4llvm10DwarfDebug14emitAccelTypesEv
libbcc.so.0:_ZN4llvm10DwarfDebug15emitDebugLocDWOEv
libbcc.so.0:_ZN4llvm10DwarfDebug15emitDebugRangesEv
libbcc.so.0:_ZN4llvm10DwarfDebug15emitDebugStrDWOEv
libbcc.so.0:_ZN4llvm10DwarfDebug15endFunctionImplEPKNS_15MachineFunctionE
libbcc.so.0:_ZN4llvm10DwarfDebug15getDwoLineTableERKNS_16DwarfCompileUnitE
libbcc.so.0:_ZN4llvm10DwarfDebug15getSectionLabelEPKNS_9MCSectionE
libbcc.so.0:_ZN4llvm10DwarfDebug16beginInstructionEPKNS_12MachineInstrE
libbcc.so.0:_ZN4llvm10DwarfDebug16emitDebugARangesEv
libbcc.so.0:_ZN4llvm10DwarfDebug16emitDebugInfoDWOEv
libbcc.so.0:_ZN4llvm10DwarfDebug16emitDebugLineDWOEv
libbcc.so.0:_ZN4llvm10DwarfDebug16emitDebugLocImplEPNS_9MCSectionE
libbcc.so.0:_ZN4llvm10DwarfDebug16emitDebugMacinfoEv
libbcc.so.0:_ZN4llvm10DwarfDebug16handleMacroNodesENS_24MDTupleTypedArrayWrapperINS_11DIMacroNodeEEERNS_16DwarfCompileUnitE
libbcc.so.0:_ZN4llvm10DwarfDebug16initSkeletonUnitERKNS_9DwarfUnitERNS_3DIEESt10unique_ptrINS_16DwarfCompileUnitESt14default_deleteIS7_EE
libbcc.so.0:_ZN4llvm10DwarfDebug16recordSourceLineEjjPKNS_6MDNodeEj
libbcc.so.0:_ZN4llvm10DwarfDebug17addAccelNamespaceERKNS_13DICompileUnitENS_9StringRefERKNS_3DIEE
libbcc.so.0:_ZN4llvm10DwarfDebug17beginFunctionImplEPKNS_15MachineFunctionE
libbcc.so.0:_ZN4llvm10DwarfDebug17buildLocationListERNS_15SmallVectorImplINS_13DebugLocEntryEEERKNS_11SmallVectorINS_18DbgValueHistoryMap5EntryELj4EEE
libbcc.so.0:_ZN4llvm10DwarfDebug17collectEntityInfoERNS_16DwarfCompileUnitEPKNS_12DISubprogramERNS_8DenseSetISt4pairIPKNS_6DINodeEPKNS_10DILocationEENS_12DenseMapInfoISE_vEEEE
libbcc.so.0:_ZN4llvm10DwarfDebug17emitAbbreviationsEv
libbcc.so.0:_ZN4llvm10DwarfDebug17emitDebugLocEntryERNS_12ByteStreamerERKNS_14DebugLocStream5EntryEPKNS_16DwarfCompileUnitE
libbcc.so.0:_ZN4llvm10DwarfDebug17emitDebugLocValueERKNS_10AsmPrinterEPKNS_11DIBasicTypeERKNS_11DbgValueLocERNS_15DwarfExpressionE
libbcc.so.0:_ZN4llvm10DwarfDebug17emitMacroFileImplERNS_11DIMacroFileERNS_16DwarfCompileUnitEjjPFNS_9StringRefEjE
libbcc.so.0:_ZN4llvm10DwarfDebug17makeTypeSignatureENS_9StringRefE
libbcc.so.0:_ZN4llvm10DwarfDebug18addSubprogramNamesERKNS_13DICompileUnitEPKNS_12DISubprogramERNS_3DIEE
libbcc.so.0:_ZN4llvm10DwarfDebug18emitDebugAbbrevDWOEv
libbcc.so.0:_ZN4llvm10DwarfDebug18emitDebugRangesDWOEv
libbcc.so.0:_ZN4llvm10DwarfDebug18finalizeModuleInfoEv
libbcc.so.0:_ZN4llvm10DwarfDebug18insertSectionLabelEPKNS_8MCSymbolE
libbcc.so.0:_ZN4llvm10DwarfDebug18terminateLineTableEPKNS_16DwarfCompileUnitE
libbcc.so.0:_ZN4llvm10DwarfDebug19constructSkeletonCUERKNS_16DwarfCompileUnitE
libbcc.so.0:_ZN4llvm10DwarfDebug19emitAccelDebugNamesEv
libbcc.so.0:_ZN4llvm10DwarfDebug19emitAccelNamespacesEv
libbcc.so.0:_ZN4llvm10DwarfDebug19emitDebugMacinfoDWOEv
libbcc.so.0:_ZN4llvm10DwarfDebug19emitDebugPubSectionEbNS_9StringRefEPNS_16DwarfCompileUnitERKNS_9StringMapIPKNS_3DIEENS_15MallocAllocatorEEE
libbcc.so.0:_ZN4llvm10DwarfDebug19emitDebugRangesImplERKNS_9DwarfFileEPNS_9MCSectionE
libbcc.so.0:_ZN4llvm10DwarfDebug20addDwarfTypeUnitTypeERNS_16DwarfCompileUnitENS_9StringRefERNS_3DIEEPKNS_15DICompositeTypeE
libbcc.so.0:_ZN4llvm10DwarfDebug20createConcreteEntityERNS_16DwarfCompileUnitERNS_12LexicalScopeEPKNS_6DINodeEPKNS_10DILocationEPKNS_8MCSymbolE
libbcc.so.0:_ZN4llvm10DwarfDebug20emitDebugMacinfoImplEPNS_9MCSectionE
libbcc.so.0:_ZN4llvm10DwarfDebug20emitDebugPubSectionsEv
libbcc.so.0:_ZN4llvm10DwarfDebug20emitSectionReferenceERKNS_16DwarfCompileUnitE
libbcc.so.0:_ZN4llvm10DwarfDebug20finishUnitAttributesEPKNS_13DICompileUnitERNS_16DwarfCompileUnitE
libbcc.so.0:_ZN4llvm10DwarfDebug21isLexicalScopeDIENullEPNS_12LexicalScopeE
libbcc.so.0:_ZN4llvm10DwarfDebug23emitInitialLocDirectiveERKNS_15MachineFunctionEj
libbcc.so.0:_ZN4llvm10DwarfDebug23finishEntityDefinitionsEv
libbcc.so.0:_ZN4llvm10DwarfDebug23skippedNonDebugFunctionEv
libbcc.so.0:_ZN4llvm10DwarfDebug25emitDebugLocEntryLocationERKNS_14DebugLocStream5EntryEPKNS_16DwarfCompileUnitE
libbcc.so.0:_ZN4llvm10DwarfDebug26constructCallSiteEntryDIEsERKNS_12DISubprogramERNS_16DwarfCompileUnitERNS_3DIEERKNS_15MachineFunctionE
libbcc.so.0:_ZN4llvm10DwarfDebug27finishSubprogramDefinitionsEv
libbcc.so.0:_ZN4llvm10DwarfDebug27getOrCreateDwarfCompileUnitEPKNS_13DICompileUnitE
libbcc.so.0:_ZN4llvm10DwarfDebug28emitStringOffsetsTableHeaderEv
libbcc.so.0:_ZN4llvm10DwarfDebug29ensureAbstractEntityIsCreatedERNS_16DwarfCompileUnitEPKNS_6DINodeEPKNS_6MDNodeE
libbcc.so.0:_ZN4llvm10DwarfDebug30collectVariableInfoFromMFTableERNS_16DwarfCompileUnitERNS_8DenseSetISt4pairIPKNS_6DINodeEPKNS_10DILocationEENS_12DenseMapInfoISB_vEEEE
libbcc.so.0:_ZN4llvm10DwarfDebug31emitStringOffsetsTableHeaderDWOEv
libbcc.so.0:_ZN4llvm10DwarfDebug32constructAndAddImportedEntityDIEERNS_16DwarfCompileUnitEPKNS_16DIImportedEntityE
libbcc.so.0:_ZN4llvm10DwarfDebug33getDwarfCompileUnitIDForLineTableERKNS_16DwarfCompileUnitE
libbcc.so.0:_ZN4llvm10DwarfDebug35constructAbstractSubprogramScopeDIEERNS_16DwarfCompileUnitEPNS_12LexicalScopeE
libbcc.so.0:_ZN4llvm10DwarfDebug37ensureAbstractEntityIsCreatedIfScopedERNS_16DwarfCompileUnitEPKNS_6DINodeEPKNS_6MDNodeE
libbcc.so.0:_ZN4llvm10DwarfDebug9emitMacroERNS_7DIMacroE
libbcc.so.0:_ZN4llvm10DwarfDebug9endModuleEv
libbcc.so.0:_ZN4llvm10DwarfDebugC1EPNS_10AsmPrinterE
libbcc.so.0:_ZN4llvm10DwarfDebugC2EPNS_10AsmPrinterE
libbcc.so.0:_ZN4llvm10DwarfDebugD0Ev
libbcc.so.0:_ZN4llvm10DwarfDebugD1Ev
libbcc.so.0:_ZN4llvm10DwarfDebugD2Ev
libbcc.so.0:_ZN4llvm10FPToSIInstC1EPNS_5ValueEPNS_4TypeERKNS_5TwineEPNS_10BasicBlockE
libbcc.so.0:_ZN4llvm10FPToSIInstC1EPNS_5ValueEPNS_4TypeERKNS_5TwineEPNS_11InstructionE
libbcc.so.0:_ZN4llvm10FPToSIInstC2EPNS_5ValueEPNS_4TypeERKNS_5TwineEPNS_10BasicBlockE
libbcc.so.0:_ZN4llvm10FPToSIInstC2EPNS_5ValueEPNS_4TypeERKNS_5TwineEPNS_11InstructionE
libbcc.so.0:_ZN4llvm10FPToUIInstC1EPNS_5ValueEPNS_4TypeERKNS_5TwineEPNS_10BasicBlockE
libbcc.so.0:_ZN4llvm10FPToUIInstC1EPNS_5ValueEPNS_4TypeERKNS_5TwineEPNS_11InstructionE
libbcc.so.0:_ZN4llvm10FPToUIInstC2EPNS_5ValueEPNS_4TypeERKNS_5TwineEPNS_10BasicBlockE
libbcc.so.0:_ZN4llvm10FPToUIInstC2EPNS_5ValueEPNS_4TypeERKNS_5TwineEPNS_11InstructionE
libbcc.so.0:_ZN4llvm10FlattenCFGEPNS_10BasicBlockEPNS_9AAResultsE
libbcc.so.0:_ZN4llvm10FreezeInstC1EPNS_5ValueERKNS_5TwineEPNS_10BasicBlockE
libbcc.so.0:_ZN4llvm10FreezeInstC1EPNS_5ValueERKNS_5TwineEPNS_11InstructionE
libbcc.so.0:_ZN4llvm10FreezeInstC2EPNS_5ValueERKNS_5TwineEPNS_10BasicBlockE
libbcc.so.0:_ZN4llvm10FreezeInstC2EPNS_5ValueERKNS_5TwineEPNS_11InstructionE
libbcc.so.0:_ZN4llvm10GCStrategyC1Ev
libbcc.so.0:_ZN4llvm10GCStrategyC2Ev
libbcc.so.0:_ZN4llvm10IPSCCPPass3runERNS_6ModuleERNS_15AnalysisManagerIS1_JEEE
libbcc.so.0:_ZN4llvm10IROutliner14createFunctionERNS_6ModuleER15OutlinableGroupj
libbcc.so.0:_ZN4llvm10IROutliner14extractSectionERNS_16OutlinableRegionE
libbcc.so.0:_ZN4llvm10IROutliner15findCostBenefitERNS_6ModuleER15OutlinableGroup
libbcc.so.0:_ZN4llvm10IROutliner19updateOutputMappingERNS_16OutlinableRegionENS_8ArrayRefIPNS_5ValueEEEPNS_8LoadInstE
libbcc.so.0:_ZN4llvm10IROutliner20findAddInputsOutputsERNS_6ModuleERNS_16OutlinableRegionERNS_8DenseSetIjNS_12DenseMapInfoIjvEEEE
libbcc.so.0:_ZN4llvm10IROutliner21findCostOutputReloadsER15OutlinableGroup
libbcc.so.0:_ZN4llvm10IROutliner24pruneIncompatibleRegionsERSt6vectorINS_12IRSimilarity21IRSimilarityCandidateESaIS3_EER15OutlinableGroup
libbcc.so.0:_ZN4llvm10IROutliner25findBenefitFromAllRegionsER15OutlinableGroup
libbcc.so.0:_ZN4llvm10IROutliner28deduplicateExtractedSectionsERNS_6ModuleER15OutlinableGroupRSt6vectorIPNS_8FunctionESaIS7_EERj
libbcc.so.0:_ZN4llvm10IROutliner35isCompatibleWithAlreadyOutlinedCodeERKNS_16OutlinableRegionE
libbcc.so.0:_ZN4llvm10IROutliner3runERNS_6ModuleE
libbcc.so.0:_ZN4llvm10IROutliner9doOutlineERNS_6ModuleE
libbcc.so.0:_ZN4llvm10IRPosition6verifyEv
libbcc.so.0:_ZN4llvm10InvokeInst4initEPNS_12FunctionTypeEPNS_5ValueEPNS_10BasicBlockES6_NS_8ArrayRefIS4_EENS7_INS_17OperandBundleDefTIS4_EEEERKNS_5TwineE
libbcc.so.0:_ZN4llvm10InvokeInst6CreateEPS0_NS_8ArrayRefINS_17OperandBundleDefTIPNS_5ValueEEEEEPNS_11InstructionE
libbcc.so.0:_ZN4llvm10InvokeInstC1ERKS0_
libbcc.so.0:_ZN4llvm10InvokeInstC2ERKS0_
libbcc.so.0:_ZN4llvm10LiveRegSet4initERKNS_19MachineRegisterInfoE
libbcc.so.0:_ZN4llvm10LiveRegSet5clearEv
libbcc.so.0:_ZN4llvm10LiveStacks13releaseMemoryEv
libbcc.so.0:_ZN4llvm10LiveStacks19getOrCreateIntervalEiPKNS_19TargetRegisterClassE
libbcc.so.0:_ZN4llvm10LiveStacks20runOnMachineFunctionERNS_15MachineFunctionE
libbcc.so.0:_ZN4llvm10MCAsmLexerC2Ev
libbcc.so.0:_ZN4llvm10MCAsmLexerD0Ev
libbcc.so.0:_ZN4llvm10MCAsmLexerD1Ev
libbcc.so.0:_ZN4llvm10MCAsmLexerD2Ev
libbcc.so.0:_ZN4llvm10MCFragment7destroyEv
libbcc.so.0:_ZN4llvm10MCFragmentC1ENS0_12FragmentTypeEbPNS_9MCSectionE
libbcc.so.0:_ZN4llvm10MCFragmentC2ENS0_12FragmentTypeEbPNS_9MCSectionE
libbcc.so.0:_ZN4llvm10MCStreamer10endSectionEPNS_9MCSectionE
libbcc.so.0:_ZN4llvm10MCStreamer10finishImplEv
libbcc.so.0:_ZN4llvm10MCStreamer11emitCFILsdaEPKNS_8MCSymbolEj
libbcc.so.0:_ZN4llvm10MCStreamer11emitELFSizeEPNS_8MCSymbolEPKNS_6MCExprE
libbcc.so.0:_ZN4llvm10MCStreamer11emitRawTextERKNS_5TwineE
libbcc.so.0:_ZN4llvm10MCStreamer12emitCFILabelEv
libbcc.so.0:_ZN4llvm10MCStreamer12emitIntValueENS_5APIntE
libbcc.so.0:_ZN4llvm10MCStreamer12emitIntValueEmj
libbcc.so.0:_ZN4llvm10MCStreamer12getCommentOSEv
libbcc.so.0:_ZN4llvm10MCStreamer12initSectionsEbRKNS_15MCSubtargetInfoE
libbcc.so.0:_ZN4llvm10MCStreamer13changeSectionEPNS_9MCSectionEPKNS_6MCExprE
libbcc.so.0:_ZN4llvm10MCStreamer13emitCFIDefCfaEll
libbcc.so.0:_ZN4llvm10MCStreamer13emitCFIEscapeENS_9StringRefE
libbcc.so.0:_ZN4llvm10MCStreamer13emitCFIOffsetEll
libbcc.so.0:_ZN4llvm10MCStreamer13emitThumbFuncEPNS_8MCSymbolE
libbcc.so.0:_ZN4llvm10MCStreamer13emitValueImplEPKNS_6MCExprEjNS_5SMLocE
libbcc.so.0:_ZN4llvm10MCStreamer13switchSectionEPNS_9MCSectionEPKNS_6MCExprE
libbcc.so.0:_ZN4llvm10MCStreamer13visitUsedExprERKNS_6MCExprE
libbcc.so.0:_ZN4llvm10MCStreamer14assignFragmentEPNS_8MCSymbolEPNS_10MCFragmentE
libbcc.so.0:_ZN4llvm10MCStreamer14emitAssignmentEPNS_8MCSymbolEPKNS_6MCExprE
libbcc.so.0:_ZN4llvm10MCStreamer14emitBinaryDataENS_9StringRefE
libbcc.so.0:_ZN4llvm10MCStreamer14emitBundleLockEb
libbcc.so.0:_ZN4llvm10MCStreamer14emitCFIEndProcEv
libbcc.so.0:_ZN4llvm10MCStreamer14emitCFIRestoreEl
libbcc.so.0:_ZN4llvm10MCStreamer14emitRawCommentERKNS_5TwineEb
libbcc.so.0:_ZN4llvm10MCStreamer14emitSymbolDescEPNS_8MCSymbolEj
libbcc.so.0:_ZN4llvm10MCStreamer14emitTBSSSymbolEPNS_9MCSectionEPNS_8MCSymbolEmj
libbcc.so.0:_ZN4llvm10MCStreamer15emitCFIRegisterEll
libbcc.so.0:_ZN4llvm10MCStreamer15emitCFISectionsEbb
libbcc.so.0:_ZN4llvm10MCStreamer15emitCOFFSafeSEHEPKNS_8MCSymbolE
libbcc.so.0:_ZN4llvm10MCStreamer15emitInstructionERKNS_6MCInstERKNS_15MCSubtargetInfoE
libbcc.so.0:_ZN4llvm10MCStreamer15emitPseudoProbeEmmmmRKNS_11SmallVectorISt5tupleIJmjEELj8EEE
libbcc.so.0:_ZN4llvm10MCStreamer15emitRawTextImplENS_9StringRefE
libbcc.so.0:_ZN4llvm10MCStreamer15emitSymbolValueEPKNS_8MCSymbolEjb
libbcc.so.0:_ZN4llvm10MCStreamer15visitUsedSymbolERKNS_8MCSymbolE
libbcc.so.0:_ZN4llvm10MCStreamer16emitBundleUnlockEv
libbcc.so.0:_ZN4llvm10MCStreamer16emitCFIBKeyFrameEv
libbcc.so.0:_ZN4llvm10MCStreamer16emitCFIRelOffsetEll
libbcc.so.0:_ZN4llvm10MCStreamer16emitCFISameValueEl
libbcc.so.0:_ZN4llvm10MCStreamer16emitCFIStartProcEbNS_5SMLocE
libbcc.so.0:_ZN4llvm10MCStreamer16emitCFIUndefinedEl
libbcc.so.0:_ZN4llvm10MCStreamer16emitCOFFImgRel32EPKNS_8MCSymbolEl
libbcc.so.0:_ZN4llvm10MCStreamer16emitCOFFSecRel32EPKNS_8MCSymbolEm
libbcc.so.0:_ZN4llvm10MCStreamer16emitGPRel32ValueEPKNS_6MCExprE
libbcc.so.0:_ZN4llvm10MCStreamer16emitGPRel64ValueEPKNS_6MCExprE
libbcc.so.0:_ZN4llvm10MCStreamer16emitSLEB128ValueEPKNS_6MCExprE
libbcc.so.0:_ZN4llvm10MCStreamer16emitTPRel32ValueEPKNS_6MCExprE
libbcc.so.0:_ZN4llvm10MCStreamer16emitTPRel64ValueEPKNS_6MCExprE
libbcc.so.0:_ZN4llvm10MCStreamer16emitULEB128ValueEPKNS_6MCExprE
libbcc.so.0:_ZN4llvm10MCStreamer16emitWinEHHandlerEPKNS_8MCSymbolEbbNS_5SMLocE
libbcc.so.0:_ZN4llvm10MCStreamer16endCOFFSymbolDefEv
libbcc.so.0:_ZN4llvm10MCStreamer16getNumFrameInfosEv
libbcc.so.0:_ZN4llvm10MCStreamer17checkCVLocSectionEjjNS_5SMLocE
libbcc.so.0:_ZN4llvm10MCStreamer17emitAssemblerFlagENS_15MCAssemblerFlagE
libbcc.so.0:_ZN4llvm10MCStreamer17emitCFIWindowSaveEv
libbcc.so.0:_ZN4llvm10MCStreamer17emitCodeAlignmentEjPKNS_15MCSubtargetInfoEj
libbcc.so.0:_ZN4llvm10MCStreamer17emitDTPRel32ValueEPKNS_6MCExprE
libbcc.so.0:_ZN4llvm10MCStreamer17emitDTPRel64ValueEPKNS_6MCExprE
libbcc.so.0:_ZN4llvm10MCStreamer17emitFileDirectiveENS_9StringRefE
libbcc.so.0:_ZN4llvm10MCStreamer17emitFileDirectiveENS_9StringRefES1_S1_S1_
libbcc.so.0:_ZN4llvm10MCStreamer17emitValueToOffsetEPKNS_6MCExprEhNS_5SMLocE
libbcc.so.0:_ZN4llvm10MCStreamer17emitWeakReferenceEPNS_8MCSymbolEPKS1_
libbcc.so.0:_ZN4llvm10MCStreamer17emitWinCFIEndProcENS_5SMLocE
libbcc.so.0:_ZN4llvm10MCStreamer17emitWinCFIPushRegENS_10MCRegisterENS_5SMLocE
libbcc.so.0:_ZN4llvm10MCStreamer17emitWinCFISaveRegENS_10MCRegisterEjNS_5SMLocE
libbcc.so.0:_ZN4llvm10MCStreamer17emitWinCFISaveXMMENS_10MCRegisterEjNS_5SMLocE
libbcc.so.0:_ZN4llvm10MCStreamer18addExplicitCommentERKNS_5TwineE
libbcc.so.0:_ZN4llvm10MCStreamer18beginCOFFSymbolDefEPKNS_8MCSymbolE
libbcc.so.0:_ZN4llvm10MCStreamer18emitCFIEndProcImplERNS_16MCDwarfFrameInfoE
libbcc.so.0:_ZN4llvm10MCStreamer18emitCFIGnuArgsSizeEl
libbcc.so.0:_ZN4llvm10MCStreamer18emitCFIPersonalityEPKNS_8MCSymbolEj
libbcc.so.0:_ZN4llvm10MCStreamer18emitCFISignalFrameEv
libbcc.so.0:_ZN4llvm10MCStreamer18emitCGProfileEntryEPKNS_15MCSymbolRefExprES3_m
libbcc.so.0:_ZN4llvm10MCStreamer18emitCOFFSymbolTypeEi
libbcc.so.0:_ZN4llvm10MCStreamer18emitCVLocDirectiveEjjjjbbNS_9StringRefENS_5SMLocE
libbcc.so.0:_ZN4llvm10MCStreamer18emitWinCFISetFrameENS_10MCRegisterEjNS_5SMLocE
libbcc.so.0:_ZN4llvm10MCStreamer19emitBundleAlignModeEj
libbcc.so.0:_ZN4llvm10MCStreamer19emitCFIDefCfaOffsetEl
libbcc.so.0:_ZN4llvm10MCStreamer19emitCFIRestoreStateEv
libbcc.so.0:_ZN4llvm10MCStreamer19emitCFIReturnColumnEl
libbcc.so.0:_ZN4llvm10MCStreamer19emitCOFFSymbolIndexEPKNS_8MCSymbolE
libbcc.so.0:_ZN4llvm10MCStreamer19emitCVFileDirectiveEjNS_9StringRefENS_8ArrayRefIhEEj
libbcc.so.0:_ZN4llvm10MCStreamer19emitDwarfUnitLengthERKNS_5TwineES3_
libbcc.so.0:_ZN4llvm10MCStreamer19emitDwarfUnitLengthEmRKNS_5TwineE
libbcc.so.0:_ZN4llvm10MCStreamer19emitEHSymAttributesEPKNS_8MCSymbolEPS1_
libbcc.so.0:_ZN4llvm10MCStreamer19emitSLEB128IntValueEl
libbcc.so.0:_ZN4llvm10MCStreamer19emitSyntaxDirectiveEv
libbcc.so.0:_ZN4llvm10MCStreamer19emitULEB128IntValueEmj
libbcc.so.0:_ZN4llvm10MCStreamer19emitWinCFIEndPrologENS_5SMLocE
libbcc.so.0:_ZN4llvm10MCStreamer19emitWinCFIPushFrameEbNS_5SMLocE
libbcc.so.0:_ZN4llvm10MCStreamer19emitWinCFIStartProcEPKNS_8MCSymbolENS_5SMLocE
libbcc.so.0:_ZN4llvm10MCStreamer20emitCFINegateRAStateEv
libbcc.so.0:_ZN4llvm10MCStreamer20emitCFIRememberStateEv
libbcc.so.0:_ZN4llvm10MCStreamer20emitCFIStartProcImplERNS_16MCDwarfFrameInfoE
libbcc.so.0:_ZN4llvm10MCStreamer20emitCOFFSectionIndexEPKNS_8MCSymbolE
libbcc.so.0:_ZN4llvm10MCStreamer20emitExplicitCommentsEv
libbcc.so.0:_ZN4llvm10MCStreamer20emitValueToAlignmentEjljj
libbcc.so.0:_ZN4llvm10MCStreamer20emitVersionForTargetERKNS_6TripleERKNS_12VersionTupleEPS2_S6_
libbcc.so.0:_ZN4llvm10MCStreamer20emitWinCFIAllocStackEjNS_5SMLocE
libbcc.so.0:_ZN4llvm10MCStreamer20emitWinCFIEndChainedENS_5SMLocE
libbcc.so.0:_ZN4llvm10MCStreamer20emitWinEHHandlerDataENS_5SMLocE
libbcc.so.0:_ZN4llvm10MCStreamer20maybeEmitDwarf64MarkEv
libbcc.so.0:_ZN4llvm10MCStreamer21emitCFIDefCfaRegisterEl
libbcc.so.0:_ZN4llvm10MCStreamer21emitCFIMTETaggedFrameEv
libbcc.so.0:_ZN4llvm10MCStreamer21emitCVFuncIdDirectiveEj
libbcc.so.0:_ZN4llvm10MCStreamer21emitDwarfLocDirectiveEjjjjjjNS_9StringRefE
libbcc.so.0:_ZN4llvm10MCStreamer21emitLocalCommonSymbolEPNS_8MCSymbolEmj
libbcc.so.0:_ZN4llvm10MCStreamer21emitXCOFFRefDirectiveENS_9StringRefE
libbcc.so.0:_ZN4llvm10MCStreamer22emitAbsoluteSymbolDiffEPKNS_8MCSymbolES3_j
libbcc.so.0:_ZN4llvm10MCStreamer22emitCFIAdjustCfaOffsetEl
libbcc.so.0:_ZN4llvm10MCStreamer22emitELFSymverDirectiveEPKNS_8MCSymbolENS_9StringRefEb
libbcc.so.0:_ZN4llvm10MCStreamer22emitWinCFIStartChainedENS_5SMLocE
libbcc.so.0:_ZN4llvm10MCStreamer23EnsureValidWinFrameInfoENS_5SMLocE
libbcc.so.0:_ZN4llvm10MCStreamer23emitCFILLVMDefAspaceCfaElll
libbcc.so.0:_ZN4llvm10MCStreamer23emitCVDefRangeDirectiveENS_8ArrayRefISt4pairIPKNS_8MCSymbolES5_EEENS_8codeview22DefRangeRegisterHeaderE
libbcc.so.0:_ZN4llvm10MCStreamer23emitCVDefRangeDirectiveENS_8ArrayRefISt4pairIPKNS_8MCSymbolES5_EEENS_8codeview25DefRangeRegisterRelHeaderE
libbcc.so.0:_ZN4llvm10MCStreamer23emitCVDefRangeDirectiveENS_8ArrayRefISt4pairIPKNS_8MCSymbolES5_EEENS_8codeview29DefRangeFramePointerRelHeaderE
libbcc.so.0:_ZN4llvm10MCStreamer23emitCVDefRangeDirectiveENS_8ArrayRefISt4pairIPKNS_8MCSymbolES5_EEENS_8codeview30DefRangeSubfieldRegisterHeaderE
libbcc.so.0:_ZN4llvm10MCStreamer23emitCVDefRangeDirectiveENS_8ArrayRefISt4pairIPKNS_8MCSymbolES5_EEENS_9StringRefE
libbcc.so.0:_ZN4llvm10MCStreamer23emitDwarfFile0DirectiveENS_9StringRefES1_NS_8OptionalINS_3MD59MD5ResultEEENS2_IS1_EEj
libbcc.so.0:_ZN4llvm10MCStreamer23emitDwarfLineStartLabelEPNS_8MCSymbolE
libbcc.so.0:_ZN4llvm10MCStreamer23emitWindowsUnwindTablesEPNS_5WinEH9FrameInfoE
libbcc.so.0:_ZN4llvm10MCStreamer23emitWindowsUnwindTablesEv
libbcc.so.0:_ZN4llvm10MCStreamer23getDwarfLineTableSymbolEj
libbcc.so.0:_ZN4llvm10MCStreamer24emitCVLinetableDirectiveEjPKNS_8MCSymbolES3_
libbcc.so.0:_ZN4llvm10MCStreamer24emitXCOFFRenameDirectiveEPKNS_8MCSymbolENS_9StringRefE
libbcc.so.0:_ZN4llvm10MCStreamer24getCurrentDwarfFrameInfoEv
libbcc.so.0:_ZN4llvm10MCStreamer25emitConditionalAssignmentEPNS_8MCSymbolEPKNS_6MCExprE
libbcc.so.0:_ZN4llvm10MCStreamer25getAssociatedPDataSectionEPKNS_9MCSectionE
libbcc.so.0:_ZN4llvm10MCStreamer25getAssociatedXDataSectionEPKNS_9MCSectionE
libbcc.so.0:_ZN4llvm10MCStreamer25tryEmitDwarfFileDirectiveEjNS_9StringRefES1_NS_8OptionalINS_3MD59MD5ResultEEENS2_IS1_EEj
libbcc.so.0:_ZN4llvm10MCStreamer26emitCOFFSymbolStorageClassEi
libbcc.so.0:_ZN4llvm10MCStreamer26emitWinCFIFuncletOrFuncEndENS_5SMLocE
libbcc.so.0:_ZN4llvm10MCStreamer26emitXCOFFLocalCommonSymbolEPNS_8MCSymbolEmS2_j
libbcc.so.0:_ZN4llvm10MCStreamer27emitCVInlineSiteIdDirectiveEjjjjjNS_5SMLocE
libbcc.so.0:_ZN4llvm10MCStreamer27hasUnfinishedDwarfFrameInfoEv
libbcc.so.0:_ZN4llvm10MCStreamer30emitCVInlineLinetableDirectiveEjjjPKNS_8MCSymbolES3_
libbcc.so.0:_ZN4llvm10MCStreamer30generateCompactUnwindEncodingsEPNS_12MCAsmBackendE
libbcc.so.0:_ZN4llvm10MCStreamer31emitAbsoluteSymbolDiffAsULEB128EPKNS_8MCSymbolES3_
libbcc.so.0:_ZN4llvm10MCStreamer36emitXCOFFSymbolLinkageWithVisibilityEPNS_8MCSymbolENS_12MCSymbolAttrES3_
libbcc.so.0:_ZN4llvm10MCStreamer5resetEv
libbcc.so.0:_ZN4llvm10MCStreamer6finishENS_5SMLocE
libbcc.so.0:_ZN4llvm10MCStreamer8emitFillERKNS_6MCExprEllNS_5SMLocE
libbcc.so.0:_ZN4llvm10MCStreamer8emitFillERKNS_6MCExprEmNS_5SMLocE
libbcc.so.0:_ZN4llvm10MCStreamer8emitFillEmh
libbcc.so.0:_ZN4llvm10MCStreamer8emitNopsEllNS_5SMLocERKNS_15MCSubtargetInfoE
libbcc.so.0:_ZN4llvm10MCStreamer9emitBytesENS_9StringRefE
libbcc.so.0:_ZN4llvm10MCStreamer9emitLabelEPNS_8MCSymbolENS_5SMLocE
libbcc.so.0:_ZN4llvm10MCStreamer9emitValueEPKNS_6MCExprEjNS_5SMLocE
libbcc.so.0:_ZN4llvm10MCStreamer9emitZerosEm
libbcc.so.0:_ZN4llvm10MCStreamerC2ERNS_9MCContextE
libbcc.so.0:_ZN4llvm10MCStreamerD0Ev
libbcc.so.0:_ZN4llvm10MCStreamerD1Ev
libbcc.so.0:_ZN4llvm10MCStreamerD2Ev
libbcc.so.0:_ZN4llvm10MIRPrinter19convertStackObjectsERNS_4yaml15MachineFunctionERKNS_15MachineFunctionERNS_17ModuleSlotTrackerE
libbcc.so.0:_ZN4llvm10MIRPrinter19initRegisterMaskIdsERKNS_15MachineFunctionE
libbcc.so.0:_ZN4llvm10MIRPrinter22convertCallSiteObjectsERNS_4yaml15MachineFunctionERKNS_15MachineFunctionERNS_17ModuleSlotTrackerE
libbcc.so.0:_ZN4llvm10MIRPrinter27convertMachineMetadataNodesERNS_4yaml15MachineFunctionERKNS_15MachineFunctionERNS_24MachineModuleSlotTrackerE
libbcc.so.0:_ZN4llvm10MIRPrinter5printERKNS_15MachineFunctionE
libbcc.so.0:_ZN4llvm10MIRPrinter7convertERNS_17ModuleSlotTrackerERNS_4yaml16MachineFrameInfoERKNS_16MachineFrameInfoE
libbcc.so.0:_ZN4llvm10MIRPrinter7convertERNS_17ModuleSlotTrackerERNS_4yaml16MachineJumpTableERKNS_20MachineJumpTableInfoE
libbcc.so.0:_ZN4llvm10MIRPrinter7convertERNS_4yaml15MachineFunctionERKNS_19MachineConstantPoolE
libbcc.so.0:_ZN4llvm10MIRPrinter7convertERNS_4yaml15MachineFunctionERKNS_19MachineRegisterInfoEPKNS_18TargetRegisterInfoE
libbcc.so.0:_ZN4llvm10ModulePass17assignPassManagerERNS_7PMStackENS_15PassManagerTypeE
libbcc.so.0:_ZN4llvm10ModulePassD0Ev
libbcc.so.0:_ZN4llvm10ModulePassD1Ev
libbcc.so.0:_ZN4llvm10ModulePassD2Ev
libbcc.so.0:_ZN4llvm10NewGVNPass3runERNS_8FunctionERNS_15AnalysisManagerIS1_JEEE
libbcc.so.0:_ZN4llvm10NoCFIValue19destroyConstantImplEv
libbcc.so.0:_ZN4llvm10NoCFIValue23handleOperandChangeImplEPNS_5ValueES2_
libbcc.so.0:_ZN4llvm10NoCFIValue3getEPNS_11GlobalValueE
libbcc.so.0:_ZN4llvm10NoCFIValueC1EPNS_11GlobalValueE
libbcc.so.0:_ZN4llvm10NoCFIValueC2EPNS_11GlobalValueE
libbcc.so.0:_ZN4llvm10RISCVAttrs21getRISCVAttributeTagsEv
libbcc.so.0:_ZN4llvm10RegionInfo10invalidateERNS_8FunctionERKNS_17PreservedAnalysesERNS_15AnalysisManagerIS1_JEE11InvalidatorE
libbcc.so.0:_ZN4llvm10RegionInfo11recalculateERNS_8FunctionEPNS_13DominatorTreeEPNS_17PostDominatorTreeEPNS_17DominanceFrontierE
libbcc.so.0:_ZN4llvm10RegionInfo16updateStatisticsEPNS_6RegionE
libbcc.so.0:_ZN4llvm10RegionInfoC1Ev
libbcc.so.0:_ZN4llvm10RegionInfoC2Ev
libbcc.so.0:_ZN4llvm10RegionInfoD0Ev
libbcc.so.0:_ZN4llvm10RegionInfoD1Ev
libbcc.so.0:_ZN4llvm10RegionInfoD2Ev
libbcc.so.0:_ZN4llvm10RegionPass17assignPassManagerERNS_7PMStackENS_15PassManagerTypeE
libbcc.so.0:_ZN4llvm10RegionPass18preparePassManagerERNS_7PMStackE
libbcc.so.0:_ZN4llvm10ResumeInstC1EPNS_5ValueEPNS_10BasicBlockE
libbcc.so.0:_ZN4llvm10ResumeInstC1EPNS_5ValueEPNS_11InstructionE
libbcc.so.0:_ZN4llvm10ResumeInstC1ERKS0_
libbcc.so.0:_ZN4llvm10ResumeInstC2EPNS_5ValueEPNS_10BasicBlockE
libbcc.so.0:_ZN4llvm10ResumeInstC2EPNS_5ValueEPNS_11InstructionE
libbcc.so.0:_ZN4llvm10ResumeInstC2ERKS0_
libbcc.so.0:_ZN4llvm10ReturnInstC1ERKS0_
libbcc.so.0:_ZN4llvm10ReturnInstC1ERNS_11LLVMContextEPNS_10BasicBlockE
libbcc.so.0:_ZN4llvm10ReturnInstC1ERNS_11LLVMContextEPNS_5ValueEPNS_10BasicBlockE
libbcc.so.0:_ZN4llvm10ReturnInstC1ERNS_11LLVMContextEPNS_5ValueEPNS_11InstructionE
libbcc.so.0:_ZN4llvm10ReturnInstC2ERKS0_
libbcc.so.0:_ZN4llvm10ReturnInstC2ERNS_11LLVMContextEPNS_10BasicBlockE
libbcc.so.0:_ZN4llvm10ReturnInstC2ERNS_11LLVMContextEPNS_5ValueEPNS_10BasicBlockE
libbcc.so.0:_ZN4llvm10ReturnInstC2ERNS_11LLVMContextEPNS_5ValueEPNS_11InstructionE
libbcc.so.0:_ZN4llvm10SCCPSolver11addAnalysisERNS_8FunctionENS_20AnalysisResultsForFnE
libbcc.so.0:_ZN4llvm10SCCPSolver15markOverdefinedEPNS_5ValueE
libbcc.so.0:_ZN4llvm10SCCPSolver16resolvedUndefsInERNS_8FunctionE
libbcc.so.0:_ZN4llvm10SCCPSolver17getTrackedGlobalsEv
libbcc.so.0:_ZN4llvm10SCCPSolver17getTrackedRetValsEv
libbcc.so.0:_ZN4llvm10SCCPSolver18addTrackedFunctionEPNS_8FunctionE
libbcc.so.0:_ZN4llvm10SCCPSolver18mustPreserveReturnEPNS_8FunctionE
libbcc.so.0:_ZN4llvm10SCCPSolver19getPredicateInfoForEPNS_11InstructionE
libbcc.so.0:_ZN4llvm10SCCPSolver19markBlockExecutableEPNS_10BasicBlockE
libbcc.so.0:_ZN4llvm10SCCPSolver21removeLatticeValueForEPNS_5ValueE
libbcc.so.0:_ZN4llvm10SCCPSolver22getMRVFunctionsTrackedEv
libbcc.so.0:_ZN4llvm10SCCPSolver23isStructLatticeConstantEPNS_8FunctionEPNS_10StructTypeE
libbcc.so.0:_ZN4llvm10SCCPSolver23markFunctionUnreachableEPNS_8FunctionE
libbcc.so.0:_ZN4llvm10SCCPSolver25isArgumentTrackedFunctionEPNS_8FunctionE
libbcc.so.0:_ZN4llvm10SCCPSolver26addArgumentTrackedFunctionEPNS_8FunctionE
libbcc.so.0:_ZN4llvm10SCCPSolver26trackValueOfGlobalVariableEPNS_14GlobalVariableE
libbcc.so.0:_ZN4llvm10SCCPSolver27getArgumentTrackedFunctionsEv
libbcc.so.0:_ZN4llvm10SCCPSolver27markArgInFuncSpecializationEPNS_8FunctionERKNS_15SmallVectorImplINS_7ArgInfoEEE
libbcc.so.0:_ZN4llvm10SCCPSolver35addToMustPreserveReturnsInFunctionsEPNS_8FunctionE
libbcc.so.0:_ZN4llvm10SCCPSolver5solveEv
libbcc.so.0:_ZN4llvm10SCCPSolver5visitEPNS_11InstructionE
libbcc.so.0:_ZN4llvm10SCCPSolver6getDTUERNS_8FunctionE
libbcc.so.0:_ZN4llvm10SCCPSolver9visitCallERNS_8CallInstE
libbcc.so.0:_ZN4llvm10SCCPSolverC1ERKNS_10DataLayoutESt8functionIFRKNS_17TargetLibraryInfoERNS_8FunctionEEERNS_11LLVMContextE
libbcc.so.0:_ZN4llvm10SCCPSolverC2ERKNS_10DataLayoutESt8functionIFRKNS_17TargetLibraryInfoERNS_8FunctionEEERNS_11LLVMContextE
libbcc.so.0:_ZN4llvm10SCCPSolverD1Ev
libbcc.so.0:_ZN4llvm10SCCPSolverD2Ev
libbcc.so.0:_ZN4llvm10SIToFPInstC1EPNS_5ValueEPNS_4TypeERKNS_5TwineEPNS_10BasicBlockE
libbcc.so.0:_ZN4llvm10SIToFPInstC1EPNS_5ValueEPNS_4TypeERKNS_5TwineEPNS_11InstructionE
libbcc.so.0:_ZN4llvm10SIToFPInstC2EPNS_5ValueEPNS_4TypeERKNS_5TwineEPNS_10BasicBlockE
libbcc.so.0:_ZN4llvm10SIToFPInstC2EPNS_5ValueEPNS_4TypeERKNS_5TwineEPNS_11InstructionE
libbcc.so.0:_ZN4llvm10SMSchedule12computeStartEPNS_5SUnitEPiS3_S3_S3_iPNS_17SwingSchedulerDAGE
libbcc.so.0:_ZN4llvm10SMSchedule13isLoopCarriedEPNS_17SwingSchedulerDAGERNS_12MachineInstrE
libbcc.so.0:_ZN4llvm10SMSchedule15isValidScheduleEPNS_17SwingSchedulerDAGE
libbcc.so.0:_ZN4llvm10SMSchedule15orderDependenceEPNS_17SwingSchedulerDAGEPNS_5SUnitERSt5dequeIS4_SaIS4_EE
libbcc.so.0:_ZN4llvm10SMSchedule16finalizeScheduleEPNS_17SwingSchedulerDAGE
libbcc.so.0:_ZN4llvm10SMSchedule18latestCycleInChainERKNS_4SDepE
libbcc.so.0:_ZN4llvm10SMSchedule20earliestCycleInChainERKNS_4SDepE
libbcc.so.0:_ZN4llvm10SMSchedule21isLoopCarriedDefOfUseEPNS_17SwingSchedulerDAGEPNS_12MachineInstrERNS_14MachineOperandE
libbcc.so.0:_ZN4llvm10SMSchedule26computeUnpipelineableNodesEPNS_17SwingSchedulerDAGEPNS_15TargetInstrInfo17PipelinerLoopInfoE
libbcc.so.0:_ZN4llvm10SMSchedule33normalizeNonPipelinedInstructionsEPNS_17SwingSchedulerDAGEPNS_15TargetInstrInfo17PipelinerLoopInfoE
libbcc.so.0:_ZN4llvm10SMSchedule6insertEPNS_5SUnitEiii
libbcc.so.0:_ZN4llvm10SSAUpdater10InitializeEPNS_4TypeENS_9StringRefE
libbcc.so.0:_ZN4llvm10SSAUpdater10RewriteUseERNS_3UseE
libbcc.so.0:_ZN4llvm10SSAUpdater17AddAvailableValueEPNS_10BasicBlockEPNS_5ValueE
libbcc.so.0:_ZN4llvm10SSAUpdater20GetValueAtEndOfBlockEPNS_10BasicBlockE
libbcc.so.0:_ZN4llvm10SSAUpdater23GetValueInMiddleOfBlockEPNS_10BasicBlockE
libbcc.so.0:_ZN4llvm10SSAUpdater25RewriteUseAfterInsertionsERNS_3UseE
libbcc.so.0:_ZN4llvm10SSAUpdater28GetValueAtEndOfBlockInternalEPNS_10BasicBlockE
libbcc.so.0:_ZN4llvm10SSAUpdaterC1EPNS_15SmallVectorImplIPNS_7PHINodeEEE
libbcc.so.0:_ZN4llvm10SSAUpdaterC2EPNS_15SmallVectorImplIPNS_7PHINodeEEE
libbcc.so.0:_ZN4llvm10SSAUpdaterD1Ev
libbcc.so.0:_ZN4llvm10SSAUpdaterD2Ev
libbcc.so.0:_ZN4llvm10SelectInst18areInvalidOperandsEPNS_5ValueES2_S2_
libbcc.so.0:_ZN4llvm10SplitBlockEPNS_10BasicBlockEPNS_11InstructionEPNS_13DominatorTreeEPNS_8LoopInfoEPNS_16MemorySSAUpdaterERKNS_5TwineEb
libbcc.so.0:_ZN4llvm10SplitBlockEPNS_10BasicBlockEPNS_11InstructionEPNS_14DomTreeUpdaterEPNS_8LoopInfoEPNS_16MemorySSAUpdaterERKNS_5TwineEb
libbcc.so.0:_ZN4llvm10StructType13getTypeByNameERNS_11LLVMContextENS_9StringRefE
libbcc.so.0:_ZN4llvm10StructType18isValidElementTypeEPNS_4TypeE
libbcc.so.0:_ZN4llvm10StructType3getERNS_11LLVMContextENS_8ArrayRefIPNS_4TypeEEEb
libbcc.so.0:_ZN4llvm10StructType3getERNS_11LLVMContextEb
libbcc.so.0:_ZN4llvm10StructType6createENS_8ArrayRefIPNS_4TypeEEE
libbcc.so.0:_ZN4llvm10StructType6createENS_8ArrayRefIPNS_4TypeEEENS_9StringRefEb
libbcc.so.0:_ZN4llvm10StructType6createERNS_11LLVMContextE
libbcc.so.0:_ZN4llvm10StructType6createERNS_11LLVMContextENS_8ArrayRefIPNS_4TypeEEE
libbcc.so.0:_ZN4llvm10StructType6createERNS_11LLVMContextENS_8ArrayRefIPNS_4TypeEEENS_9StringRefEb
libbcc.so.0:_ZN4llvm10StructType6createERNS_11LLVMContextENS_9StringRefE
libbcc.so.0:_ZN4llvm10StructType7setBodyENS_8ArrayRefIPNS_4TypeEEEb
libbcc.so.0:_ZN4llvm10StructType7setNameENS_9StringRefE
libbcc.so.0:_ZN4llvm10SuffixTree10insertLeafERNS_14SuffixTreeNodeEjj
libbcc.so.0:_ZN4llvm10SuffixTree16setSuffixIndicesEv
libbcc.so.0:_ZN4llvm10SuffixTree18insertInternalNodeEPNS_14SuffixTreeNodeEjjj
libbcc.so.0:_ZN4llvm10SuffixTree6extendEjj
libbcc.so.0:_ZN4llvm10SuffixTreeC1ERKSt6vectorIjSaIjEE
libbcc.so.0:_ZN4llvm10SuffixTreeC2ERKSt6vectorIjSaIjEE
libbcc.so.0:_ZN4llvm10SwitchInst10removeCaseENS0_16CaseIteratorImplINS0_10CaseHandleEEE
libbcc.so.0:_ZN4llvm10SwitchInst12growOperandsEv
libbcc.so.0:_ZN4llvm10SwitchInst4initEPNS_5ValueEPNS_10BasicBlockEj
libbcc.so.0:_ZN4llvm10SwitchInst7addCaseEPNS_11ConstantIntEPNS_10BasicBlockE
libbcc.so.0:_ZN4llvm10SwitchInstC1EPNS_5ValueEPNS_10BasicBlockEjPNS_11InstructionE
libbcc.so.0:_ZN4llvm10SwitchInstC1EPNS_5ValueEPNS_10BasicBlockEjS4_
libbcc.so.0:_ZN4llvm10SwitchInstC1ERKS0_
libbcc.so.0:_ZN4llvm10SwitchInstC2EPNS_5ValueEPNS_10BasicBlockEjPNS_11InstructionE
libbcc.so.0:_ZN4llvm10SwitchInstC2EPNS_5ValueEPNS_10BasicBlockEjS4_
libbcc.so.0:_ZN4llvm10SwitchInstC2ERKS0_
libbcc.so.0:_ZN4llvm10TensorSpec11getDataTypeIaEENS_10TensorTypeEv
libbcc.so.0:_ZN4llvm10TensorSpec11getDataTypeIdEENS_10TensorTypeEv
libbcc.so.0:_ZN4llvm10TensorSpec11getDataTypeIfEENS_10TensorTypeEv
libbcc.so.0:_ZN4llvm10TensorSpec11getDataTypeIhEENS_10TensorTypeEv
libbcc.so.0:_ZN4llvm10TensorSpec11getDataTypeIiEENS_10TensorTypeEv
libbcc.so.0:_ZN4llvm10TensorSpec11getDataTypeIjEENS_10TensorTypeEv
libbcc.so.0:_ZN4llvm10TensorSpec11getDataTypeIlEENS_10TensorTypeEv
libbcc.so.0:_ZN4llvm10TensorSpec11getDataTypeImEENS_10TensorTypeEv
libbcc.so.0:_ZN4llvm10TensorSpec11getDataTypeIsEENS_10TensorTypeEv
libbcc.so.0:_ZN4llvm10TensorSpec11getDataTypeItEENS_10TensorTypeEv
libbcc.so.0:_ZN4llvm10TensorSpecC1ERKNSt7__cxx1112basic_stringIcSt11char_traitsIcESaIcEEEiNS_10TensorTypeEmRKSt6vectorIlSaIlEE
libbcc.so.0:_ZN4llvm10TensorSpecC2ERKNSt7__cxx1112basic_stringIcSt11char_traitsIcESaIcEEEiNS_10TensorTypeEmRKSt6vectorIlSaIlEE
libbcc.so.0:_ZN4llvm10ThreadPool12processTasksEPNS_19ThreadPoolTaskGroupE
libbcc.so.0:_ZN4llvm10ThreadPool4growEi
libbcc.so.0:_ZN4llvm10ThreadPool4waitERNS_19ThreadPoolTaskGroupE
libbcc.so.0:_ZN4llvm10ThreadPool4waitEv
libbcc.so.0:_ZN4llvm10ThreadPoolC1ENS_18ThreadPoolStrategyE
libbcc.so.0:_ZN4llvm10ThreadPoolC2ENS_18ThreadPoolStrategyE
libbcc.so.0:_ZN4llvm10ThreadPoolD1Ev
libbcc.so.0:_ZN4llvm10ThreadPoolD2Ev
libbcc.so.0:_ZN4llvm10TimeRecord14getCurrentTimeEb
libbcc.so.0:_ZN4llvm10TimerGroup11removeTimerERNS_5TimerE
libbcc.so.0:_ZN4llvm10TimerGroup14printJSONValueERNS_11raw_ostreamERKNS0_11PrintRecordEPKcd
libbcc.so.0:_ZN4llvm10TimerGroup15printJSONValuesERNS_11raw_ostreamEPKc
libbcc.so.0:_ZN4llvm10TimerGroup17PrintQueuedTimersERNS_11raw_ostreamE
libbcc.so.0:_ZN4llvm10TimerGroup18aquireDefaultGroupEv
libbcc.so.0:_ZN4llvm10TimerGroup18prepareToPrintListEb
libbcc.so.0:_ZN4llvm10TimerGroup18printAllJSONValuesERNS_11raw_ostreamEPKc
libbcc.so.0:_ZN4llvm10TimerGroup19ConstructTimerListsEv
libbcc.so.0:_ZN4llvm10TimerGroup5clearEv
libbcc.so.0:_ZN4llvm10TimerGroup5printERNS_11raw_ostreamEb
libbcc.so.0:_ZN4llvm10TimerGroup8addTimerERNS_5TimerE
libbcc.so.0:_ZN4llvm10TimerGroup8clearAllEv
libbcc.so.0:_ZN4llvm10TimerGroup8printAllERNS_11raw_ostreamE
libbcc.so.0:_ZN4llvm10TimerGroupC1ENS_9StringRefES1_
libbcc.so.0:_ZN4llvm10TimerGroupC1ENS_9StringRefES1_RKNS_9StringMapINS_10TimeRecordENS_15MallocAllocatorEEE
libbcc.so.0:_ZN4llvm10TimerGroupC2ENS_9StringRefES1_
libbcc.so.0:_ZN4llvm10TimerGroupC2ENS_9StringRefES1_RKNS_9StringMapINS_10TimeRecordENS_15MallocAllocatorEEE
libbcc.so.0:_ZN4llvm10TimerGroupD1Ev
libbcc.so.0:_ZN4llvm10TimerGroupD2Ev
libbcc.so.0:_ZN4llvm10TypeFinder15incorporateTypeEPNS_4TypeE
libbcc.so.0:_ZN4llvm10TypeFinder16incorporateValueEPKNS_5ValueE
libbcc.so.0:_ZN4llvm10TypeFinder17incorporateMDNodeEPKNS_6MDNodeE
libbcc.so.0:_ZN4llvm10TypeFinder21incorporateAttributesENS_13AttributeListE
libbcc.so.0:_ZN4llvm10TypeFinder3runERKNS_6ModuleEb
libbcc.so.0:_ZN4llvm10TypeFinder5clearEv
libbcc.so.0:_ZN4llvm10UIToFPInstC1EPNS_5ValueEPNS_4TypeERKNS_5TwineEPNS_10BasicBlockE
libbcc.so.0:_ZN4llvm10UIToFPInstC1EPNS_5ValueEPNS_4TypeERKNS_5TwineEPNS_11InstructionE
libbcc.so.0:_ZN4llvm10UIToFPInstC2EPNS_5ValueEPNS_4TypeERKNS_5TwineEPNS_10BasicBlockE
libbcc.so.0:_ZN4llvm10UIToFPInstC2EPNS_5ValueEPNS_4TypeERKNS_5TwineEPNS_11InstructionE
libbcc.so.0:_ZN4llvm10UndefValue19destroyConstantImplEv
libbcc.so.0:_ZN4llvm10UndefValue3getEPNS_4TypeE
libbcc.so.0:_ZN4llvm10UnrollLoopEPNS_4LoopENS_17UnrollLoopOptionsEPNS_8LoopInfoEPNS_15ScalarEvolutionEPNS_13DominatorTreeEPNS_15AssumptionCacheEPKNS_19TargetTransformInfoEPNS_25OptimizationRemarkEmitterEbPS1_
libbcc.so.0:_ZN4llvm10VNCoercion19getLoadValueForLoadEPNS_8LoadInstEjPNS_4TypeEPNS_11InstructionERKNS_10DataLayoutE
libbcc.so.0:_ZN4llvm10VNCoercion20getStoreValueForLoadEPNS_5ValueEjPNS_4TypeEPNS_11InstructionERKNS_10DataLayoutE
libbcc.so.0:_ZN4llvm10VNCoercion22getMemInstValueForLoadEPNS_12MemIntrinsicEjPNS_4TypeEPNS_11InstructionERKNS_10DataLayoutE
libbcc.so.0:_ZN4llvm10VNCoercion27getConstantLoadValueForLoadEPNS_8ConstantEjPNS_4TypeERKNS_10DataLayoutE
libbcc.so.0:_ZN4llvm10VNCoercion28getConstantStoreValueForLoadEPNS_8ConstantEjPNS_4TypeERKNS_10DataLayoutE
libbcc.so.0:_ZN4llvm10VNCoercion29analyzeLoadFromClobberingLoadEPNS_4TypeEPNS_5ValueEPNS_8LoadInstERKNS_10DataLayoutE
libbcc.so.0:_ZN4llvm10VNCoercion30analyzeLoadFromClobberingStoreEPNS_4TypeEPNS_5ValueEPNS_9StoreInstERKNS_10DataLayoutE
libbcc.so.0:_ZN4llvm10VNCoercion30coerceAvailableValueToLoadTypeEPNS_5ValueEPNS_4TypeERNS_13IRBuilderBaseERKNS_10DataLayoutE
libbcc.so.0:_ZN4llvm10VNCoercion30getConstantMemInstValueForLoadEPNS_12MemIntrinsicEjPNS_4TypeERKNS_10DataLayoutE
libbcc.so.0:_ZN4llvm10VNCoercion31canCoerceMustAliasedValueToLoadEPNS_5ValueEPNS_4TypeERKNS_10DataLayoutE
libbcc.so.0:_ZN4llvm10VNCoercion32analyzeLoadFromClobberingMemInstEPNS_4TypeEPNS_5ValueEPNS_12MemIntrinsicERKNS_10DataLayoutE
libbcc.so.0:_ZN4llvm10VectorType18isValidElementTypeEPNS_4TypeE
libbcc.so.0:_ZN4llvm10VectorType3getEPNS_4TypeENS_12ElementCountE
libbcc.so.0:_ZN4llvm10VectorTypeC1EPNS_4TypeEjNS1_6TypeIDE
libbcc.so.0:_ZN4llvm10VectorTypeC2EPNS_4TypeEjNS1_6TypeIDE
libbcc.so.0:_ZN4llvm10VirtRegMap15assignVirt2PhysENS_8RegisterEt
libbcc.so.0:_ZN4llvm10VirtRegMap15createSpillSlotEPKNS_19TargetRegisterClassE
libbcc.so.0:_ZN4llvm10VirtRegMap20assignVirt2StackSlotENS_8RegisterE
libbcc.so.0:_ZN4llvm10VirtRegMap20assignVirt2StackSlotENS_8RegisterEi
libbcc.so.0:_ZN4llvm10VirtRegMap20runOnMachineFunctionERNS_15MachineFunctionE
libbcc.so.0:_ZN4llvm10VirtRegMap4growEv
libbcc.so.0:_ZN4llvm10WriteGraphINS_11EdgeBundlesEEERNS_11raw_ostreamES3_RKT_bRKNS_5TwineE
libbcc.so.0:_ZN4llvm10addLiveInsERNS_17MachineBasicBlockERKNS_12LivePhysRegsE
libbcc.so.0:_ZN4llvm10bfi_detail16IrreducibleGraph10indexNodesEv
libbcc.so.0:_ZN4llvm10bfi_detail16IrreducibleGraph14addNodesInLoopERKNS_26BlockFrequencyInfoImplBase8LoopDataE
libbcc.so.0:_ZN4llvm10bfi_detail16IrreducibleGraph18addNodesInFunctionEv
libbcc.so.0:_ZN4llvm10bfi_detail16IrreducibleGraph7addEdgeERNS1_7IrrNodeERKNS_26BlockFrequencyInfoImplBase9BlockNodeEPKNS4_8LoopDataE
libbcc.so.0:_ZN4llvm10castToCStrEPNS_5ValueERNS_13IRBuilderBaseE
libbcc.so.0:_ZN4llvm10emitCallocEPNS_5ValueES1_RNS_13IRBuilderBaseERKNS_17TargetLibraryInfoE
libbcc.so.0:_ZN4llvm10emitFWriteEPNS_5ValueES1_S1_RNS_13IRBuilderBaseERKNS_10DataLayoutEPKNS_17TargetLibraryInfoE
libbcc.so.0:_ZN4llvm10emitMallocEPNS_5ValueERNS_13IRBuilderBaseERKNS_10DataLayoutEPKNS_17TargetLibraryInfoE
libbcc.so.0:_ZN4llvm10emitMemChrEPNS_5ValueES1_S1_RNS_13IRBuilderBaseERKNS_10DataLayoutEPKNS_17TargetLibraryInfoE
libbcc.so.0:_ZN4llvm10emitMemCmpEPNS_5ValueES1_S1_RNS_13IRBuilderBaseERKNS_10DataLayoutEPKNS_17TargetLibraryInfoE
libbcc.so.0:_ZN4llvm10emitStpCpyEPNS_5ValueES1_RNS_13IRBuilderBaseEPKNS_17TargetLibraryInfoE
libbcc.so.0:_ZN4llvm10emitStrCatEPNS_5ValueES1_RNS_13IRBuilderBaseEPKNS_17TargetLibraryInfoE
libbcc.so.0:_ZN4llvm10emitStrChrEPNS_5ValueEcRNS_13IRBuilderBaseEPKNS_17TargetLibraryInfoE
libbcc.so.0:_ZN4llvm10emitStrCpyEPNS_5ValueES1_RNS_13IRBuilderBaseEPKNS_17TargetLibraryInfoE
libbcc.so.0:_ZN4llvm10emitStrDupEPNS_5ValueERNS_13IRBuilderBaseEPKNS_17TargetLibraryInfoE
libbcc.so.0:_ZN4llvm10emitStrLenEPNS_5ValueERNS_13IRBuilderBaseERKNS_10DataLayoutEPKNS_17TargetLibraryInfoE
libbcc.so.0:_ZN4llvm10eraseInstrERNS_12MachineInstrERNS_19MachineRegisterInfoEPNS_20LostDebugLocObserverE
libbcc.so.0:_ZN4llvm10getCoverTyENS_3LLTES0_
libbcc.so.0:_ZN4llvm10getFloatFnEPKNS_6ModuleEPKNS_17TargetLibraryInfoEPNS_4TypeENS_7LibFuncES8_S8_RS8_
libbcc.so.0:_ZN4llvm10getGCDTypeENS_3LLTES0_
libbcc.so.0:_ZN4llvm10getLCMTypeENS_3LLTES0_
libbcc.so.0:_ZN4llvm10getMaxFreqERKNS_8FunctionEPKNS_18BlockFrequencyInfoE
libbcc.so.0:_ZN4llvm10hasFloatFnEPKNS_6ModuleEPKNS_17TargetLibraryInfoEPNS_4TypeENS_7LibFuncES8_S8_
libbcc.so.0:_ZN4llvm10hash_valueENS_9StringRefE
libbcc.so.0:_ZN4llvm10hash_valueERKNS_14MachineOperandE
libbcc.so.0:_ZN4llvm10hash_valueERKNS_16RegisterBankInfo14PartialMappingE
libbcc.so.0:_ZN4llvm10hash_valueERKNS_5APIntE
libbcc.so.0:_ZN4llvm10hash_valueERKNS_7APFloatE
libbcc.so.0:_ZN4llvm10lintModuleERKNS_6ModuleE
libbcc.so.0:_ZN4llvm10pruneCacheENS_9StringRefENS_18CachePruningPolicyE
libbcc.so.0:_ZN4llvm10sampleprof12SampleRecord5mergeERKS1_m
libbcc.so.0:_ZN4llvm10sampleprof15FunctionSamples15getCallSiteHashENS_9StringRefERKNS0_12LineLocationE
libbcc.so.0:_ZN4llvm10sampleprof15FunctionSamples21getCallSiteIdentifierEPKNS_10DILocationEb
libbcc.so.0:_ZN4llvm10sampleprof15FunctionSamples9getOffsetEPKNS_10DILocationE
libbcc.so.0:_ZN4llvm10sampleprof16sortFuncProfilesERKSt13unordered_mapINS0_13SampleContextENS0_15FunctionSamplesENS2_4HashESt8equal_toIS2_ESaISt4pairIKS2_S3_EEERSt6vectorIS7_IS2_PKS3_ESaISH_EE
libbcc.so.0:_ZN4llvm10sampleprof17ProfileSymbolList4readEPKhm
libbcc.so.0:_ZN4llvm10sampleprof17ProfileSymbolList5writeERNS_11raw_ostreamE
libbcc.so.0:_ZN4llvm10sampleprof18CSProfileConverter15convertProfilesERNS1_9FrameNodeE
libbcc.so.0:_ZN4llvm10sampleprof18CSProfileConverter15convertProfilesEv
libbcc.so.0:_ZN4llvm10sampleprof18CSProfileConverter22getOrCreateContextPathERKNS0_13SampleContextE
libbcc.so.0:_ZN4llvm10sampleprof18CSProfileConverter9FrameNode21getOrCreateChildFrameERKNS0_12LineLocationENS_9StringRefE
libbcc.so.0:_ZN4llvm10sampleprof18CSProfileConverterC1ERSt13unordered_mapINS0_13SampleContextENS0_15FunctionSamplesENS3_4HashESt8equal_toIS3_ESaISt4pairIKS3_S4_EEE
libbcc.so.0:_ZN4llvm10sampleprof18CSProfileConverterC2ERSt13unordered_mapINS0_13SampleContextENS0_15FunctionSamplesENS3_4HashESt8equal_toIS3_ESaISt4pairIKS3_S4_EEE
libbcc.so.0:_ZN4llvm10sampleprof19SampleProfileReader14computeSummaryEv
libbcc.so.0:_ZN4llvm10sampleprof19SampleProfileReader19dumpFunctionProfileENS0_13SampleContextERNS_11raw_ostreamE
libbcc.so.0:_ZN4llvm10sampleprof19SampleProfileReader4dumpERNS_11raw_ostreamE
libbcc.so.0:_ZN4llvm10sampleprof19SampleProfileReader6createENSt7__cxx1112basic_stringIcSt11char_traitsIcESaIcEEERNS_11LLVMContextENS0_19FSDiscriminatorPassES7_
libbcc.so.0:_ZN4llvm10sampleprof19SampleProfileReader6createERSt10unique_ptrINS_12MemoryBufferESt14default_deleteIS3_EERNS_11LLVMContextENS0_19FSDiscriminatorPassENSt7__cxx1112basic_stringIcSt11char_traitsIcESaIcEEE
libbcc.so.0:_ZN4llvm10sampleprof20SampleContextTrimmer27canonicalizeContextProfilesEv
libbcc.so.0:_ZN4llvm10sampleprof20SampleContextTrimmer31trimAndMergeColdContextProfilesEmbbjb
libbcc.so.0:_ZN4llvm10sampleprof22SampleProfileReaderGCC10readHeaderEv
libbcc.so.0:_ZN4llvm10sampleprof22SampleProfileReaderGCC10readStringEv
libbcc.so.0:_ZN4llvm10sampleprof22SampleProfileReaderGCC12skipNextWordEv
libbcc.so.0:_ZN4llvm10sampleprof22SampleProfileReaderGCC13readNameTableEv
libbcc.so.0:_ZN4llvm10sampleprof22SampleProfileReaderGCC14readSectionTagEj
libbcc.so.0:_ZN4llvm10sampleprof22SampleProfileReaderGCC20readFunctionProfilesEv
libbcc.so.0:_ZN4llvm10sampleprof22SampleProfileReaderGCC22readOneFunctionProfileERKNS_11SmallVectorIPNS0_15FunctionSamplesELj10EEEbj
libbcc.so.0:_ZN4llvm10sampleprof22SampleProfileReaderGCC8readImplEv
libbcc.so.0:_ZN4llvm10sampleprof22SampleProfileReaderGCC9hasFormatERKNS_12MemoryBufferE
libbcc.so.0:_ZN4llvm10sampleprof23SampleProfileReaderText8readImplEv
libbcc.so.0:_ZN4llvm10sampleprof23SampleProfileReaderText9hasFormatERKNS_12MemoryBufferE
libbcc.so.0:_ZN4llvm10sampleprof25SampleProfileReaderBinary10readHeaderEv
libbcc.so.0:_ZN4llvm10sampleprof25SampleProfileReaderBinary10readStringEv
libbcc.so.0:_ZN4llvm10sampleprof25SampleProfileReaderBinary11readProfileERNS0_15FunctionSamplesE
libbcc.so.0:_ZN4llvm10sampleprof25SampleProfileReaderBinary11readSummaryEv
libbcc.so.0:_ZN4llvm10sampleprof25SampleProfileReaderBinary13readNameTableEv
libbcc.so.0:_ZN4llvm10sampleprof25SampleProfileReaderBinary14readMagicIdentEv
libbcc.so.0:_ZN4llvm10sampleprof25SampleProfileReaderBinary15readFuncProfileEPKh
libbcc.so.0:_ZN4llvm10sampleprof25SampleProfileReaderBinary16readSummaryEntryERSt6vectorINS_19ProfileSummaryEntryESaIS3_EE
libbcc.so.0:_ZN4llvm10sampleprof25SampleProfileReaderBinary19readStringFromTableEv
libbcc.so.0:_ZN4llvm10sampleprof25SampleProfileReaderBinary26readSampleContextFromTableEv
libbcc.so.0:_ZN4llvm10sampleprof25SampleProfileReaderBinary8readImplEv
libbcc.so.0:_ZN4llvm10sampleprof28SampleProfileReaderExtBinary13verifySPMagicEm
libbcc.so.0:_ZN4llvm10sampleprof28SampleProfileReaderExtBinary9hasFormatERKNS_12MemoryBufferE
libbcc.so.0:_ZN4llvm10sampleprof28SampleProfileReaderRawBinary13verifySPMagicEm
libbcc.so.0:_ZN4llvm10sampleprof28SampleProfileReaderRawBinary9hasFormatERKNS_12MemoryBufferE
libbcc.so.0:_ZN4llvm10sampleprof32SampleProfileReaderCompactBinary10readHeaderEv
libbcc.so.0:_ZN4llvm10sampleprof32SampleProfileReaderCompactBinary13readNameTableEv
libbcc.so.0:_ZN4llvm10sampleprof32SampleProfileReaderCompactBinary13verifySPMagicEm
libbcc.so.0:_ZN4llvm10sampleprof32SampleProfileReaderCompactBinary19readFuncOffsetTableEv
libbcc.so.0:_ZN4llvm10sampleprof32SampleProfileReaderCompactBinary19readStringFromTableEv
libbcc.so.0:_ZN4llvm10sampleprof32SampleProfileReaderCompactBinary22collectFuncsFromModuleEv
libbcc.so.0:_ZN4llvm10sampleprof32SampleProfileReaderCompactBinary8readImplEv
libbcc.so.0:_ZN4llvm10sampleprof32SampleProfileReaderCompactBinary9hasFormatERKNS_12MemoryBufferE
libbcc.so.0:_ZN4llvm10sampleprof32SampleProfileReaderExtBinaryBase10readHeaderEv
libbcc.so.0:_ZN4llvm10sampleprof32SampleProfileReaderExtBinaryBase11getFileSizeEv
libbcc.so.0:_ZN4llvm10sampleprof32SampleProfileReaderExtBinaryBase14getSectionSizeENS0_7SecTypeE
libbcc.so.0:_ZN4llvm10sampleprof32SampleProfileReaderExtBinaryBase14readOneSectionEPKhmRKNS0_16SecHdrTableEntryE
libbcc.so.0:_ZN4llvm10sampleprof32SampleProfileReaderExtBinaryBase15dumpSectionInfoERNS_11raw_ostreamE
libbcc.so.0:_ZN4llvm10sampleprof32SampleProfileReaderExtBinaryBase15readSecHdrTableEv
libbcc.so.0:_ZN4llvm10sampleprof32SampleProfileReaderExtBinaryBase16readFuncMetadataEb
libbcc.so.0:_ZN4llvm10sampleprof32SampleProfileReaderExtBinaryBase16readFuncMetadataEbPNS0_15FunctionSamplesE
libbcc.so.0:_ZN4llvm10sampleprof32SampleProfileReaderExtBinaryBase16readFuncProfilesEv
libbcc.so.0:_ZN4llvm10sampleprof32SampleProfileReaderExtBinaryBase16readMD5NameTableEv
libbcc.so.0:_ZN4llvm10sampleprof32SampleProfileReaderExtBinaryBase16readNameTableSecEb
libbcc.so.0:_ZN4llvm10sampleprof32SampleProfileReaderExtBinaryBase17decompressSectionEPKhmRS3_Rm
libbcc.so.0:_ZN4llvm10sampleprof32SampleProfileReaderExtBinaryBase18readCSNameTableSecEv
libbcc.so.0:_ZN4llvm10sampleprof32SampleProfileReaderExtBinaryBase19readFuncOffsetTableEv
libbcc.so.0:_ZN4llvm10sampleprof32SampleProfileReaderExtBinaryBase19readStringFromTableEv
libbcc.so.0:_ZN4llvm10sampleprof32SampleProfileReaderExtBinaryBase20readContextFromTableEv
libbcc.so.0:_ZN4llvm10sampleprof32SampleProfileReaderExtBinaryBase20readSecHdrTableEntryEj
libbcc.so.0:_ZN4llvm10sampleprof32SampleProfileReaderExtBinaryBase21readProfileSymbolListEv
libbcc.so.0:_ZN4llvm10sampleprof32SampleProfileReaderExtBinaryBase22collectFuncsFromModuleEv
libbcc.so.0:_ZN4llvm10sampleprof32SampleProfileReaderExtBinaryBase26readSampleContextFromTableEv
libbcc.so.0:_ZN4llvm10sampleprof32SampleProfileReaderExtBinaryBase8readImplEv
libbcc.so.0:_ZN4llvm10sampleprof34SampleProfileReaderItaniumRemapper14applyRemappingERNS_11LLVMContextE
libbcc.so.0:_ZN4llvm10sampleprof34SampleProfileReaderItaniumRemapper19lookUpNameInProfileENS_9StringRefE
libbcc.so.0:_ZN4llvm10sampleprof34SampleProfileReaderItaniumRemapper6createENSt7__cxx1112basic_stringIcSt11char_traitsIcESaIcEEERNS0_19SampleProfileReaderERNS_11LLVMContextE
libbcc.so.0:_ZN4llvm10sampleprof34SampleProfileReaderItaniumRemapper6createERSt10unique_ptrINS_12MemoryBufferESt14default_deleteIS3_EERNS0_19SampleProfileReaderERNS_11LLVMContextE
libbcc.so.0:_ZN4llvm10sampleproflsERNS_11raw_ostreamERKNS0_12LineLocationE
libbcc.so.0:_ZN4llvm10sampleproflsERNS_11raw_ostreamERKNS0_12SampleRecordE
libbcc.so.0:_ZN4llvm10sampleproflsERNS_11raw_ostreamERKNS0_15FunctionSamplesE
libbcc.so.0:_ZN4llvm10sinkRegionEPNS_15DomTreeNodeBaseINS_10BasicBlockEEEPNS_9AAResultsEPNS_8LoopInfoEPNS_13DominatorTreeEPNS_18BlockFrequencyInfoEPNS_17TargetLibraryInfoEPNS_19TargetTransformInfoEPNS_4LoopERNS_16MemorySSAUpdaterEPNS_17ICFLoopSafetyInfoERNS_21SinkAndHoistLICMFlagsEPNS_25OptimizationRemarkEmitterESH_
libbcc.so.0:_ZN4llvm10tryGreaterEiiRNS_20GenericSchedulerBase14SchedCandidateES2_NS0_10CandReasonE
libbcc.so.0:_ZN4llvm10tryLatencyERNS_20GenericSchedulerBase14SchedCandidateES2_RNS_13SchedBoundaryE
libbcc.so.0:_ZN4llvm11AACallEdges17createForPositionERKNS_10IRPositionERNS_10AttributorE
libbcc.so.0:_ZN4llvm11AAEvaluator11runInternalERNS_8FunctionERNS_9AAResultsE
libbcc.so.0:_ZN4llvm11AAEvaluator3runERNS_8FunctionERNS_15AnalysisManagerIS1_JEEE
libbcc.so.0:_ZN4llvm11AAEvaluatorD1Ev
libbcc.so.0:_ZN4llvm11AAEvaluatorD2Ev
libbcc.so.0:_ZN4llvm11AANoCapture17createForPositionERKNS_10IRPositionERNS_10AttributorE
libbcc.so.0:_ZN4llvm11AANoRecurse17createForPositionERKNS_10IRPositionERNS_10AttributorE
libbcc.so.0:_ZN4llvm11APFloatBase10IEEEdoubleEv
libbcc.so.0:_ZN4llvm11APFloatBase10IEEEsingleEv
libbcc.so.0:_ZN4llvm11APFloatBase13getSizeInBitsERKNS_12fltSemanticsE
libbcc.so.0:_ZN4llvm11APFloatBase15EnumToSemanticsENS0_9SemanticsE
libbcc.so.0:_ZN4llvm11APFloatBase15PPCDoubleDoubleEv
libbcc.so.0:_ZN4llvm11APFloatBase15SemanticsToEnumERKNS_12fltSemanticsE
libbcc.so.0:_ZN4llvm11APFloatBase17x87DoubleExtendedEv
libbcc.so.0:_ZN4llvm11APFloatBase18semanticsPrecisionERKNS_12fltSemanticsE
libbcc.so.0:_ZN4llvm11APFloatBase19semanticsSizeInBitsERKNS_12fltSemanticsE
libbcc.so.0:_ZN4llvm11APFloatBase20semanticsMaxExponentERKNS_12fltSemanticsE
libbcc.so.0:_ZN4llvm11APFloatBase20semanticsMinExponentERKNS_12fltSemanticsE
libbcc.so.0:_ZN4llvm11APFloatBase5BogusEv
libbcc.so.0:_ZN4llvm11APFloatBase6BFloatEv
libbcc.so.0:_ZN4llvm11APFloatBase8IEEEhalfEv
libbcc.so.0:_ZN4llvm11APFloatBase8IEEEquadEv
libbcc.so.0:_ZN4llvm11AddressPool10emitHeaderERNS_10AsmPrinterEPNS_9MCSectionE
libbcc.so.0:_ZN4llvm11AddressPool4emitERNS_10AsmPrinterEPNS_9MCSectionE
libbcc.so.0:_ZN4llvm11AddressPool8getIndexEPKNS_8MCSymbolEb
libbcc.so.0:_ZN4llvm11AttrBuilder11addTypeAttrENS_9Attribute8AttrKindEPNS_4TypeE
libbcc.so.0:_ZN4llvm11AttrBuilder12addAttributeENS_9Attribute8AttrKindE
libbcc.so.0:_ZN4llvm11AttrBuilder12addAttributeENS_9AttributeE
libbcc.so.0:_ZN4llvm11AttrBuilder12addAttributeENS_9StringRefES1_
libbcc.so.0:_ZN4llvm11AttrBuilder12addByRefAttrEPNS_4TypeE
libbcc.so.0:_ZN4llvm11AttrBuilder12addByValAttrEPNS_4TypeE
libbcc.so.0:_ZN4llvm11AttrBuilder13addRawIntAttrENS_9Attribute8AttrKindEm
libbcc.so.0:_ZN4llvm11AttrBuilder14addUWTableAttrENS_11UWTableKindE
libbcc.so.0:_ZN4llvm11AttrBuilder15addInAllocaAttrEPNS_4TypeE
libbcc.so.0:_ZN4llvm11AttrBuilder15removeAttributeENS_9Attribute8AttrKindE
libbcc.so.0:_ZN4llvm11AttrBuilder15removeAttributeENS_9StringRefE
libbcc.so.0:_ZN4llvm11AttrBuilder16addAlignmentAttrENS_10MaybeAlignE
libbcc.so.0:_ZN4llvm11AttrBuilder16addAllocKindAttrENS_11AllocFnKindE
libbcc.so.0:_ZN4llvm11AttrBuilder16addAllocSizeAttrEjRKNS_8OptionalIjEE
libbcc.so.0:_ZN4llvm11AttrBuilder16addStructRetAttrEPNS_4TypeE
libbcc.so.0:_ZN4llvm11AttrBuilder18addVScaleRangeAttrEjNS_8OptionalIjEE
libbcc.so.0:_ZN4llvm11AttrBuilder19addPreallocatedAttrEPNS_4TypeE
libbcc.so.0:_ZN4llvm11AttrBuilder21addStackAlignmentAttrENS_10MaybeAlignE
libbcc.so.0:_ZN4llvm11AttrBuilder22addDereferenceableAttrEm
libbcc.so.0:_ZN4llvm11AttrBuilder27addAllocSizeAttrFromRawReprEm
libbcc.so.0:_ZN4llvm11AttrBuilder28addDereferenceableOrNullAttrEm
libbcc.so.0:_ZN4llvm11AttrBuilder29addVScaleRangeAttrFromRawReprEm
libbcc.so.0:_ZN4llvm11AttrBuilder5clearEv
libbcc.so.0:_ZN4llvm11AttrBuilder5mergeERKS0_
libbcc.so.0:_ZN4llvm11AttrBuilder6removeERKNS_13AttributeMaskE
libbcc.so.0:_ZN4llvm11AttrBuilderC1ERNS_11LLVMContextENS_12AttributeSetE
libbcc.so.0:_ZN4llvm11AttrBuilderC2ERNS_11LLVMContextENS_12AttributeSetE
libbcc.so.0:_ZN4llvm11BitCastInstC1EPNS_5ValueEPNS_4TypeERKNS_5TwineEPNS_10BasicBlockE
libbcc.so.0:_ZN4llvm11BitCastInstC1EPNS_5ValueEPNS_4TypeERKNS_5TwineEPNS_11InstructionE
libbcc.so.0:_ZN4llvm11BitCastInstC2EPNS_5ValueEPNS_4TypeERKNS_5TwineEPNS_10BasicBlockE
libbcc.so.0:_ZN4llvm11BitCastInstC2EPNS_5ValueEPNS_4TypeERKNS_5TwineEPNS_11InstructionE
libbcc.so.0:_ZN4llvm11BuryPointerEPKv
libbcc.so.0:_ZN4llvm11CFLAndersAA3runERNS_8FunctionERNS_15AnalysisManagerIS1_JEEE
libbcc.so.0:_ZN4llvm11CFLSteensAA3runERNS_8FunctionERNS_15AnalysisManagerIS1_JEEE
libbcc.so.0:_ZN4llvm11CaptureInfoD0Ev
libbcc.so.0:_ZN4llvm11CaptureInfoD1Ev
libbcc.so.0:_ZN4llvm11CaptureInfoD2Ev
libbcc.so.0:_ZN4llvm11CloneModuleERKNS_6ModuleE
libbcc.so.0:_ZN4llvm11CloneModuleERKNS_6ModuleERNS_8ValueMapIPKNS_5ValueENS_14WeakTrackingVHENS_14ValueMapConfigIS6_NS_3sys10SmartMutexILb0EEEEEEE
libbcc.so.0:_ZN4llvm11CloneModuleERKNS_6ModuleERNS_8ValueMapIPKNS_5ValueENS_14WeakTrackingVHENS_14ValueMapConfigIS6_NS_3sys10SmartMutexILb0EEEEEEENS_12function_refIFbPKNS_11GlobalValueEEEE
libbcc.so.0:_ZN4llvm11CodeMetrics17analyzeBasicBlockEPKNS_10BasicBlockERKNS_19TargetTransformInfoERKNS_15SmallPtrSetImplIPKNS_5ValueEEEb
libbcc.so.0:_ZN4llvm11CodeMetrics22collectEphemeralValuesEPKNS_4LoopEPNS_15AssumptionCacheERNS_15SmallPtrSetImplIPKNS_5ValueEEE
libbcc.so.0:_ZN4llvm11CodeMetrics22collectEphemeralValuesEPKNS_8FunctionEPNS_15AssumptionCacheERNS_15SmallPtrSetImplIPKNS_5ValueEEE
libbcc.so.0:_ZN4llvm11ConstantInt19destroyConstantImplEv
libbcc.so.0:_ZN4llvm11ConstantInt19isValueValidForTypeEPNS_4TypeEl
libbcc.so.0:_ZN4llvm11ConstantInt19isValueValidForTypeEPNS_4TypeEm
libbcc.so.0:_ZN4llvm11ConstantInt3getEPNS_11IntegerTypeENS_9StringRefEh
libbcc.so.0:_ZN4llvm11ConstantInt3getEPNS_11IntegerTypeEmb
libbcc.so.0:_ZN4llvm11ConstantInt3getEPNS_4TypeERKNS_5APIntE
libbcc.so.0:_ZN4llvm11ConstantInt3getEPNS_4TypeEmb
libbcc.so.0:_ZN4llvm11ConstantInt3getERNS_11LLVMContextERKNS_5APIntE
libbcc.so.0:_ZN4llvm11ConstantInt7getBoolEPNS_4TypeEb
libbcc.so.0:_ZN4llvm11ConstantInt7getBoolERNS_11LLVMContextEb
libbcc.so.0:_ZN4llvm11ConstantInt7getTrueEPNS_4TypeE
libbcc.so.0:_ZN4llvm11ConstantInt7getTrueERNS_11LLVMContextE
libbcc.so.0:_ZN4llvm11ConstantInt8getFalseEPNS_4TypeE
libbcc.so.0:_ZN4llvm11ConstantInt8getFalseERNS_11LLVMContextE
libbcc.so.0:_ZN4llvm11ConstantInt9getSignedEPNS_11IntegerTypeEl
libbcc.so.0:_ZN4llvm11ConstantInt9getSignedEPNS_4TypeEl
libbcc.so.0:_ZN4llvm11ConstantIntC1EPNS_11IntegerTypeERKNS_5APIntE
libbcc.so.0:_ZN4llvm11ConstantIntC2EPNS_11IntegerTypeERKNS_5APIntE
libbcc.so.0:_ZN4llvm11DDGAnalysis3runERNS_4LoopERNS_15AnalysisManagerIS1_JRNS_27LoopStandardAnalysisResultsEEEES5_
libbcc.so.0:_ZN4llvm11DIBasicType7getImplERNS_11LLVMContextEjPNS_8MDStringEmjjNS_6DINode7DIFlagsENS_8Metadata11StorageTypeEb
libbcc.so.0:_ZN4llvm11DIMacroFile7getImplERNS_11LLVMContextEjjPNS_8MetadataES4_NS3_11StorageTypeEb
libbcc.so.0:_ZN4llvm11DINamespace7getImplERNS_11LLVMContextEPNS_8MetadataEPNS_8MDStringEbNS3_11StorageTypeEb
libbcc.so.0:_ZN4llvm11DINamespaceC1ERNS_11LLVMContextENS_8Metadata11StorageTypeEbNS_8ArrayRefIPS3_EE
libbcc.so.0:_ZN4llvm11DINamespaceC2ERNS_11LLVMContextENS_8Metadata11StorageTypeEbNS_8ArrayRefIPS3_EE
libbcc.so.0:_ZN4llvm11DbgVariable11addMMIEntryERKS0_
libbcc.so.0:_ZN4llvm11DbgVariable18initializeDbgValueEPKNS_12MachineInstrE
libbcc.so.0:_ZN4llvm11EdgeBundles20runOnMachineFunctionERNS_15MachineFunctionE
libbcc.so.0:_ZN4llvm11FPTruncInstC1EPNS_5ValueEPNS_4TypeERKNS_5TwineEPNS_10BasicBlockE
libbcc.so.0:_ZN4llvm11FPTruncInstC1EPNS_5ValueEPNS_4TypeERKNS_5TwineEPNS_11InstructionE
libbcc.so.0:_ZN4llvm11FPTruncInstC2EPNS_5ValueEPNS_4TypeERKNS_5TwineEPNS_10BasicBlockE
libbcc.so.0:_ZN4llvm11FPTruncInstC2EPNS_5ValueEPNS_4TypeERKNS_5TwineEPNS_11InstructionE
libbcc.so.0:_ZN4llvm11GCOVOptions10getDefaultEv
libbcc.so.0:_ZN4llvm11GEPOperator24accumulateConstantOffsetEPNS_4TypeENS_8ArrayRefIPKNS_5ValueEEERKNS_10DataLayoutERNS_5APIntENS_12function_refIFbRS4_SC_EEE
libbcc.so.0:_ZN4llvm11GVNSinkPass3runERNS_8FunctionERNS_15AnalysisManagerIS1_JEEE
libbcc.so.0:_ZN4llvm11GlobPattern6createENS_9StringRefE
libbcc.so.0:_ZN4llvm11GlobalAlias10setAliaseeEPNS_8ConstantE
libbcc.so.0:_ZN4llvm11GlobalAlias15eraseFromParentEv
libbcc.so.0:_ZN4llvm11GlobalAlias16removeFromParentEv
libbcc.so.0:_ZN4llvm11GlobalAlias6createENS_11GlobalValue12LinkageTypesERKNS_5TwineEPS1_
libbcc.so.0:_ZN4llvm11GlobalAlias6createEPNS_4TypeEjNS_11GlobalValue12LinkageTypesERKNS_5TwineEPNS_6ModuleE
libbcc.so.0:_ZN4llvm11GlobalAlias6createEPNS_4TypeEjNS_11GlobalValue12LinkageTypesERKNS_5TwineEPNS_8ConstantEPNS_6ModuleE
libbcc.so.0:_ZN4llvm11GlobalAlias6createEPNS_4TypeEjNS_11GlobalValue12LinkageTypesERKNS_5TwineEPS3_
libbcc.so.0:_ZN4llvm11GlobalAlias6createERKNS_5TwineEPNS_11GlobalValueE
libbcc.so.0:_ZN4llvm11GlobalAliasC1EPNS_4TypeEjNS_11GlobalValue12LinkageTypesERKNS_5TwineEPNS_8ConstantEPNS_6ModuleE
libbcc.so.0:_ZN4llvm11GlobalAliasC2EPNS_4TypeEjNS_11GlobalValue12LinkageTypesERKNS_5TwineEPNS_8ConstantEPNS_6ModuleE
libbcc.so.0:_ZN4llvm11GlobalIFunc15eraseFromParentEv
libbcc.so.0:_ZN4llvm11GlobalIFunc16removeFromParentEv
libbcc.so.0:_ZN4llvm11GlobalIFunc6createEPNS_4TypeEjNS_11GlobalValue12LinkageTypesERKNS_5TwineEPNS_8ConstantEPNS_6ModuleE
libbcc.so.0:_ZN4llvm11GlobalIFuncC1EPNS_4TypeEjNS_11GlobalValue12LinkageTypesERKNS_5TwineEPNS_8ConstantEPNS_6ModuleE
libbcc.so.0:_ZN4llvm11GlobalIFuncC2EPNS_4TypeEjNS_11GlobalValue12LinkageTypesERKNS_5TwineEPNS_8ConstantEPNS_6ModuleE
libbcc.so.0:_ZN4llvm11GlobalValue11materializeEv
libbcc.so.0:_ZN4llvm11GlobalValue12setPartitionENS_9StringRefE
libbcc.so.0:_ZN4llvm11GlobalValue15eraseFromParentEv
libbcc.so.0:_ZN4llvm11GlobalValue16removeFromParentEv
libbcc.so.0:_ZN4llvm11GlobalValue18copyAttributesFromEPKS0_
libbcc.so.0:_ZN4llvm11GlobalValue19destroyConstantImplEv
libbcc.so.0:_ZN4llvm11GlobalValue19getGlobalIdentifierB5cxx11ENS_9StringRefENS0_12LinkageTypesES1_
libbcc.so.0:_ZN4llvm11GlobalValue20setSanitizerMetadataENS0_17SanitizerMetadataE
libbcc.so.0:_ZN4llvm11GlobalValue23handleOperandChangeImplEPNS_5ValueES2_
libbcc.so.0:_ZN4llvm11GlobalValue23removeSanitizerMetadataEv
libbcc.so.0:_ZN4llvm11IVStrideUse18transformToPostIncEPKNS_4LoopE
libbcc.so.0:_ZN4llvm11IVStrideUse7deletedEv
libbcc.so.0:_ZN4llvm11InlinerPass10getAdvisorERKNS_25OuterAnalysisManagerProxyINS_15AnalysisManagerINS_6ModuleEJEEENS_13LazyCallGraph3SCCEJRS5_EE6ResultERNS2_INS_8FunctionEJEEERS3_
libbcc.so.0:_ZN4llvm11InlinerPass13printPipelineERNS_11raw_ostreamENS_12function_refIFNS_9StringRefES4_EEE
libbcc.so.0:_ZN4llvm11InlinerPass3runERNS_13LazyCallGraph3SCCERNS_15AnalysisManagerIS2_JRS1_EEES5_RNS_17CGSCCUpdateResultE
libbcc.so.0:_ZN4llvm11Instruction10andIRFlagsEPKNS_5ValueE
libbcc.so.0:_ZN4llvm11Instruction10moveBeforeEPS0_
libbcc.so.0:_ZN4llvm11Instruction10moveBeforeERNS_10BasicBlockENS_14ilist_iteratorINS_12ilist_detail12node_optionsIS0_Lb0ELb0EvEELb0ELb0EEE
libbcc.so.0:_ZN4llvm11Instruction10setIsExactEb
libbcc.so.0:_ZN4llvm11Instruction11copyIRFlagsEPKNS_5ValueEb
libbcc.so.0:_ZN4llvm11Instruction11insertAfterEPS0_
libbcc.so.0:_ZN4llvm11Instruction11setMetadataENS_9StringRefEPNS_6MDNodeE
libbcc.so.0:_ZN4llvm11Instruction11setMetadataEjPNS_6MDNodeE
libbcc.so.0:_ZN4llvm11Instruction12copyMetadataERKS0_NS_8ArrayRefIjEE
libbcc.so.0:_ZN4llvm11Instruction12dropLocationEv
libbcc.so.0:_ZN4llvm11Instruction12insertBeforeEPS0_
libbcc.so.0:_ZN4llvm11Instruction12setHasNoInfsEb
libbcc.so.0:_ZN4llvm11Instruction12setHasNoNaNsEb
libbcc.so.0:_ZN4llvm11Instruction12setSuccessorEjPNS_10BasicBlockE
libbcc.so.0:_ZN4llvm11Instruction13getOpcodeNameEj
libbcc.so.0:_ZN4llvm11Instruction13setAAMetadataERKNS_9AAMDNodesE
libbcc.so.0:_ZN4llvm11Instruction15eraseFromParentEv
libbcc.so.0:_ZN4llvm11Instruction16removeFromParentEv
libbcc.so.0:_ZN4llvm11Instruction16setFastMathFlagsENS_13FastMathFlagsE
libbcc.so.0:_ZN4llvm11Instruction16setHasApproxFuncEb
libbcc.so.0:_ZN4llvm11Instruction16swapProfMetadataEv
libbcc.so.0:_ZN4llvm11Instruction17copyFastMathFlagsENS_13FastMathFlagsE
libbcc.so.0:_ZN4llvm11Instruction17copyFastMathFlagsEPKS0_
libbcc.so.0:_ZN4llvm11Instruction18setHasAllowReassocEb
libbcc.so.0:_ZN4llvm11Instruction18setHasNoSignedWrapEb
libbcc.so.0:_ZN4llvm11Instruction19applyMergedLocationEPKNS_10DILocationES3_
libbcc.so.0:_ZN4llvm11Instruction19setHasAllowContractEb
libbcc.so.0:_ZN4llvm11Instruction19setHasNoSignedZerosEb
libbcc.so.0:_ZN4llvm11Instruction20replaceSuccessorWithEPNS_10BasicBlockES2_
libbcc.so.0:_ZN4llvm11Instruction20setHasNoUnsignedWrapEb
libbcc.so.0:_ZN4llvm11Instruction21addAnnotationMetadataENS_9StringRefE
libbcc.so.0:_ZN4llvm11Instruction21setHasAllowReciprocalEb
libbcc.so.0:_ZN4llvm11Instruction22isOnlyUserOfAnyOperandEv
libbcc.so.0:_ZN4llvm11Instruction24updateLocationAfterHoistEv
libbcc.so.0:_ZN4llvm11Instruction25dropPoisonGeneratingFlagsEv
libbcc.so.0:_ZN4llvm11Instruction27dropUnknownNonDebugMetadataENS_8ArrayRefIjEE
libbcc.so.0:_ZN4llvm11Instruction40dropUndefImplyingAttrsAndUnknownMetadataENS_8ArrayRefIjEE
libbcc.so.0:_ZN4llvm11Instruction7setFastEb
libbcc.so.0:_ZN4llvm11Instruction9moveAfterEPS0_
libbcc.so.0:_ZN4llvm11Instruction9setParentEPNS_10BasicBlockE
libbcc.so.0:_ZN4llvm11InstructionC1EPNS_4TypeEjPNS_3UseEjPNS_10BasicBlockE
libbcc.so.0:_ZN4llvm11InstructionC1EPNS_4TypeEjPNS_3UseEjPS0_
libbcc.so.0:_ZN4llvm11InstructionC2EPNS_4TypeEjPNS_3UseEjPNS_10BasicBlockE
libbcc.so.0:_ZN4llvm11InstructionC2EPNS_4TypeEjPNS_3UseEjPS0_
libbcc.so.0:_ZN4llvm11InstructionD1Ev
libbcc.so.0:_ZN4llvm11InstructionD2Ev
libbcc.so.0:_ZN4llvm11IntegerType3getERNS_11LLVMContextEj
libbcc.so.0:_ZN4llvm11LLVMContext12removeModuleEPNS_6ModuleE
libbcc.so.0:_ZN4llvm11LLVMContext14setOptPassGateERNS_11OptPassGateE
libbcc.so.0:_ZN4llvm11LLVMContext16setYieldCallbackEPFvPS0_PvES2_
libbcc.so.0:_ZN4llvm11LLVMContext20getDiagnosticHandlerEv
libbcc.so.0:_ZN4llvm11LLVMContext20setDiagnosticHandlerEOSt10unique_ptrINS_17DiagnosticHandlerESt14default_deleteIS2_EEb
libbcc.so.0:_ZN4llvm11LLVMContext20setDiscardValueNamesEb
libbcc.so.0:_ZN4llvm11LLVMContext21getLLVMRemarkStreamerEv
libbcc.so.0:_ZN4llvm11LLVMContext21getMainRemarkStreamerEv
libbcc.so.0:_ZN4llvm11LLVMContext21setLLVMRemarkStreamerESt10unique_ptrINS_18LLVMRemarkStreamerESt14default_deleteIS2_EE
libbcc.so.0:_ZN4llvm11LLVMContext21setMainRemarkStreamerESt10unique_ptrINS_7remarks14RemarkStreamerESt14default_deleteIS3_EE
libbcc.so.0:_ZN4llvm11LLVMContext22getOrInsertSyncScopeIDENS_9StringRefE
libbcc.so.0:_ZN4llvm11LLVMContext26enableDebugTypeODRUniquingEv
libbcc.so.0:_ZN4llvm11LLVMContext26getDiagnosticMessagePrefixENS_18DiagnosticSeverityE
libbcc.so.0:_ZN4llvm11LLVMContext27disableDebugTypeODRUniquingEv
libbcc.so.0:_ZN4llvm11LLVMContext28setDiagnosticHandlerCallBackEPFvRKNS_14DiagnosticInfoEPvES4_b
libbcc.so.0:_ZN4llvm11LLVMContext28setMisExpectWarningRequestedEb
libbcc.so.0:_ZN4llvm11LLVMContext30setDiagnosticsHotnessRequestedEb
libbcc.so.0:_ZN4llvm11LLVMContext30setDiagnosticsHotnessThresholdENS_8OptionalImEE
libbcc.so.0:_ZN4llvm11LLVMContext32setDiagnosticsMisExpectToleranceENS_8OptionalImEE
libbcc.so.0:_ZN4llvm11LLVMContext5getGCB5cxx11ERKNS_8FunctionE
libbcc.so.0:_ZN4llvm11LLVMContext5setGCERKNS_8FunctionENSt7__cxx1112basic_stringIcSt11char_traitsIcESaIcEEE
libbcc.so.0:_ZN4llvm11LLVMContext5yieldEv
libbcc.so.0:_ZN4llvm11LLVMContext8deleteGCERKNS_8FunctionE
libbcc.so.0:_ZN4llvm11LLVMContext8diagnoseERKNS_14DiagnosticInfoE
libbcc.so.0:_ZN4llvm11LLVMContext9addModuleEPNS_6ModuleE
libbcc.so.0:_ZN4llvm11LLVMContext9emitErrorEPKNS_11InstructionERKNS_5TwineE
libbcc.so.0:_ZN4llvm11LLVMContext9emitErrorERKNS_5TwineE
libbcc.so.0:_ZN4llvm11LLVMContext9emitErrorEmRKNS_5TwineE
libbcc.so.0:_ZN4llvm11LLVMContextC1Ev
libbcc.so.0:_ZN4llvm11LLVMContextC2Ev
libbcc.so.0:_ZN4llvm11LLVMContextD1Ev
libbcc.so.0:_ZN4llvm11LLVMContextD2Ev
libbcc.so.0:_ZN4llvm11MBFIWrapper12setBlockFreqEPKNS_17MachineBasicBlockENS_14BlockFrequencyE
libbcc.so.0:_ZN4llvm11MBFIWrapper4viewERKNS_5TwineEb
libbcc.so.0:_ZN4llvm11MCAsmLayout14layoutFragmentEPNS_10MCFragmentE
libbcc.so.0:_ZN4llvm11MCAsmLayout23invalidateFragmentsFromEPNS_10MCFragmentE
libbcc.so.0:_ZN4llvm11MCAsmLayoutC1ERNS_11MCAssemblerE
libbcc.so.0:_ZN4llvm11MCAsmLayoutC2ERNS_11MCAssemblerE
libbcc.so.0:_ZN4llvm11MCAsmParser10parseTokenENS_8AsmToken9TokenKindERKNS_5TwineE
libbcc.so.0:_ZN4llvm11MCAsmParser13parseIntTokenERlRKNS_5TwineE
libbcc.so.0:_ZN4llvm11MCAsmParser13parseTokenLocERNS_5SMLocE
libbcc.so.0:_ZN4llvm11MCAsmParser14addErrorSuffixERKNS_5TwineE
libbcc.so.0:_ZN4llvm11MCAsmParser15parseExpressionERPKNS_6MCExprE
libbcc.so.0:_ZN4llvm11MCAsmParser15setTargetParserERNS_17MCTargetAsmParserE
libbcc.so.0:_ZN4llvm11MCAsmParser17parseGNUAttributeENS_5SMLocERlS2_
libbcc.so.0:_ZN4llvm11MCAsmParser18parseOptionalTokenENS_8AsmToken9TokenKindE
libbcc.so.0:_ZN4llvm11MCAsmParser5ErrorENS_5SMLocERKNS_5TwineENS_7SMRangeE
libbcc.so.0:_ZN4llvm11MCAsmParser5checkEbNS_5SMLocERKNS_5TwineE
libbcc.so.0:_ZN4llvm11MCAsmParser5checkEbRKNS_5TwineE
libbcc.so.0:_ZN4llvm11MCAsmParser8TokErrorERKNS_5TwineENS_7SMRangeE
libbcc.so.0:_ZN4llvm11MCAsmParser8parseEOLERKNS_5TwineE
libbcc.so.0:_ZN4llvm11MCAsmParser8parseEOLEv
libbcc.so.0:_ZN4llvm11MCAsmParser9parseManyENS_12function_refIFbvEEEb
libbcc.so.0:_ZN4llvm11MCAsmParserC2Ev
libbcc.so.0:_ZN4llvm11MCAsmParserD0Ev
libbcc.so.0:_ZN4llvm11MCAsmParserD1Ev
libbcc.so.0:_ZN4llvm11MCAsmParserD2Ev
libbcc.so.0:_ZN4llvm11MCAssembler10layoutOnceERNS_11MCAsmLayoutE
libbcc.so.0:_ZN4llvm11MCAssembler11handleFixupERKNS_11MCAsmLayoutERNS_10MCFragmentERKNS_7MCFixupE
libbcc.so.0:_ZN4llvm11MCAssembler12finishLayoutERNS_11MCAsmLayoutE
libbcc.so.0:_ZN4llvm11MCAssembler13relaxFragmentERNS_11MCAsmLayoutERNS_10MCFragmentE
libbcc.so.0:_ZN4llvm11MCAssembler14registerSymbolERKNS_8MCSymbolEPb
libbcc.so.0:_ZN4llvm11MCAssembler15registerSectionERNS_9MCSectionE
libbcc.so.0:_ZN4llvm11MCAssembler15relaxCVDefRangeERNS_11MCAsmLayoutERNS_20MCCVDefRangeFragmentE
libbcc.so.0:_ZN4llvm11MCAssembler16relaxInstructionERNS_11MCAsmLayoutERNS_19MCRelaxableFragmentE
libbcc.so.0:_ZN4llvm11MCAssembler17layoutSectionOnceERNS_11MCAsmLayoutERNS_9MCSectionE
libbcc.so.0:_ZN4llvm11MCAssembler18relaxBoundaryAlignERNS_11MCAsmLayoutERNS_23MCBoundaryAlignFragmentE
libbcc.so.0:_ZN4llvm11MCAssembler18relaxDwarfLineAddrERNS_11MCAsmLayoutERNS_23MCDwarfLineAddrFragmentE
libbcc.so.0:_ZN4llvm11MCAssembler20relaxPseudoProbeAddrERNS_11MCAsmLayoutERNS_25MCPseudoProbeAddrFragmentE
libbcc.so.0:_ZN4llvm11MCAssembler22relaxCVInlineLineTableERNS_11MCAsmLayoutERNS_27MCCVInlineLineTableFragmentE
libbcc.so.0:_ZN4llvm11MCAssembler27relaxDwarfCallFrameFragmentERNS_11MCAsmLayoutERNS_24MCDwarfCallFrameFragmentE
libbcc.so.0:_ZN4llvm11MCAssembler5resetEv
libbcc.so.0:_ZN4llvm11MCAssembler6FinishEv
libbcc.so.0:_ZN4llvm11MCAssembler6layoutERNS_11MCAsmLayoutE
libbcc.so.0:_ZN4llvm11MCAssembler8relaxLEBERNS_11MCAsmLayoutERNS_13MCLEBFragmentE
libbcc.so.0:_ZN4llvm11MCAssemblerC1ERNS_9MCContextESt10unique_ptrINS_12MCAsmBackendESt14default_deleteIS4_EES3_INS_13MCCodeEmitterES5_IS8_EES3_INS_14MCObjectWriterES5_ISB_EE
libbcc.so.0:_ZN4llvm11MCAssemblerC2ERNS_9MCContextESt10unique_ptrINS_12MCAsmBackendESt14default_deleteIS4_EES3_INS_13MCCodeEmitterES5_IS8_EES3_INS_14MCObjectWriterES5_ISB_EE
libbcc.so.0:_ZN4llvm11MCAssemblerD1Ev
libbcc.so.0:_ZN4llvm11MCAssemblerD2Ev
libbcc.so.0:_ZN4llvm11MCSymbolELF13setVisibilityEj
libbcc.so.0:_ZN4llvm11MCSymbolELF8setOtherEj
libbcc.so.0:_ZN4llvm11MCUnaryExpr6createENS0_6OpcodeEPKNS_6MCExprERNS_9MCContextENS_5SMLocE
libbcc.so.0:_ZN4llvm11MachineLoop11getTopBlockEv
libbcc.so.0:_ZN4llvm11MachineLoop14getBottomBlockEv
libbcc.so.0:_ZN4llvm11MachineLoop20findLoopControlBlockEv
libbcc.so.0:_ZN4llvm11NamedMDNode10addOperandEPNS_6MDNodeE
libbcc.so.0:_ZN4llvm11NamedMDNode10setOperandEjPNS_6MDNodeE
libbcc.so.0:_ZN4llvm11NamedMDNode13clearOperandsEv
libbcc.so.0:_ZN4llvm11NamedMDNode15eraseFromParentEv
libbcc.so.0:_ZN4llvm11NamedMDNodeC1ERKNS_5TwineE
libbcc.so.0:_ZN4llvm11NamedMDNodeC2ERKNS_5TwineE
libbcc.so.0:_ZN4llvm11NamedMDNodeD1Ev
libbcc.so.0:_ZN4llvm11NamedMDNodeD2Ev
libbcc.so.0:_ZN4llvm11ObjectCache6anchorEv
libbcc.so.0:_ZN4llvm11PassManagerIN5polly4ScopENS_15AnalysisManagerIS2_JRNS1_27ScopStandardAnalysisResultsEEEEJS5_RNS1_10SPMUpdaterEEE3runERS2_RS6_S5_S8_
libbcc.so.0:_ZN4llvm11PassManagerINS_13LazyCallGraph3SCCENS_15AnalysisManagerIS2_JRS1_EEEJS4_RNS_17CGSCCUpdateResultEEE3runERS2_RS5_S4_S7_
libbcc.so.0:_ZN4llvm11PassManagerINS_4LoopENS_15AnalysisManagerIS1_JRNS_27LoopStandardAnalysisResultsEEEEJS4_RNS_10LPMUpdaterEEE13printPipelineERNS_11raw_ostreamENS_12function_refIFNS_9StringRefESC_EEE
libbcc.so.0:_ZN4llvm11PassManagerINS_4LoopENS_15AnalysisManagerIS1_JRNS_27LoopStandardAnalysisResultsEEEEJS4_RNS_10LPMUpdaterEEE21runWithLoopNestPassesERS1_RS5_S4_S7_
libbcc.so.0:_ZN4llvm11PassManagerINS_4LoopENS_15AnalysisManagerIS1_JRNS_27LoopStandardAnalysisResultsEEEEJS4_RNS_10LPMUpdaterEEE24runWithoutLoopNestPassesERS1_RS5_S4_S7_
libbcc.so.0:_ZN4llvm11PassManagerINS_4LoopENS_15AnalysisManagerIS1_JRNS_27LoopStandardAnalysisResultsEEEEJS4_RNS_10LPMUpdaterEEE3runERS1_RS5_S4_S7_
libbcc.so.0:_ZN4llvm11PointerType18isValidElementTypeEPNS_4TypeE
libbcc.so.0:_ZN4llvm11PointerType24isLoadableOrStorableTypeEPNS_4TypeE
libbcc.so.0:_ZN4llvm11PointerType3getEPNS_4TypeEj
libbcc.so.0:_ZN4llvm11PointerType3getERNS_11LLVMContextEj
libbcc.so.0:_ZN4llvm11PointerTypeC1EPNS_4TypeEj
libbcc.so.0:_ZN4llvm11PointerTypeC1ERNS_11LLVMContextEj
libbcc.so.0:_ZN4llvm11PointerTypeC2EPNS_4TypeEj
libbcc.so.0:_ZN4llvm11PointerTypeC2ERNS_11LLVMContextEj
libbcc.so.0:_ZN4llvm11PoisonValue19destroyConstantImplEv
libbcc.so.0:_ZN4llvm11PoisonValue3getEPNS_4TypeE
libbcc.so.0:_ZN4llvm11PromotePass3runERNS_8FunctionERNS_15AnalysisManagerIS1_JEEE
libbcc.so.0:_ZN4llvm11RuntimeDyld10loadObjectERKNS_6object10ObjectFileE
libbcc.so.0:_ZN4llvm11RuntimeDyld13MemoryManager18allocateTLSSectionEmjjNS_9StringRefE
libbcc.so.0:_ZN4llvm11RuntimeDyld13MemoryManager6anchorEv
libbcc.so.0:_ZN4llvm11RuntimeDyld14getErrorStringEv
libbcc.so.0:_ZN4llvm11RuntimeDyld16LoadedObjectInfo6anchorEv
libbcc.so.0:_ZN4llvm11RuntimeDyld16registerEHFramesEv
libbcc.so.0:_ZN4llvm11RuntimeDyld17mapSectionAddressEPKvm
libbcc.so.0:_ZN4llvm11RuntimeDyld18deregisterEHFramesEv
libbcc.so.0:_ZN4llvm11RuntimeDyld18resolveRelocationsEv
libbcc.so.0:_ZN4llvm11RuntimeDyld22reassignSectionAddressEjm
libbcc.so.0:_ZN4llvm11RuntimeDyld32finalizeWithMemoryManagerLockingEv
libbcc.so.0:_ZN4llvm11RuntimeDyld8hasErrorEv
libbcc.so.0:_ZN4llvm11RuntimeDyldC1ERNS0_13MemoryManagerERNS_17JITSymbolResolverE
libbcc.so.0:_ZN4llvm11RuntimeDyldC2ERNS0_13MemoryManagerERNS_17JITSymbolResolverE
libbcc.so.0:_ZN4llvm11RuntimeDyldD1Ev
libbcc.so.0:_ZN4llvm11RuntimeDyldD2Ev
libbcc.so.0:_ZN4llvm11SCEVUnknown19allUsesReplacedWithEPNS_5ValueE
libbcc.so.0:_ZN4llvm11SCEVUnknown7deletedEv
libbcc.so.0:_ZN4llvm11ScheduleDAG8clearDAGEv
libbcc.so.0:_ZN4llvm11ScheduleDAG9viewGraphERKNS_5TwineES3_
libbcc.so.0:_ZN4llvm11ScheduleDAG9viewGraphEv
libbcc.so.0:_ZN4llvm11ScheduleDAGC2ERNS_15MachineFunctionE
libbcc.so.0:_ZN4llvm11ScheduleDAGD0Ev
libbcc.so.0:_ZN4llvm11ScheduleDAGD1Ev
libbcc.so.0:_ZN4llvm11ScheduleDAGD2Ev
libbcc.so.0:_ZN4llvm11SinkingPass3runERNS_8FunctionERNS_15AnalysisManagerIS1_JEEE
libbcc.so.0:_ZN4llvm11SlotIndexes13releaseMemoryEv
libbcc.so.0:_ZN4llvm11SlotIndexes15renumberIndexesENS_14ilist_iteratorINS_12ilist_detail12node_optionsINS_14IndexListEntryELb0ELb0EvEELb0ELb0EEE
libbcc.so.0:_ZN4llvm11SlotIndexes20repairIndexesInRangeEPNS_17MachineBasicBlockENS_26MachineInstrBundleIteratorINS_12MachineInstrELb0EEES5_
libbcc.so.0:_ZN4llvm11SlotIndexes20runOnMachineFunctionERNS_15MachineFunctionE
libbcc.so.0:_ZN4llvm11SlotIndexes26removeMachineInstrFromMapsERNS_12MachineInstrEb
libbcc.so.0:_ZN4llvm11SlotIndexes32removeSingleMachineInstrFromMapsERNS_12MachineInstrE
libbcc.so.0:_ZN4llvm11SlotIndexesC1Ev
libbcc.so.0:_ZN4llvm11SlotIndexesC2Ev
libbcc.so.0:_ZN4llvm11SlotIndexesD0Ev
libbcc.so.0:_ZN4llvm11SlotIndexesD1Ev
libbcc.so.0:_ZN4llvm11SlotIndexesD2Ev
libbcc.so.0:_ZN4llvm11SlotTracker11getGUIDSlotEm
libbcc.so.0:_ZN4llvm11SlotTracker12getLocalSlotEPKNS_5ValueE
libbcc.so.0:_ZN4llvm11SlotTracker12processIndexEv
libbcc.so.0:_ZN4llvm11SlotTracker13getGlobalSlotEPKNS_11GlobalValueE
libbcc.so.0:_ZN4llvm11SlotTracker13getTypeIdSlotENS_9StringRefE
libbcc.so.0:_ZN4llvm11SlotTracker13processModuleEv
libbcc.so.0:_ZN4llvm11SlotTracker13purgeFunctionEv
libbcc.so.0:_ZN4llvm11SlotTracker14CreateGUIDSlotEm
libbcc.so.0:_ZN4llvm11SlotTracker14setProcessHookESt8functionIFvPNS_26AbstractSlotTrackerStorageEPKNS_6ModuleEbEE
libbcc.so.0:_ZN4llvm11SlotTracker14setProcessHookESt8functionIFvPNS_26AbstractSlotTrackerStorageEPKNS_8FunctionEbEE
libbcc.so.0:_ZN4llvm11SlotTracker15getMetadataSlotEPKNS_6MDNodeE
libbcc.so.0:_ZN4llvm11SlotTracker15processFunctionEv
libbcc.so.0:_ZN4llvm11SlotTracker16CreateModuleSlotEPKNS_11GlobalValueE
libbcc.so.0:_ZN4llvm11SlotTracker16CreateTypeIdSlotENS_9StringRefE
libbcc.so.0:_ZN4llvm11SlotTracker17getModulePathSlotENS_9StringRefE
libbcc.so.0:_ZN4llvm11SlotTracker18CreateFunctionSlotEPKNS_5ValueE
libbcc.so.0:_ZN4llvm11SlotTracker18CreateMetadataSlotEPKNS_6MDNodeE
libbcc.so.0:_ZN4llvm11SlotTracker18createMetadataSlotEPKNS_6MDNodeE
libbcc.so.0:_ZN4llvm11SlotTracker21getAttributeGroupSlotENS_12AttributeSetE
libbcc.so.0:_ZN4llvm11SlotTracker22CreateAttributeSetSlotENS_12AttributeSetE
libbcc.so.0:_ZN4llvm11SlotTracker23initializeIndexIfNeededEv
libbcc.so.0:_ZN4llvm11SlotTracker23processFunctionMetadataERKNS_8FunctionE
libbcc.so.0:_ZN4llvm11SlotTracker26processInstructionMetadataERKNS_11InstructionE
libbcc.so.0:_ZN4llvm11SlotTracker27processGlobalObjectMetadataERKNS_12GlobalObjectE
libbcc.so.0:_ZN4llvm11SlotTrackerC1EPKNS_18ModuleSummaryIndexE
libbcc.so.0:_ZN4llvm11SlotTrackerC1EPKNS_6ModuleEb
libbcc.so.0:_ZN4llvm11SlotTrackerC1EPKNS_8FunctionEb
libbcc.so.0:_ZN4llvm11SlotTrackerC2EPKNS_18ModuleSummaryIndexE
libbcc.so.0:_ZN4llvm11SlotTrackerC2EPKNS_6ModuleEb
libbcc.so.0:_ZN4llvm11SlotTrackerC2EPKNS_8FunctionEb
libbcc.so.0:_ZN4llvm11SplitModuleERNS_6ModuleEjNS_12function_refIFvSt10unique_ptrIS0_St14default_deleteIS0_EEEEEb
libbcc.so.0:_ZN4llvm11SplitStringENS_9StringRefERNS_15SmallVectorImplIS0_EES0_
libbcc.so.0:_ZN4llvm11StringErrorC1ERKNS_5TwineESt10error_code
libbcc.so.0:_ZN4llvm11StringErrorC1ESt10error_codeRKNS_5TwineE
libbcc.so.0:_ZN4llvm11StringErrorC2ERKNS_5TwineESt10error_code
libbcc.so.0:_ZN4llvm11StringErrorC2ESt10error_codeRKNS_5TwineE
libbcc.so.0:_ZN4llvm11StringSaver4saveENS_9StringRefE
libbcc.so.0:_ZN4llvm11TypeBasedAA3runERNS_8FunctionERNS_15AnalysisManagerIS1_JEEE
libbcc.so.0:_ZN4llvm11VPBlockBase18getEntryBasicBlockEv
libbcc.so.0:_ZN4llvm11VPBlockBase20getExitingBasicBlockEv
libbcc.so.0:_ZN4llvm11VPBlockBase31getEnclosingBlockWithSuccessorsEv
libbcc.so.0:_ZN4llvm11VPBlockBase33getEnclosingBlockWithPredecessorsEv
libbcc.so.0:_ZN4llvm11VPBlockBase7getPlanEv
libbcc.so.0:_ZN4llvm11VPBlockBase7setPlanEPNS_5VPlanE
libbcc.so.0:_ZN4llvm11VPBlockBase9deleteCFGEPS0_
libbcc.so.0:_ZN4llvm11VPIntrinsic12getForOpcodeEj
libbcc.so.0:_ZN4llvm11VPIntrinsic12setMaskParamEPNS_5ValueE
libbcc.so.0:_ZN4llvm11VPIntrinsic13isVPIntrinsicEj
libbcc.so.0:_ZN4llvm11VPIntrinsic15getMaskParamPosEj
libbcc.so.0:_ZN4llvm11VPIntrinsic20setVectorLengthParamEPNS_5ValueE
libbcc.so.0:_ZN4llvm11VPIntrinsic21getMemoryDataParamPosEj
libbcc.so.0:_ZN4llvm11VPIntrinsic23getDeclarationForParamsEPNS_6ModuleEjPNS_4TypeENS_8ArrayRefIPNS_5ValueEEE
libbcc.so.0:_ZN4llvm11VPIntrinsic23getVectorLengthParamPosEj
libbcc.so.0:_ZN4llvm11VPIntrinsic24getFunctionalOpcodeForVPEj
libbcc.so.0:_ZN4llvm11VPIntrinsic24getMemoryPointerParamPosEj
libbcc.so.0:_ZN4llvm11VRegRenamer14doVRegRenamingERKSt3mapIjjSt4lessIjESaISt4pairIKjjEEE
libbcc.so.0:_ZN4llvm11VRegRenamer16getVRegRenameMapERKSt6vectorINS0_9NamedVRegESaIS2_EE
libbcc.so.0:_ZN4llvm11VRegRenamer16renameInstsInMBBEPNS_17MachineBasicBlockE
libbcc.so.0:_ZN4llvm11VRegRenamer21createVirtualRegisterEj
libbcc.so.0:_ZN4llvm11VRegRenamer24getInstructionOpcodeHashB5cxx11ERNS_12MachineInstrE
libbcc.so.0:_ZN4llvm11VRegRenamer34createVirtualRegisterWithLowerNameEjNS_9StringRefE
libbcc.so.0:_ZN4llvm11ValueMapper11mapConstantERKNS_8ConstantE
libbcc.so.0:_ZN4llvm11ValueMapper11mapMetadataERKNS_8MetadataE
libbcc.so.0:_ZN4llvm11ValueMapper13remapFunctionERNS_8FunctionE
libbcc.so.0:_ZN4llvm11ValueMapper16remapInstructionERNS_11InstructionE
libbcc.so.0:_ZN4llvm11ValueMapper21scheduleRemapFunctionERNS_8FunctionEj
libbcc.so.0:_ZN4llvm11ValueMapper22scheduleMapGlobalAliasERNS_11GlobalAliasERNS_8ConstantEj
libbcc.so.0:_ZN4llvm11ValueMapper22scheduleMapGlobalIFuncERNS_11GlobalIFuncERNS_8ConstantEj
libbcc.so.0:_ZN4llvm11ValueMapper28scheduleMapAppendingVariableERNS_14GlobalVariableEPNS_8ConstantEbNS_8ArrayRefIS4_EEj
libbcc.so.0:_ZN4llvm11ValueMapper28scheduleMapGlobalInitializerERNS_14GlobalVariableERNS_8ConstantEj
libbcc.so.0:_ZN4llvm11ValueMapper31registerAlternateMappingContextERNS_8ValueMapIPKNS_5ValueENS_14WeakTrackingVHENS_14ValueMapConfigIS4_NS_3sys10SmartMutexILb0EEEEEEEPNS_17ValueMaterializerE
libbcc.so.0:_ZN4llvm11ValueMapper8addFlagsENS_10RemapFlagsE
libbcc.so.0:_ZN4llvm11ValueMapper8mapValueERKNS_5ValueE
libbcc.so.0:_ZN4llvm11ValueMapper9mapMDNodeERKNS_6MDNodeE
libbcc.so.0:_ZN4llvm11ValueMapperC1ERNS_8ValueMapIPKNS_5ValueENS_14WeakTrackingVHENS_14ValueMapConfigIS4_NS_3sys10SmartMutexILb0EEEEEEENS_10RemapFlagsEPNS_20ValueMapTypeRemapperEPNS_17ValueMaterializerE
libbcc.so.0:_ZN4llvm11ValueMapperC2ERNS_8ValueMapIPKNS_5ValueENS_14WeakTrackingVHENS_14ValueMapConfigIS4_NS_3sys10SmartMutexILb0EEEEEEENS_10RemapFlagsEPNS_20ValueMapTypeRemapperEPNS_17ValueMaterializerE
libbcc.so.0:_ZN4llvm11ValueMapperD1Ev
libbcc.so.0:_ZN4llvm11ValueMapperD2Ev
libbcc.so.0:_ZN4llvm11biasPhysRegEPKNS_5SUnitEb
libbcc.so.0:_ZN4llvm11compression4zlib10uncompressENS_8ArrayRefIhEEPhRm
libbcc.so.0:_ZN4llvm11compression4zlib10uncompressENS_8ArrayRefIhEERNS_15SmallVectorImplIhEEm
libbcc.so.0:_ZN4llvm11compression4zlib11isAvailableEv
libbcc.so.0:_ZN4llvm11compression4zlib8compressENS_8ArrayRefIhEERNS_15SmallVectorImplIhEEi
libbcc.so.0:_ZN4llvm11compression4zstd10uncompressENS_8ArrayRefIhEEPhRm
libbcc.so.0:_ZN4llvm11compression4zstd10uncompressENS_8ArrayRefIhEERNS_15SmallVectorImplIhEEm
libbcc.so.0:_ZN4llvm11compression4zstd11isAvailableEv
libbcc.so.0:_ZN4llvm11compression4zstd8compressENS_8ArrayRefIhEERNS_15SmallVectorImplIhEEi
libbcc.so.0:_ZN4llvm11delinearizeERNS_15ScalarEvolutionEPKNS_4SCEVERNS_15SmallVectorImplIS4_EES7_S4_
libbcc.so.0:_ZN4llvm11emitMemCCpyEPNS_5ValueES1_S1_S1_RNS_13IRBuilderBaseEPKNS_17TargetLibraryInfoE
libbcc.so.0:_ZN4llvm11emitMemPCpyEPNS_5ValueES1_S1_RNS_13IRBuilderBaseERKNS_10DataLayoutEPKNS_17TargetLibraryInfoE
libbcc.so.0:_ZN4llvm11emitMemRChrEPNS_5ValueES1_S1_RNS_13IRBuilderBaseERKNS_10DataLayoutEPKNS_17TargetLibraryInfoE
libbcc.so.0:_ZN4llvm11emitPutCharEPNS_5ValueERNS_13IRBuilderBaseEPKNS_17TargetLibraryInfoE
libbcc.so.0:_ZN4llvm11emitSPrintfEPNS_5ValueES1_NS_8ArrayRefIS1_EERNS_13IRBuilderBaseEPKNS_17TargetLibraryInfoE
libbcc.so.0:_ZN4llvm11emitStpNCpyEPNS_5ValueES1_S1_RNS_13IRBuilderBaseEPKNS_17TargetLibraryInfoE
libbcc.so.0:_ZN4llvm11emitStrLCatEPNS_5ValueES1_S1_RNS_13IRBuilderBaseEPKNS_17TargetLibraryInfoE
libbcc.so.0:_ZN4llvm11emitStrLCpyEPNS_5ValueES1_S1_RNS_13IRBuilderBaseEPKNS_17TargetLibraryInfoE
libbcc.so.0:_ZN4llvm11emitStrNCatEPNS_5ValueES1_S1_RNS_13IRBuilderBaseEPKNS_17TargetLibraryInfoE
libbcc.so.0:_ZN4llvm11emitStrNCmpEPNS_5ValueES1_S1_RNS_13IRBuilderBaseERKNS_10DataLayoutEPKNS_17TargetLibraryInfoE
libbcc.so.0:_ZN4llvm11emitStrNCpyEPNS_5ValueES1_S1_RNS_13IRBuilderBaseEPKNS_17TargetLibraryInfoE
libbcc.so.0:_ZN4llvm11eraseInstrsENS_8ArrayRefIPNS_12MachineInstrEEERNS_19MachineRegisterInfoEPNS_20LostDebugLocObserverE
libbcc.so.0:_ZN4llvm11getICmpCodeENS_7CmpInst9PredicateE
libbcc.so.0:_ZN4llvm11getWeakLeftEPKNS_5SUnitEb
libbcc.so.0:_ZN4llvm11hoistRegionEPNS_15DomTreeNodeBaseINS_10BasicBlockEEEPNS_9AAResultsEPNS_8LoopInfoEPNS_13DominatorTreeEPNS_18BlockFrequencyInfoEPNS_17TargetLibraryInfoEPNS_4LoopERNS_16MemorySSAUpdaterEPNS_15ScalarEvolutionEPNS_17ICFLoopSafetyInfoERNS_21SinkAndHoistLICMFlagsEPNS_25OptimizationRemarkEmitterEbb
libbcc.so.0:_ZN4llvm11ms_demangle9Demangler10copyStringENS_16itanium_demangle10StringViewE
libbcc.so.0:_ZN4llvm11ms_demangle9Demangler12demangleTypeERNS_16itanium_demangle10StringViewENS0_19QualifierMangleModeE
libbcc.so.0:_ZN4llvm11ms_demangle9Demangler14demangleNumberERNS_16itanium_demangle10StringViewE
libbcc.so.0:_ZN4llvm11ms_demangle9Demangler14demangleSignedERNS_16itanium_demangle10StringViewE
libbcc.so.0:_ZN4llvm11ms_demangle9Demangler14memorizeStringENS_16itanium_demangle10StringViewE
libbcc.so.0:_ZN4llvm11ms_demangle9Demangler15demangleMD5NameERNS_16itanium_demangle10StringViewE
libbcc.so.0:_ZN4llvm11ms_demangle9Demangler16demangleUnsignedERNS_16itanium_demangle10StringViewE
libbcc.so.0:_ZN4llvm11ms_demangle9Demangler17demangleArrayTypeERNS_16itanium_demangle10StringViewE
libbcc.so.0:_ZN4llvm11ms_demangle9Demangler17demangleClassTypeERNS_16itanium_demangle10StringViewE
libbcc.so.0:_ZN4llvm11ms_demangle9Demangler18demangleCustomTypeERNS_16itanium_demangle10StringViewE
libbcc.so.0:_ZN4llvm11ms_demangle9Demangler18demangleDeclaratorERNS_16itanium_demangle10StringViewE
libbcc.so.0:_ZN4llvm11ms_demangle9Demangler18demangleQualifiersERNS_16itanium_demangle10StringViewE
libbcc.so.0:_ZN4llvm11ms_demangle9Demangler18demangleSimpleNameERNS_16itanium_demangle10StringViewEb
libbcc.so.0:_ZN4llvm11ms_demangle9Demangler18dumpBackReferencesEv
libbcc.so.0:_ZN4llvm11ms_demangle9Demangler18memorizeIdentifierEPNS0_14IdentifierNodeE
libbcc.so.0:_ZN4llvm11ms_demangle9Demangler18parseTagUniqueNameERNS_16itanium_demangle10StringViewE
libbcc.so.0:_ZN4llvm11ms_demangle9Demangler19demangleBackRefNameERNS_16itanium_demangle10StringViewE
libbcc.so.0:_ZN4llvm11ms_demangle9Demangler19demangleCharLiteralERNS_16itanium_demangle10StringViewE
libbcc.so.0:_ZN4llvm11ms_demangle9Demangler19demanglePointerTypeERNS_16itanium_demangle10StringViewE
libbcc.so.0:_ZN4llvm11ms_demangle9Demangler20demangleFunctionTypeERNS_16itanium_demangle10StringViewEb
libbcc.so.0:_ZN4llvm11ms_demangle9Demangler20demangleInitFiniStubERNS_16itanium_demangle10StringViewEb
libbcc.so.0:_ZN4llvm11ms_demangle9Demangler20demangleSimpleStringERNS_16itanium_demangle10StringViewEb
libbcc.so.0:_ZN4llvm11ms_demangle9Demangler20demangleTypeinfoNameERNS_16itanium_demangle10StringViewE
libbcc.so.0:_ZN4llvm11ms_demangle9Demangler20demangleWcharLiteralERNS_16itanium_demangle10StringViewE
libbcc.so.0:_ZN4llvm11ms_demangle9Demangler21demangleEncodedSymbolERNS_16itanium_demangle10StringViewEPNS0_17QualifiedNameNodeE
libbcc.so.0:_ZN4llvm11ms_demangle9Demangler21demangleFunctionClassERNS_16itanium_demangle10StringViewE
libbcc.so.0:_ZN4llvm11ms_demangle9Demangler21demanglePrimitiveTypeERNS_16itanium_demangle10StringViewE
libbcc.so.0:_ZN4llvm11ms_demangle9Demangler21demangleStringLiteralERNS_16itanium_demangle10StringViewE
libbcc.so.0:_ZN4llvm11ms_demangle9Demangler22demangleNameScopeChainERNS_16itanium_demangle10StringViewEPNS0_14IdentifierNodeE
libbcc.so.0:_ZN4llvm11ms_demangle9Demangler22demangleNameScopePieceERNS_16itanium_demangle10StringViewE
libbcc.so.0:_ZN4llvm11ms_demangle9Demangler22demangleVcallThunkNodeERNS_16itanium_demangle10StringViewE
libbcc.so.0:_ZN4llvm11ms_demangle9Demangler23demangleUntypedVariableERNS0_14ArenaAllocatorERNS_16itanium_demangle10StringViewES5_
libbcc.so.0:_ZN4llvm11ms_demangle9Demangler24demangleFunctionEncodingERNS_16itanium_demangle10StringViewE
libbcc.so.0:_ZN4llvm11ms_demangle9Demangler24demangleLocalStaticGuardERNS_16itanium_demangle10StringViewEb
libbcc.so.0:_ZN4llvm11ms_demangle9Demangler24demangleSpecialIntrinsicERNS_16itanium_demangle10StringViewE
libbcc.so.0:_ZN4llvm11ms_demangle9Demangler24demangleVariableEncodingERNS_16itanium_demangle10StringViewENS0_12StorageClassE
libbcc.so.0:_ZN4llvm11ms_demangle9Demangler25demangleCallingConventionERNS_16itanium_demangle10StringViewE
libbcc.so.0:_ZN4llvm11ms_demangle9Demangler25demangleMemberPointerTypeERNS_16itanium_demangle10StringViewE
libbcc.so.0:_ZN4llvm11ms_demangle9Demangler26demangleStructorIdentifierERNS_16itanium_demangle10StringViewEb
libbcc.so.0:_ZN4llvm11ms_demangle9Demangler26demangleThrowSpecificationERNS_16itanium_demangle10StringViewE
libbcc.so.0:_ZN4llvm11ms_demangle9Demangler27demangleUnqualifiedTypeNameERNS_16itanium_demangle10StringViewEb
libbcc.so.0:_ZN4llvm11ms_demangle9Demangler28demanglePointerExtQualifiersERNS_16itanium_demangle10StringViewE
libbcc.so.0:_ZN4llvm11ms_demangle9Demangler28demangleVariableStorageClassERNS_16itanium_demangle10StringViewE
libbcc.so.0:_ZN4llvm11ms_demangle9Demangler29demangleFunctionParameterListERNS_16itanium_demangle10StringViewERb
libbcc.so.0:_ZN4llvm11ms_demangle9Demangler29demangleTemplateParameterListERNS_16itanium_demangle10StringViewE
libbcc.so.0:_ZN4llvm11ms_demangle9Demangler29demangleUnqualifiedSymbolNameERNS_16itanium_demangle10StringViewENS0_19NameBackrefBehaviorE
libbcc.so.0:_ZN4llvm11ms_demangle9Demangler30demangleAnonymousNamespaceNameERNS_16itanium_demangle10StringViewE
libbcc.so.0:_ZN4llvm11ms_demangle9Demangler30demangleFullyQualifiedTypeNameERNS_16itanium_demangle10StringViewE
libbcc.so.0:_ZN4llvm11ms_demangle9Demangler30demangleFunctionIdentifierCodeERNS_16itanium_demangle10StringViewE
libbcc.so.0:_ZN4llvm11ms_demangle9Demangler30demangleFunctionIdentifierCodeERNS_16itanium_demangle10StringViewENS0_27FunctionIdentifierCodeGroupE
libbcc.so.0:_ZN4llvm11ms_demangle9Demangler30demangleLocallyScopedNamePieceERNS_16itanium_demangle10StringViewE
libbcc.so.0:_ZN4llvm11ms_demangle9Demangler30demangleSpecialTableSymbolNodeERNS_16itanium_demangle10StringViewENS0_20SpecialIntrinsicKindE
libbcc.so.0:_ZN4llvm11ms_demangle9Demangler30translateIntrinsicFunctionCodeEcNS0_27FunctionIdentifierCodeGroupE
libbcc.so.0:_ZN4llvm11ms_demangle9Demangler32demangleFullyQualifiedSymbolNameERNS_16itanium_demangle10StringViewE
libbcc.so.0:_ZN4llvm11ms_demangle9Demangler33demangleLiteralOperatorIdentifierERNS_16itanium_demangle10StringViewE
libbcc.so.0:_ZN4llvm11ms_demangle9Demangler33demangleTemplateInstantiationNameERNS_16itanium_demangle10StringViewENS0_19NameBackrefBehaviorE
libbcc.so.0:_ZN4llvm11ms_demangle9Demangler35demangleRttiBaseClassDescriptorNodeERNS0_14ArenaAllocatorERNS_16itanium_demangle10StringViewE
libbcc.so.0:_ZN4llvm11ms_demangle9Demangler36demangleConversionOperatorIdentifierERNS_16itanium_demangle10StringViewE
libbcc.so.0:_ZN4llvm11ms_demangle9Demangler5parseERNS_16itanium_demangle10StringViewE
libbcc.so.0:_ZN4llvm11promoteCallERNS_8CallBaseEPNS_8FunctionEPPNS_8CastInstE
libbcc.so.0:_ZN4llvm11raw_ostream10resetColorEv
libbcc.so.0:_ZN4llvm11raw_ostream10write_uuidEPKh
libbcc.so.0:_ZN4llvm11raw_ostream11SetBufferedEv
libbcc.so.0:_ZN4llvm11raw_ostream11changeColorENS0_6ColorsEbb
libbcc.so.0:_ZN4llvm11raw_ostream11write_zerosEj
libbcc.so.0:_ZN4llvm11raw_ostream12reverseColorEv
libbcc.so.0:_ZN4llvm11raw_ostream13write_escapedENS_9StringRefEb
libbcc.so.0:_ZN4llvm11raw_ostream14copy_to_bufferEPKcm
libbcc.so.0:_ZN4llvm11raw_ostream14flush_nonemptyEv
libbcc.so.0:_ZN4llvm11raw_ostream14prepare_colorsEv
libbcc.so.0:_ZN4llvm11raw_ostream16SetBufferAndModeEPcmNS0_10BufferKindE
libbcc.so.0:_ZN4llvm11raw_ostream21flush_tied_then_writeEPKcm
libbcc.so.0:_ZN4llvm11raw_ostream5writeEPKcm
libbcc.so.0:_ZN4llvm11raw_ostream5writeEh
libbcc.so.0:_ZN4llvm11raw_ostream6anchorEv
libbcc.so.0:_ZN4llvm11raw_ostream6indentEj
libbcc.so.0:_ZN4llvm11raw_ostream9write_hexEy
libbcc.so.0:_ZN4llvm11raw_ostreamD0Ev
libbcc.so.0:_ZN4llvm11raw_ostreamD1Ev
libbcc.so.0:_ZN4llvm11raw_ostreamD2Ev
libbcc.so.0:_ZN4llvm11raw_ostreamlsENS0_6ColorsE
libbcc.so.0:_ZN4llvm11raw_ostreamlsEPKv
libbcc.so.0:_ZN4llvm11raw_ostreamlsERKNS_14FormattedBytesE
libbcc.so.0:_ZN4llvm11raw_ostreamlsERKNS_15FormattedNumberE
libbcc.so.0:_ZN4llvm11raw_ostreamlsERKNS_15FormattedStringE
libbcc.so.0:_ZN4llvm11raw_ostreamlsERKNS_18format_object_baseE
libbcc.so.0:_ZN4llvm11raw_ostreamlsERKNS_19formatv_object_baseE
libbcc.so.0:_ZN4llvm11raw_ostreamlsEd
libbcc.so.0:_ZN4llvm11raw_ostreamlsEl
libbcc.so.0:_ZN4llvm11raw_ostreamlsEm
libbcc.so.0:_ZN4llvm11raw_ostreamlsEx
libbcc.so.0:_ZN4llvm11raw_ostreamlsEy
libbcc.so.0:_ZN4llvm11reassociate7XorOpndC1EPNS_5ValueE
libbcc.so.0:_ZN4llvm11reassociate7XorOpndC2EPNS_5ValueE
libbcc.so.0:_ZN4llvm11simplifyCFGEPNS_10BasicBlockERKNS_19TargetTransformInfoEPNS_14DomTreeUpdaterERKNS_18SimplifyCFGOptionsENS_8ArrayRefINS_6WeakVHEEE
libbcc.so.0:_ZN4llvm11tryPressureERKNS_14PressureChangeES2_RNS_20GenericSchedulerBase14SchedCandidateES5_NS3_10CandReasonEPKNS_18TargetRegisterInfoERKNS_15MachineFunctionE
libbcc.so.0:_ZN4llvm12AAWillReturn17createForPositionERKNS_10IRPositionERNS_10AttributorE
libbcc.so.0:_ZN4llvm12APFixedPoint15getFromIntValueERKNS_6APSIntERKNS_19FixedPointSemanticsEPb
libbcc.so.0:_ZN4llvm12APFixedPoint17getFromFloatValueERKNS_7APFloatERKNS_19FixedPointSemanticsEPb
libbcc.so.0:_ZN4llvm12APFixedPoint21promoteFloatSemanticsEPKNS_12fltSemanticsE
libbcc.so.0:_ZN4llvm12APFixedPoint6getMaxERKNS_19FixedPointSemanticsE
libbcc.so.0:_ZN4llvm12APFixedPoint6getMinERKNS_19FixedPointSemanticsE
libbcc.so.0:_ZN4llvm12AddrLabelMap18UpdateForRAUWBlockEPNS_10BasicBlockES2_
libbcc.so.0:_ZN4llvm12AddrLabelMap21UpdateForDeletedBlockEPNS_10BasicBlockE
libbcc.so.0:_ZN4llvm12AddrLabelMap24getAddrLabelSymbolToEmitEPNS_10BasicBlockE
libbcc.so.0:_ZN4llvm12AddrLabelMap29takeDeletedSymbolsForFunctionEPNS_8FunctionERSt6vectorIPNS_8MCSymbolESaIS5_EE
libbcc.so.0:_ZN4llvm12AttributeSet3getERNS_11LLVMContextENS_8ArrayRefINS_9AttributeEEE
libbcc.so.0:_ZN4llvm12AttributeSet3getERNS_11LLVMContextERKNS_11AttrBuilderE
libbcc.so.0:_ZN4llvm12BasicTTIImplC1EPKNS_13TargetMachineERKNS_8FunctionE
libbcc.so.0:_ZN4llvm12BasicTTIImplC2EPKNS_13TargetMachineERKNS_8FunctionE
libbcc.so.0:_ZN4llvm12BlockAddress19destroyConstantImplEv
libbcc.so.0:_ZN4llvm12BlockAddress23handleOperandChangeImplEPNS_5ValueES2_
libbcc.so.0:_ZN4llvm12BlockAddress3getEPNS_10BasicBlockE
libbcc.so.0:_ZN4llvm12BlockAddress3getEPNS_8FunctionEPNS_10BasicBlockE
libbcc.so.0:_ZN4llvm12BlockAddress6lookupEPKNS_10BasicBlockE
libbcc.so.0:_ZN4llvm12BlockAddressC1EPNS_8FunctionEPNS_10BasicBlockE
libbcc.so.0:_ZN4llvm12BlockAddressC2EPNS_8FunctionEPNS_10BasicBlockE
libbcc.so.0:_ZN4llvm12CallGraphSCC10DeleteNodeEPNS_13CallGraphNodeE
libbcc.so.0:_ZN4llvm12CallGraphSCC11ReplaceNodeEPNS_13CallGraphNodeES2_
libbcc.so.0:_ZN4llvm12CallLowering12ValueHandler14extendRegisterENS_8RegisterERNS_11CCValAssignEj
libbcc.so.0:_ZN4llvm12CallLowering13ValueAssigner6anchorEv
libbcc.so.0:_ZN4llvm12CallLowering20IncomingValueHandler16assignValueToRegENS_8RegisterES2_NS_11CCValAssignE
libbcc.so.0:_ZN4llvm12CallLowering20IncomingValueHandler18buildExtensionHintERNS_11CCValAssignENS_8RegisterENS_3LLTE
libbcc.so.0:_ZN4llvm12CallLowering6anchorEv
libbcc.so.0:_ZN4llvm12ConstantExpr10getAlignOfEPNS_4TypeE
libbcc.so.0:_ZN4llvm12ConstantExpr10getBitCastEPNS_8ConstantEPNS_4TypeEb
libbcc.so.0:_ZN4llvm12ConstantExpr10getCompareEtPNS_8ConstantES2_b
libbcc.so.0:_ZN4llvm12ConstantExpr10getFPTruncEPNS_8ConstantEPNS_4TypeEb
libbcc.so.0:_ZN4llvm12ConstantExpr11getFPExtendEPNS_8ConstantEPNS_4TypeEb
libbcc.so.0:_ZN4llvm12ConstantExpr11getIntToPtrEPNS_8ConstantEPNS_4TypeEb
libbcc.so.0:_ZN4llvm12ConstantExpr11getOffsetOfEPNS_10StructTypeEj
libbcc.so.0:_ZN4llvm12ConstantExpr11getOffsetOfEPNS_4TypeEPNS_8ConstantE
libbcc.so.0:_ZN4llvm12ConstantExpr11getPtrToIntEPNS_8ConstantEPNS_4TypeEb
libbcc.so.0:_ZN4llvm12ConstantExpr14getIntegerCastEPNS_8ConstantEPNS_4TypeEb
libbcc.so.0:_ZN4llvm12ConstantExpr14getPointerCastEPNS_8ConstantEPNS_4TypeE
libbcc.so.0:_ZN4llvm12ConstantExpr14getSExtOrTruncEPNS_8ConstantEPNS_4TypeE
libbcc.so.0:_ZN4llvm12ConstantExpr16getAddrSpaceCastEPNS_8ConstantEPNS_4TypeEb
libbcc.so.0:_ZN4llvm12ConstantExpr16getBinOpAbsorberEjPNS_4TypeE
libbcc.so.0:_ZN4llvm12ConstantExpr16getBinOpIdentityEjPNS_4TypeEbb
libbcc.so.0:_ZN4llvm12ConstantExpr16getExactLogBase2EPNS_8ConstantE
libbcc.so.0:_ZN4llvm12ConstantExpr16getGetElementPtrEPNS_4TypeEPNS_8ConstantENS_8ArrayRefIPNS_5ValueEEEbNS_8OptionalIjEES2_
libbcc.so.0:_ZN4llvm12ConstantExpr16getInsertElementEPNS_8ConstantES2_S2_PNS_4TypeE
libbcc.so.0:_ZN4llvm12ConstantExpr16getSExtOrBitCastEPNS_8ConstantEPNS_4TypeE
libbcc.so.0:_ZN4llvm12ConstantExpr16getShuffleVectorEPNS_8ConstantES2_NS_8ArrayRefIiEEPNS_4TypeE
libbcc.so.0:_ZN4llvm12ConstantExpr16getZExtOrBitCastEPNS_8ConstantEPNS_4TypeE
libbcc.so.0:_ZN4llvm12ConstantExpr16isDesirableBinOpEj
libbcc.so.0:_ZN4llvm12ConstantExpr16isSupportedBinOpEj
libbcc.so.0:_ZN4llvm12ConstantExpr17getExtractElementEPNS_8ConstantES2_PNS_4TypeE
libbcc.so.0:_ZN4llvm12ConstantExpr17getTruncOrBitCastEPNS_8ConstantEPNS_4TypeE
libbcc.so.0:_ZN4llvm12ConstantExpr19destroyConstantImplEv
libbcc.so.0:_ZN4llvm12ConstantExpr23handleOperandChangeImplEPNS_5ValueES2_
libbcc.so.0:_ZN4llvm12ConstantExpr32getPointerBitCastOrAddrSpaceCastEPNS_8ConstantEPNS_4TypeE
libbcc.so.0:_ZN4llvm12ConstantExpr3getEjPNS_8ConstantES2_jPNS_4TypeE
libbcc.so.0:_ZN4llvm12ConstantExpr3getEjPNS_8ConstantEjPNS_4TypeE
libbcc.so.0:_ZN4llvm12ConstantExpr5getOrEPNS_8ConstantES2_
libbcc.so.0:_ZN4llvm12ConstantExpr6getAddEPNS_8ConstantES2_bb
libbcc.so.0:_ZN4llvm12ConstantExpr6getAndEPNS_8ConstantES2_
libbcc.so.0:_ZN4llvm12ConstantExpr6getMulEPNS_8ConstantES2_bb
libbcc.so.0:_ZN4llvm12ConstantExpr6getNegEPNS_8ConstantEbb
libbcc.so.0:_ZN4llvm12ConstantExpr6getNotEPNS_8ConstantE
libbcc.so.0:_ZN4llvm12ConstantExpr6getShlEPNS_8ConstantES2_bb
libbcc.so.0:_ZN4llvm12ConstantExpr6getSubEPNS_8ConstantES2_bb
libbcc.so.0:_ZN4llvm12ConstantExpr6getXorEPNS_8ConstantES2_
libbcc.so.0:_ZN4llvm12ConstantExpr7getAShrEPNS_8ConstantES2_b
libbcc.so.0:_ZN4llvm12ConstantExpr7getCastEjPNS_8ConstantEPNS_4TypeEb
libbcc.so.0:_ZN4llvm12ConstantExpr7getFCmpEtPNS_8ConstantES2_b
libbcc.so.0:_ZN4llvm12ConstantExpr7getFNegEPNS_8ConstantE
libbcc.so.0:_ZN4llvm12ConstantExpr7getICmpEtPNS_8ConstantES2_b
libbcc.so.0:_ZN4llvm12ConstantExpr7getLShrEPNS_8ConstantES2_b
libbcc.so.0:_ZN4llvm12ConstantExpr7getSExtEPNS_8ConstantEPNS_4TypeEb
libbcc.so.0:_ZN4llvm12ConstantExpr7getUMinEPNS_8ConstantES2_
libbcc.so.0:_ZN4llvm12ConstantExpr7getZExtEPNS_8ConstantEPNS_4TypeEb
libbcc.so.0:_ZN4llvm12ConstantExpr8getTruncEPNS_8ConstantEPNS_4TypeEb
libbcc.so.0:_ZN4llvm12ConstantExpr9getFPCastEPNS_8ConstantEPNS_4TypeE
libbcc.so.0:_ZN4llvm12ConstantExpr9getFPToSIEPNS_8ConstantEPNS_4TypeEb
libbcc.so.0:_ZN4llvm12ConstantExpr9getFPToUIEPNS_8ConstantEPNS_4TypeEb
libbcc.so.0:_ZN4llvm12ConstantExpr9getSIToFPEPNS_8ConstantEPNS_4TypeEb
libbcc.so.0:_ZN4llvm12ConstantExpr9getSelectEPNS_8ConstantES2_S2_PNS_4TypeE
libbcc.so.0:_ZN4llvm12ConstantExpr9getSizeOfEPNS_4TypeE
libbcc.so.0:_ZN4llvm12ConstantExpr9getUIToFPEPNS_8ConstantEPNS_4TypeEb
libbcc.so.0:_ZN4llvm12DIEAbbrevSet18uniqueAbbreviationERNS_3DIEE
libbcc.so.0:_ZN4llvm12DIEAbbrevSetD1Ev
libbcc.so.0:_ZN4llvm12DIEAbbrevSetD2Ev
libbcc.so.0:_ZN4llvm12DIEnumerator7getImplERNS_11LLVMContextERKNS_5APIntEbPNS_8MDStringENS_8Metadata11StorageTypeEb
libbcc.so.0:_ZN4llvm12DIEnumeratorC1ERNS_11LLVMContextENS_8Metadata11StorageTypeERKNS_5APIntEbNS_8ArrayRefIPS3_EE
libbcc.so.0:_ZN4llvm12DIEnumeratorC2ERNS_11LLVMContextENS_8Metadata11StorageTypeERKNS_5APIntEbNS_8ArrayRefIPS3_EE
libbcc.so.0:_ZN4llvm12DIExpression10replaceArgEPKS0_mm
libbcc.so.0:_ZN4llvm12DIExpression12appendOffsetERNS_15SmallVectorImplImEEl
libbcc.so.0:_ZN4llvm12DIExpression12constantFoldEPKNS_11ConstantIntE
libbcc.so.0:_ZN4llvm12DIExpression13appendToStackEPKS0_NS_8ArrayRefImEE
libbcc.so.0:_ZN4llvm12DIExpression14appendOpsToArgEPKS0_NS_8ArrayRefImEEjb
libbcc.so.0:_ZN4llvm12DIExpression14prependOpcodesEPKS0_RNS_15SmallVectorImplImEEbb
libbcc.so.0:_ZN4llvm12DIExpression15getFragmentInfoENS0_16expr_op_iteratorES1_
libbcc.so.0:_ZN4llvm12DIExpression19extractAddressClassEPKS0_Rj
libbcc.so.0:_ZN4llvm12DIExpression24createFragmentExpressionEPKS0_jj
libbcc.so.0:_ZN4llvm12DIExpression6appendEPKS0_NS_8ArrayRefImEE
libbcc.so.0:_ZN4llvm12DIExpression7getImplERNS_11LLVMContextENS_8ArrayRefImEENS_8Metadata11StorageTypeEb
libbcc.so.0:_ZN4llvm12DIExpression7prependEPKS0_hl
libbcc.so.0:_ZN4llvm12DIExpression9appendExtEPKS0_jjb
libbcc.so.0:_ZN4llvm12DIExpression9getExtOpsEjjb
libbcc.so.0:_ZN4llvm12DIStringType7getImplERNS_11LLVMContextEjPNS_8MDStringEPNS_8MetadataES6_S6_mjjNS5_11StorageTypeEb
libbcc.so.0:_ZN4llvm12DISubprogram10splitFlagsENS0_9DISPFlagsERNS_15SmallVectorImplIS1_EE
libbcc.so.0:_ZN4llvm12DISubprogram13getFlagStringENS0_9DISPFlagsE
libbcc.so.0:_ZN4llvm12DISubprogram7getFlagENS_9StringRefE
libbcc.so.0:_ZN4llvm12DISubprogram7getImplERNS_11LLVMContextEPNS_8MetadataEPNS_8MDStringES6_S4_jS4_jS4_jiNS_6DINode7DIFlagsENS0_9DISPFlagsES4_S4_S4_S4_S4_S4_S6_NS3_11StorageTypeEb
libbcc.so.0:_ZN4llvm12DISubprogram9toSPFlagsEbbbjb
libbcc.so.0:_ZN4llvm12DISubprogramC1ERNS_11LLVMContextENS_8Metadata11StorageTypeEjjjiNS_6DINode7DIFlagsENS0_9DISPFlagsENS_8ArrayRefIPS3_EE
libbcc.so.0:_ZN4llvm12DISubprogramC2ERNS_11LLVMContextENS_8Metadata11StorageTypeEjjjiNS_6DINode7DIFlagsENS0_9DISPFlagsENS_8ArrayRefIPS3_EE
libbcc.so.0:_ZN4llvm12DebugCounter8instanceEv
libbcc.so.0:_ZN4llvm12DebugCounter9push_backERKNSt7__cxx1112basic_stringIcSt11char_traitsIcESaIcEEE
libbcc.so.0:_ZN4llvm12DebugCounterD1Ev
libbcc.so.0:_ZN4llvm12DebugCounterD2Ev
libbcc.so.0:_ZN4llvm12DemandedBits15getDemandedBitsEPNS_11InstructionE
libbcc.so.0:_ZN4llvm12DemandedBits15getDemandedBitsEPNS_3UseE
libbcc.so.0:_ZN4llvm12DemandedBits15performAnalysisEv
libbcc.so.0:_ZN4llvm12DemandedBits17isInstructionDeadEPNS_11InstructionE
libbcc.so.0:_ZN4llvm12DemandedBits24determineLiveOperandBitsEPKNS_11InstructionEPKNS_5ValueEjRKNS_5APIntERS7_RNS_9KnownBitsESC_Rb
libbcc.so.0:_ZN4llvm12DemandedBits27determineLiveOperandBitsAddEjRKNS_5APIntERKNS_9KnownBitsES6_
libbcc.so.0:_ZN4llvm12DemandedBits27determineLiveOperandBitsSubEjRKNS_5APIntERKNS_9KnownBitsES6_
libbcc.so.0:_ZN4llvm12DemandedBits5printERNS_11raw_ostreamE
libbcc.so.0:_ZN4llvm12DemandedBits9isUseDeadEPNS_3UseE
libbcc.so.0:_ZN4llvm12DenseMapInfoINS_5APIntEvE12getHashValueERKS1_
libbcc.so.0:_ZN4llvm12DenseMapInfoINS_9StringRefEvE12getHashValueES1_
libbcc.so.0:_ZN4llvm12DisplayGraphENS_9StringRefEbNS_12GraphProgram4NameE
libbcc.so.0:_ZN4llvm12EarlyCSEPass13printPipelineERNS_11raw_ostreamENS_12function_refIFNS_9StringRefES4_EEE
libbcc.so.0:_ZN4llvm12EarlyCSEPass3runERNS_8FunctionERNS_15AnalysisManagerIS1_JEEE
libbcc.so.0:_ZN4llvm12FunctionPass17assignPassManagerERNS_7PMStackENS_15PassManagerTypeE
libbcc.so.0:_ZN4llvm12FunctionType17isValidReturnTypeEPNS_4TypeE
libbcc.so.0:_ZN4llvm12FunctionType19isValidArgumentTypeEPNS_4TypeE
libbcc.so.0:_ZN4llvm12FunctionType3getEPNS_4TypeENS_8ArrayRefIS2_EEb
libbcc.so.0:_ZN4llvm12FunctionType3getEPNS_4TypeEb
libbcc.so.0:_ZN4llvm12FunctionTypeC1EPNS_4TypeENS_8ArrayRefIS2_EEb
libbcc.so.0:_ZN4llvm12FunctionTypeC2EPNS_4TypeENS_8ArrayRefIS2_EEb
libbcc.so.0:_ZN4llvm12GCModuleInfo13getGCStrategyENS_9StringRefE
libbcc.so.0:_ZN4llvm12GCModuleInfo15getFunctionInfoERKNS_8FunctionE
libbcc.so.0:_ZN4llvm12GCModuleInfo5clearEv
libbcc.so.0:_ZN4llvm12GCModuleInfoC1Ev
libbcc.so.0:_ZN4llvm12GCModuleInfoC2Ev
libbcc.so.0:_ZN4llvm12GISelCSEInfo10insertNodeEPNS_18UniqueMachineInstrEPv
libbcc.so.0:_ZN4llvm12GISelCSEInfo11insertInstrEPNS_12MachineInstrEPv
libbcc.so.0:_ZN4llvm12GISelCSEInfo12changedInstrERNS_12MachineInstrE
libbcc.so.0:_ZN4llvm12GISelCSEInfo12createdInstrERNS_12MachineInstrE
libbcc.so.0:_ZN4llvm12GISelCSEInfo12erasingInstrERNS_12MachineInstrE
libbcc.so.0:_ZN4llvm12GISelCSEInfo13changingInstrERNS_12MachineInstrE
libbcc.so.0:_ZN4llvm12GISelCSEInfo13releaseMemoryEv
libbcc.so.0:_ZN4llvm12GISelCSEInfo14countOpcodeHitEj
libbcc.so.0:_ZN4llvm12GISelCSEInfo15getNodeIfExistsERNS_16FoldingSetNodeIDEPNS_17MachineBasicBlockERPv
libbcc.so.0:_ZN4llvm12GISelCSEInfo16handleRemoveInstEPNS_12MachineInstrE
libbcc.so.0:_ZN4llvm12GISelCSEInfo18handleRecordedInstEPNS_12MachineInstrE
libbcc.so.0:_ZN4llvm12GISelCSEInfo19getUniqueInstrForMIEPKNS_12MachineInstrE
libbcc.so.0:_ZN4llvm12GISelCSEInfo19handleRecordedInstsEv
libbcc.so.0:_ZN4llvm12GISelCSEInfo20recordNewInstructionEPNS_12MachineInstrE
libbcc.so.0:_ZN4llvm12GISelCSEInfo23getMachineInstrIfExistsERNS_16FoldingSetNodeIDEPNS_17MachineBasicBlockERPv
libbcc.so.0:_ZN4llvm12GISelCSEInfo28invalidateUniqueMachineInstrEPNS_18UniqueMachineInstrE
libbcc.so.0:_ZN4llvm12GISelCSEInfo5printEv
libbcc.so.0:_ZN4llvm12GISelCSEInfo5setMFERNS_15MachineFunctionE
libbcc.so.0:_ZN4llvm12GISelCSEInfo6verifyEv
libbcc.so.0:_ZN4llvm12GISelCSEInfo7analyzeERNS_15MachineFunctionE
libbcc.so.0:_ZN4llvm12GISelCSEInfoD0Ev
libbcc.so.0:_ZN4llvm12GISelCSEInfoD1Ev
libbcc.so.0:_ZN4llvm12GISelCSEInfoD2Ev
libbcc.so.0:_ZN4llvm12GVNHoistPass3runERNS_8FunctionERNS_15AnalysisManagerIS1_JEEE
libbcc.so.0:_ZN4llvm12GlobalObject10setSectionENS_9StringRefE
libbcc.so.0:_ZN4llvm12GlobalObject12copyMetadataEPKS0_j
libbcc.so.0:_ZN4llvm12GlobalObject12setAlignmentENS_10MaybeAlignE
libbcc.so.0:_ZN4llvm12GlobalObject15addTypeMetadataEjPNS_8MetadataE
libbcc.so.0:_ZN4llvm12GlobalObject18copyAttributesFromEPKS0_
libbcc.so.0:_ZN4llvm12GlobalObject26setVCallVisibilityMetadataENS0_15VCallVisibilityE
libbcc.so.0:_ZN4llvm12GlobalObject9setComdatEPNS_6ComdatE
libbcc.so.0:_ZN4llvm12GlobalObjectD1Ev
libbcc.so.0:_ZN4llvm12GlobalObjectD2Ev
libbcc.so.0:_ZN4llvm12GlobalStatus13analyzeGlobalEPKNS_5ValueERS0_
libbcc.so.0:_ZN4llvm12GlobalStatusC1Ev
libbcc.so.0:_ZN4llvm12GlobalStatusC2Ev
libbcc.so.0:_ZN4llvm12HandleSDNodeD1Ev
libbcc.so.0:_ZN4llvm12HandleSDNodeD2Ev
libbcc.so.0:_ZN4llvm12IRSimilarity17IRInstructionData13setCalleeNameEb
libbcc.so.0:_ZN4llvm12IRSimilarity17IRInstructionData18setPHIPredecessorsERNS_8DenseMapIPNS_10BasicBlockEjNS_12DenseMapInfoIS4_vEENS_6detail12DenseMapPairIS4_jEEEE
libbcc.so.0:_ZN4llvm12IRSimilarity17IRInstructionData19setBranchSuccessorsERNS_8DenseMapIPNS_10BasicBlockEjNS_12DenseMapInfoIS4_vEENS_6detail12DenseMapPairIS4_jEEEE
libbcc.so.0:_ZN4llvm12IRSimilarity17IRInstructionData21initializeInstructionEv
libbcc.so.0:_ZN4llvm12IRSimilarity17IRInstructionData23predicateForConsistencyEPNS_7CmpInstE
libbcc.so.0:_ZN4llvm12IRSimilarity17IRInstructionDataC1ERNS0_21IRInstructionDataListE
libbcc.so.0:_ZN4llvm12IRSimilarity17IRInstructionDataC1ERNS_11InstructionEbRNS0_21IRInstructionDataListE
libbcc.so.0:_ZN4llvm12IRSimilarity17IRInstructionDataC2ERNS0_21IRInstructionDataListE
libbcc.so.0:_ZN4llvm12IRSimilarity17IRInstructionDataC2ERNS_11InstructionEbRNS0_21IRInstructionDataListE
libbcc.so.0:_ZN4llvm12IRSimilarity19IRInstructionMapper18mapToLegalUnsignedERNS_14ilist_iteratorINS_12ilist_detail12node_optionsINS_11InstructionELb0ELb0EvEELb0ELb0EEERSt6vectorIjSaIjEERS9_IPNS0_17IRInstructionDataESaISE_EE
libbcc.so.0:_ZN4llvm12IRSimilarity19IRInstructionMapper20convertToUnsignedVecERNS_10BasicBlockERSt6vectorIPNS0_17IRInstructionDataESaIS6_EERS4_IjSaIjEE
libbcc.so.0:_ZN4llvm12IRSimilarity19IRInstructionMapper20mapToIllegalUnsignedERNS_14ilist_iteratorINS_12ilist_detail12node_optionsINS_11InstructionELb0ELb0EvEELb0ELb0EEERSt6vectorIjSaIjEERS9_IPNS0_17IRInstructionDataESaISE_EEb
libbcc.so.0:_ZN4llvm12IRSimilarity19IRInstructionMapper25allocateIRInstructionDataERNS0_21IRInstructionDataListE
libbcc.so.0:_ZN4llvm12IRSimilarity19IRInstructionMapper25allocateIRInstructionDataERNS_11InstructionEbRNS0_21IRInstructionDataListE
libbcc.so.0:_ZN4llvm12IRSimilarity19IRInstructionMapper29allocateIRInstructionDataListEv
libbcc.so.0:_ZN4llvm12IRSimilarity21IRSimilarityCandidate16compareStructureERKS1_S3_
libbcc.so.0:_ZN4llvm12IRSimilarity21IRSimilarityCandidate16compareStructureERKS1_S3_RNS_8DenseMapIjNS_8DenseSetIjNS_12DenseMapInfoIjvEEEES7_NS_6detail12DenseMapPairIjS8_EEEESD_
libbcc.so.0:_ZN4llvm12IRSimilarity21IRSimilarityCandidate22checkRelativeLocationsENS1_18RelativeLocMappingES2_
libbcc.so.0:_ZN4llvm12IRSimilarity21IRSimilarityCandidate25createCanonicalMappingForERS1_
libbcc.so.0:_ZN4llvm12IRSimilarity21IRSimilarityCandidate27createCanonicalRelationFromERS1_RNS_8DenseMapIjNS_8DenseSetIjNS_12DenseMapInfoIjvEEEES6_NS_6detail12DenseMapPairIjS7_EEEESC_
libbcc.so.0:_ZN4llvm12IRSimilarity21IRSimilarityCandidate32compareCommutativeOperandMappingENS1_14OperandMappingES2_
libbcc.so.0:_ZN4llvm12IRSimilarity21IRSimilarityCandidate35compareNonCommutativeOperandMappingENS1_14OperandMappingES2_
libbcc.so.0:_ZN4llvm12IRSimilarity21IRSimilarityCandidate7overlapERKS1_S3_
libbcc.so.0:_ZN4llvm12IRSimilarity21IRSimilarityCandidate9isSimilarERKS1_S3_
libbcc.so.0:_ZN4llvm12IRSimilarity21IRSimilarityCandidateC1EjjPNS0_17IRInstructionDataES3_
libbcc.so.0:_ZN4llvm12IRSimilarity21IRSimilarityCandidateC2EjjPNS0_17IRInstructionDataES3_
libbcc.so.0:_ZN4llvm12IRSimilarity22IRSimilarityIdentifier14findCandidatesERSt6vectorIPNS0_17IRInstructionDataESaIS4_EERS2_IjSaIjEE
libbcc.so.0:_ZN4llvm12IRSimilarity22IRSimilarityIdentifier14findSimilarityENS_8ArrayRefISt10unique_ptrINS_6ModuleESt14default_deleteIS4_EEEE
libbcc.so.0:_ZN4llvm12IRSimilarity22IRSimilarityIdentifier14findSimilarityERNS_6ModuleE
libbcc.so.0:_ZN4llvm12IRSimilarity22IRSimilarityIdentifier14populateMapperERNS_6ModuleERSt6vectorIPNS0_17IRInstructionDataESaIS6_EERS4_IjSaIjEE
libbcc.so.0:_ZN4llvm12IRSimilarity22IRSimilarityIdentifier14populateMapperERNS_8ArrayRefISt10unique_ptrINS_6ModuleESt14default_deleteIS4_EEEERSt6vectorIPNS0_17IRInstructionDataESaISC_EERSA_IjSaIjEE
libbcc.so.0:_ZN4llvm12IRSimilarity7isCloseERKNS0_17IRInstructionDataES3_
libbcc.so.0:_ZN4llvm12IRTranslator11translateBrERKNS_4UserERNS_16MachineIRBuilderE
libbcc.so.0:_ZN4llvm12IRTranslator12translatePHIERKNS_4UserERNS_16MachineIRBuilderE
libbcc.so.0:_ZN4llvm12IRTranslator12translateRetERKNS_4UserERNS_16MachineIRBuilderE
libbcc.so.0:_ZN4llvm12IRTranslator13allocateVRegsERKNS_5ValueE
libbcc.so.0:_ZN4llvm12IRTranslator13emitJumpTableERNS_8SwitchCG9JumpTableEPNS_17MachineBasicBlockE
libbcc.so.0:_ZN4llvm12IRTranslator13getMemOpAlignERKNS_11InstructionE
libbcc.so.0:_ZN4llvm12IRTranslator13getStackGuardENS_8RegisterERNS_16MachineIRBuilderE
libbcc.so.0:_ZN4llvm12IRTranslator13translateCallERKNS_4UserERNS_16MachineIRBuilderE
libbcc.so.0:_ZN4llvm12IRTranslator13translateCastEjRKNS_4UserERNS_16MachineIRBuilderE
libbcc.so.0:_ZN4llvm12IRTranslator13translateCopyERKNS_4UserERKNS_5ValueERNS_16MachineIRBuilderE
libbcc.so.0:_ZN4llvm12IRTranslator13translateFNegERKNS_4UserERNS_16MachineIRBuilderE
libbcc.so.0:_ZN4llvm12IRTranslator13translateLoadERKNS_4UserERNS_16MachineIRBuilderE
libbcc.so.0:_ZN4llvm12IRTranslator14emitSwitchCaseERNS_8SwitchCG9CaseBlockEPNS_17MachineBasicBlockERNS_16MachineIRBuilderE
libbcc.so.0:_ZN4llvm12IRTranslator14translateFenceERKNS_4UserERNS_16MachineIRBuilderE
libbcc.so.0:_ZN4llvm12IRTranslator14translateStoreERKNS_4UserERNS_16MachineIRBuilderE
libbcc.so.0:_ZN4llvm12IRTranslator14translateVAArgERKNS_4UserERNS_16MachineIRBuilderE
libbcc.so.0:_ZN4llvm12IRTranslator15emitBitTestCaseERNS_8SwitchCG12BitTestBlockEPNS_17MachineBasicBlockENS_17BranchProbabilityENS_8RegisterERNS1_11BitTestCaseES5_
libbcc.so.0:_ZN4llvm12IRTranslator15translateAllocaERKNS_4UserERNS_16MachineIRBuilderE
libbcc.so.0:_ZN4llvm12IRTranslator15translateCallBrERKNS_4UserERNS_16MachineIRBuilderE
libbcc.so.0:_ZN4llvm12IRTranslator15translateFreezeERKNS_4UserERNS_16MachineIRBuilderE
libbcc.so.0:_ZN4llvm12IRTranslator15translateInvokeERKNS_4UserERNS_16MachineIRBuilderE
libbcc.so.0:_ZN4llvm12IRTranslator15translateSelectERKNS_4UserERNS_16MachineIRBuilderE
libbcc.so.0:_ZN4llvm12IRTranslator15translateSwitchERKNS_4UserERNS_16MachineIRBuilderE
libbcc.so.0:_ZN4llvm12IRTranslator16finalizeFunctionEv
libbcc.so.0:_ZN4llvm12IRTranslator16getOrCreateVRegsERKNS_5ValueE
libbcc.so.0:_ZN4llvm12IRTranslator16translateBitCastERKNS_4UserERNS_16MachineIRBuilderE
libbcc.so.0:_ZN4llvm12IRTranslator16translateCompareERKNS_4UserERNS_16MachineIRBuilderE
libbcc.so.0:_ZN4llvm12IRTranslator16translateMemFuncERKNS_8CallInstERNS_16MachineIRBuilderEj
libbcc.so.0:_ZN4llvm12IRTranslator16translateUnaryOpEjRKNS_4UserERNS_16MachineIRBuilderE
libbcc.so.0:_ZN4llvm12IRTranslator17addMachineCFGPredESt4pairIPKNS_10BasicBlockES4_EPNS_17MachineBasicBlockE
libbcc.so.0:_ZN4llvm12IRTranslator17emitBitTestHeaderERNS_8SwitchCG12BitTestBlockEPNS_17MachineBasicBlockE
libbcc.so.0:_ZN4llvm12IRTranslator17finishPendingPhisEv
libbcc.so.0:_ZN4llvm12IRTranslator17translateBinaryOpEjRKNS_4UserERNS_16MachineIRBuilderE
libbcc.so.0:_ZN4llvm12IRTranslator17translateCallBaseERKNS_8CallBaseERNS_16MachineIRBuilderE
libbcc.so.0:_ZN4llvm12IRTranslator18finalizeBasicBlockERKNS_10BasicBlockERNS_17MachineBasicBlockE
libbcc.so.0:_ZN4llvm12IRTranslator18translateAtomicRMWERKNS_4UserERNS_16MachineIRBuilderE
libbcc.so.0:_ZN4llvm12IRTranslator18translateInlineAsmERKNS_8CallBaseERNS_16MachineIRBuilderE
libbcc.so.0:_ZN4llvm12IRTranslator19emitJumpTableHeaderERNS_8SwitchCG9JumpTableERNS1_15JumpTableHeaderEPNS_17MachineBasicBlockE
libbcc.so.0:_ZN4llvm12IRTranslator19lowerSwitchWorkItemENS_8SwitchCG18SwitchWorkListItemEPNS_5ValueEPNS_17MachineBasicBlockES6_RNS_16MachineIRBuilderE
libbcc.so.0:_ZN4llvm12IRTranslator19translateIndirectBrERKNS_4UserERNS_16MachineIRBuilderE
libbcc.so.0:_ZN4llvm12IRTranslator19translateLandingPadERKNS_4UserERNS_16MachineIRBuilderE
libbcc.so.0:_ZN4llvm12IRTranslator20addSuccessorWithProbEPNS_17MachineBasicBlockES2_NS_17BranchProbabilityE
libbcc.so.0:_ZN4llvm12IRTranslator20findMergedConditionsEPKNS_5ValueEPNS_17MachineBasicBlockES5_S5_S5_NS_11Instruction9BinaryOpsENS_17BranchProbabilityES8_b
libbcc.so.0:_ZN4llvm12IRTranslator20lowerBitTestWorkItemENS_8SwitchCG18SwitchWorkListItemEPNS_17MachineBasicBlockES4_S4_RNS_16MachineIRBuilderENS_14ilist_iteratorINS_12ilist_detail12node_optionsIS3_Lb0ELb0EvEELb0ELb0EEENS_17BranchProbabilityESC_N9__gnu_cxx17__normal_iteratorIPNS1_11CaseClusterESt6vectorISF_SaISF_EEEES4_b
libbcc.so.0:_ZN4llvm12IRTranslator20runOnMachineFunctionERNS_15MachineFunctionE
libbcc.so.0:_ZN4llvm12IRTranslator20shouldEmitAsBranchesERKSt6vectorINS_8SwitchCG9CaseBlockESaIS3_EE
libbcc.so.0:_ZN4llvm12IRTranslator20translateInsertValueERKNS_4UserERNS_16MachineIRBuilderE
libbcc.so.0:_ZN4llvm12IRTranslator20translateUnreachableERKNS_4UserERNS_16MachineIRBuilderE
libbcc.so.0:_ZN4llvm12IRTranslator21getOrCreateFrameIndexERKNS_10AllocaInstE
libbcc.so.0:_ZN4llvm12IRTranslator21translateExtractValueERKNS_4UserERNS_16MachineIRBuilderE
libbcc.so.0:_ZN4llvm12IRTranslator22emitSPDescriptorParentERNS_24StackProtectorDescriptorEPNS_17MachineBasicBlockE
libbcc.so.0:_ZN4llvm12IRTranslator22findUnwindDestinationsEPKNS_10BasicBlockENS_17BranchProbabilityERNS_15SmallVectorImplISt4pairIPNS_17MachineBasicBlockES4_EEE
libbcc.so.0:_ZN4llvm12IRTranslator22lowerJumpTableWorkItemENS_8SwitchCG18SwitchWorkListItemEPNS_17MachineBasicBlockES4_S4_RNS_16MachineIRBuilderENS_14ilist_iteratorINS_12ilist_detail12node_optionsIS3_Lb0ELb0EvEELb0ELb0EEENS_17BranchProbabilityEN9__gnu_cxx17__normal_iteratorIPNS1_11CaseClusterESt6vectorISF_SaISF_EEEES4_b
libbcc.so.0:_ZN4llvm12IRTranslator22translateAtomicCmpXchgERKNS_4UserERNS_16MachineIRBuilderE
libbcc.so.0:_ZN4llvm12IRTranslator22translateGetElementPtrERKNS_4UserERNS_16MachineIRBuilderE
libbcc.so.0:_ZN4llvm12IRTranslator22translateInsertElementERKNS_4UserERNS_16MachineIRBuilderE
libbcc.so.0:_ZN4llvm12IRTranslator22translateShuffleVectorERKNS_4UserERNS_16MachineIRBuilderE
libbcc.so.0:_ZN4llvm12IRTranslator23emitSPDescriptorFailureERNS_24StackProtectorDescriptorEPNS_17MachineBasicBlockE
libbcc.so.0:_ZN4llvm12IRTranslator23translateExtractElementERKNS_4UserERNS_16MachineIRBuilderE
libbcc.so.0:_ZN4llvm12IRTranslator23translateKnownIntrinsicERKNS_8CallInstEjRNS_16MachineIRBuilderE
libbcc.so.0:_ZN4llvm12IRTranslator24getSimpleIntrinsicOpcodeEj
libbcc.so.0:_ZN4llvm12IRTranslator24lowerSwitchRangeWorkItemEN9__gnu_cxx17__normal_iteratorIPNS_8SwitchCG11CaseClusterESt6vectorIS4_SaIS4_EEEEPNS_5ValueEPNS_17MachineBasicBlockEbNS_17BranchProbabilityESD_RNS_16MachineIRBuilderESD_
libbcc.so.0:_ZN4llvm12IRTranslator24translateSimpleIntrinsicERKNS_8CallInstEjRNS_16MachineIRBuilderE
libbcc.so.0:_ZN4llvm12IRTranslator26translateOverflowIntrinsicERKNS_8CallInstEjRNS_16MachineIRBuilderE
libbcc.so.0:_ZN4llvm12IRTranslator28emitBranchForMergedConditionEPKNS_5ValueEPNS_17MachineBasicBlockES5_S5_S5_NS_17BranchProbabilityES6_b
libbcc.so.0:_ZN4llvm12IRTranslator28translateFixedPointIntrinsicEjRKNS_8CallInstERNS_16MachineIRBuilderE
libbcc.so.0:_ZN4llvm12IRTranslator31translateConstrainedFPIntrinsicERKNS_22ConstrainedFPIntrinsicERNS_16MachineIRBuilderE
libbcc.so.0:_ZN4llvm12IRTranslator6getMBBERKNS_10BasicBlockE
libbcc.so.0:_ZN4llvm12IRTranslator9translateERKNS_11InstructionE
libbcc.so.0:_ZN4llvm12IRTranslator9translateERKNS_8ConstantENS_8RegisterE
libbcc.so.0:_ZN4llvm12IRTranslatorC1ENS_10CodeGenOpt5LevelE
libbcc.so.0:_ZN4llvm12IRTranslatorC2ENS_10CodeGenOpt5LevelE
libbcc.so.0:_ZN4llvm12InlineAdvice14recordInliningEv
libbcc.so.0:_ZN4llvm12InlineAdvice25recordInlineStatsIfNeededEv
libbcc.so.0:_ZN4llvm12InlineAdvice31recordInliningWithCalleeDeletedEv
libbcc.so.0:_ZN4llvm12InlineAdviceC1EPNS_13InlineAdvisorERNS_8CallBaseERNS_25OptimizationRemarkEmitterEb
libbcc.so.0:_ZN4llvm12InlineAdviceC2EPNS_13InlineAdvisorERNS_8CallBaseERNS_25OptimizationRemarkEmitterEb
libbcc.so.0:_ZN4llvm12IntEqClasses10uncompressEv
libbcc.so.0:_ZN4llvm12IntEqClasses4growEj
libbcc.so.0:_ZN4llvm12IntEqClasses4joinEjj
libbcc.so.0:_ZN4llvm12IntEqClasses8compressEv
libbcc.so.0:_ZN4llvm12IntToPtrInstC1EPNS_5ValueEPNS_4TypeERKNS_5TwineEPNS_10BasicBlockE
libbcc.so.0:_ZN4llvm12IntToPtrInstC1EPNS_5ValueEPNS_4TypeERKNS_5TwineEPNS_11InstructionE
libbcc.so.0:_ZN4llvm12IntToPtrInstC2EPNS_5ValueEPNS_4TypeERKNS_5TwineEPNS_10BasicBlockE
libbcc.so.0:_ZN4llvm12IntToPtrInstC2EPNS_5ValueEPNS_4TypeERKNS_5TwineEPNS_11InstructionE
libbcc.so.0:_ZN4llvm12LiveInterval12freeSubRangeEPNS0_8SubRangeE
libbcc.so.0:_ZN4llvm12LiveInterval14clearSubRangesEv
libbcc.so.0:_ZN4llvm12LiveInterval15refineSubRangesERNS_20BumpPtrAllocatorImplINS_15MallocAllocatorELm4096ELm4096ELm128EEENS_11LaneBitmaskESt8functionIFvRNS0_8SubRangeEEERKNS_11SlotIndexesERKNS_18TargetRegisterInfoEj
libbcc.so.0:_ZN4llvm12LiveInterval20removeEmptySubRangesEv
libbcc.so.0:_ZN4llvm12LivePhysRegs10addLiveInsERKNS_17MachineBasicBlockE
libbcc.so.0:_ZN4llvm12LivePhysRegs10removeDefsERKNS_12MachineInstrE
libbcc.so.0:_ZN4llvm12LivePhysRegs11addLiveOutsERKNS_17MachineBasicBlockE
libbcc.so.0:_ZN4llvm12LivePhysRegs11stepForwardERKNS_12MachineInstrERNS_15SmallVectorImplISt4pairItPKNS_14MachineOperandEEEE
libbcc.so.0:_ZN4llvm12LivePhysRegs12addPristinesERKNS_15MachineFunctionE
libbcc.so.0:_ZN4llvm12LivePhysRegs12stepBackwardERKNS_12MachineInstrE
libbcc.so.0:_ZN4llvm12LivePhysRegs15addBlockLiveInsERKNS_17MachineBasicBlockE
libbcc.so.0:_ZN4llvm12LivePhysRegs16removeRegsInMaskERKNS_14MachineOperandEPNS_15SmallVectorImplISt4pairItPS2_EEE
libbcc.so.0:_ZN4llvm12LivePhysRegs21addLiveInsNoPristinesERKNS_17MachineBasicBlockE
libbcc.so.0:_ZN4llvm12LivePhysRegs22addLiveOutsNoPristinesERKNS_17MachineBasicBlockE
libbcc.so.0:_ZN4llvm12LivePhysRegs7addUsesERKNS_12MachineInstrE
libbcc.so.0:_ZN4llvm12LiveRegUnits10accumulateERKNS_12MachineInstrE
libbcc.so.0:_ZN4llvm12LiveRegUnits10addLiveInsERKNS_17MachineBasicBlockE
libbcc.so.0:_ZN4llvm12LiveRegUnits11addLiveOutsERKNS_17MachineBasicBlockE
libbcc.so.0:_ZN4llvm12LiveRegUnits12addPristinesERKNS_15MachineFunctionE
libbcc.so.0:_ZN4llvm12LiveRegUnits12stepBackwardERKNS_12MachineInstrE
libbcc.so.0:_ZN4llvm12LiveRegUnits13addRegsInMaskEPKj
libbcc.so.0:_ZN4llvm12LiveRegUnits22removeRegsNotPreservedEPKj
libbcc.so.0:_ZN4llvm12LoadStoreOpt11mergeStoresERNS_15SmallVectorImplIPNS_6GStoreEEE
libbcc.so.0:_ZN4llvm12LoadStoreOpt16mergeBlockStoresERNS_17MachineBasicBlockE
libbcc.so.0:_ZN4llvm12LoadStoreOpt18doSingleStoreMergeERNS_15SmallVectorImplIPNS_6GStoreEEE
libbcc.so.0:_ZN4llvm12LoadStoreOpt19StoreMergeCandidate17addPotentialAliasERNS_12MachineInstrE
libbcc.so.0:_ZN4llvm12LoadStoreOpt19addStoreToCandidateERNS_6GStoreERNS0_19StoreMergeCandidateE
libbcc.so.0:_ZN4llvm12LoadStoreOpt19mergeFunctionStoresERNS_15MachineFunctionE
libbcc.so.0:_ZN4llvm12LoadStoreOpt20runOnMachineFunctionERNS_15MachineFunctionE
libbcc.so.0:_ZN4llvm12LoadStoreOpt21processMergeCandidateERNS0_19StoreMergeCandidateE
libbcc.so.0:_ZN4llvm12LoadStoreOpt29operationAliasesWithCandidateERNS_12MachineInstrERNS0_19StoreMergeCandidateE
libbcc.so.0:_ZN4llvm12LoadStoreOpt30initializeStoreMergeTargetInfoEj
libbcc.so.0:_ZN4llvm12LoadStoreOpt4initERNS_15MachineFunctionE
libbcc.so.0:_ZN4llvm12LoadStoreOptC1ESt8functionIFbRKNS_15MachineFunctionEEE
libbcc.so.0:_ZN4llvm12LoadStoreOptC1Ev
libbcc.so.0:_ZN4llvm12LoadStoreOptC2ESt8functionIFbRKNS_15MachineFunctionEEE
libbcc.so.0:_ZN4llvm12LoadStoreOptC2Ev
libbcc.so.0:_ZN4llvm12LoopAnalysis3runERNS_8FunctionERNS_15AnalysisManagerIS1_JEEE
libbcc.so.0:_ZN4llvm12LoopFusePass3runERNS_8FunctionERNS_15AnalysisManagerIS1_JEEE
libbcc.so.0:_ZN4llvm12LoopRotationEPNS_4LoopEPNS_8LoopInfoEPKNS_19TargetTransformInfoEPNS_15AssumptionCacheEPNS_13DominatorTreeEPNS_15ScalarEvolutionEPNS_16MemorySSAUpdaterERKNS_13SimplifyQueryEbjbb
libbcc.so.0:_ZN4llvm12LoopSinkPass3runERNS_8FunctionERNS_15AnalysisManagerIS1_JEEE
libbcc.so.0:_ZN4llvm12MCAsmBackendC2ENS_7support10endiannessE
libbcc.so.0:_ZN4llvm12MCAsmBackendD0Ev
libbcc.so.0:_ZN4llvm12MCAsmBackendD1Ev
libbcc.so.0:_ZN4llvm12MCAsmBackendD2Ev
libbcc.so.0:_ZN4llvm12MCAsmInfoELF6anchorEv
libbcc.so.0:_ZN4llvm12MCAsmInfoELFC1Ev
libbcc.so.0:_ZN4llvm12MCAsmInfoELFC2Ev
libbcc.so.0:_ZN4llvm12MCBinaryExpr6createENS0_6OpcodeEPKNS_6MCExprES4_RNS_9MCContextENS_5SMLocE
libbcc.so.0:_ZN4llvm12MCSchedModel19computeInstrLatencyERKNS_15MCSubtargetInfoERKNS_16MCSchedClassDescE
libbcc.so.0:_ZN4llvm12MCSchedModel23getReciprocalThroughputERKNS_15MCSubtargetInfoERKNS_16MCSchedClassDescE
libbcc.so.0:_ZN4llvm12MCSchedModel23getReciprocalThroughputEjRKNS_18InstrItineraryDataE
libbcc.so.0:_ZN4llvm12MCSchedModel24getForwardingDelayCyclesENS_8ArrayRefINS_18MCReadAdvanceEntryEEEj
libbcc.so.0:_ZN4llvm12MCTargetExpr6anchorEv
libbcc.so.0:_ZN4llvm12MDNodeOpsKey13calculateHashENS_8ArrayRefIPNS_8MetadataEEE
libbcc.so.0:_ZN4llvm12MDNodeOpsKey13calculateHashEPNS_6MDNodeEj
libbcc.so.0:_ZN4llvm12MIRFormatter12printIRValueERNS_11raw_ostreamERKNS_5ValueERNS_17ModuleSlotTrackerE
libbcc.so.0:_ZN4llvm12MachineInstr10addOperandERKNS_14MachineOperandE
libbcc.so.0:_ZN4llvm12MachineInstr10addOperandERNS_15MachineFunctionERKNS_14MachineOperandE
libbcc.so.0:_ZN4llvm12MachineInstr10getRegInfoEv
libbcc.so.0:_ZN4llvm12MachineInstr10moveBeforeEPS0_
libbcc.so.0:_ZN4llvm12MachineInstr10setMemRefsERNS_15MachineFunctionENS_8ArrayRefIPNS_17MachineMemOperandEEE
libbcc.so.0:_ZN4llvm12MachineInstr11copyIRFlagsERKNS_11InstructionE
libbcc.so.0:_ZN4llvm12MachineInstr11dropMemRefsERNS_15MachineFunctionE
libbcc.so.0:_ZN4llvm12MachineInstr11tieOperandsEjj
libbcc.so.0:_ZN4llvm12MachineInstr12cloneMemRefsERNS_15MachineFunctionERKS0_
libbcc.so.0:_ZN4llvm12MachineInstr12setExtraInfoERNS_15MachineFunctionENS_8ArrayRefIPNS_17MachineMemOperandEEEPNS_8MCSymbolES8_PNS_6MDNodeE
libbcc.so.0:_ZN4llvm12MachineInstr13addMemOperandERNS_15MachineFunctionEPNS_17MachineMemOperandE
libbcc.so.0:_ZN4llvm12MachineInstr13clearKillInfoEv
libbcc.so.0:_ZN4llvm12MachineInstr13removeOperandEj
libbcc.so.0:_ZN4llvm12MachineInstr14bundleWithPredEv
libbcc.so.0:_ZN4llvm12MachineInstr14bundleWithSuccEv
libbcc.so.0:_ZN4llvm12MachineInstr15addRegisterDeadENS_8RegisterEPKNS_18TargetRegisterInfoEb
libbcc.so.0:_ZN4llvm12MachineInstr15copyImplicitOpsERNS_15MachineFunctionERKS0_
libbcc.so.0:_ZN4llvm12MachineInstr15eraseFromBundleEv
libbcc.so.0:_ZN4llvm12MachineInstr15eraseFromParentEv
libbcc.so.0:_ZN4llvm12MachineInstr16getDebugInstrNumERNS_15MachineFunctionE
libbcc.so.0:_ZN4llvm12MachineInstr16getDebugInstrNumEv
libbcc.so.0:_ZN4llvm12MachineInstr16removeFromBundleEv
libbcc.so.0:_ZN4llvm12MachineInstr16removeFromParentEv
libbcc.so.0:_ZN4llvm12MachineInstr16unbundleFromPredEv
libbcc.so.0:_ZN4llvm12MachineInstr16unbundleFromSuccEv
libbcc.so.0:_ZN4llvm12MachineInstr17addRegisterKilledENS_8RegisterEPKNS_18TargetRegisterInfoEb
libbcc.so.0:_ZN4llvm12MachineInstr17cloneInstrSymbolsERNS_15MachineFunctionERKS0_
libbcc.so.0:_ZN4llvm12MachineInstr17setPreInstrSymbolERNS_15MachineFunctionEPNS_8MCSymbolE
libbcc.so.0:_ZN4llvm12MachineInstr18addRegisterDefinedENS_8RegisterEPKNS_18TargetRegisterInfoE
libbcc.so.0:_ZN4llvm12MachineInstr18clearRegisterDeadsENS_8RegisterE
libbcc.so.0:_ZN4llvm12MachineInstr18clearRegisterKillsENS_8RegisterEPKNS_18TargetRegisterInfoE
libbcc.so.0:_ZN4llvm12MachineInstr18cloneMergedMemRefsERNS_15MachineFunctionENS_8ArrayRefIPKS0_EE
libbcc.so.0:_ZN4llvm12MachineInstr18collectDebugValuesERNS_15SmallVectorImplIPS0_EE
libbcc.so.0:_ZN4llvm12MachineInstr18getDebugVariableOpEv
libbcc.so.0:_ZN4llvm12MachineInstr18setHeapAllocMarkerERNS_15MachineFunctionEPNS_6MDNodeE
libbcc.so.0:_ZN4llvm12MachineInstr18setPostInstrSymbolERNS_15MachineFunctionEPNS_8MCSymbolE
libbcc.so.0:_ZN4llvm12MachineInstr18substituteRegisterENS_8RegisterES1_jRKNS_18TargetRegisterInfoE
libbcc.so.0:_ZN4llvm12MachineInstr20getDebugExpressionOpEv
libbcc.so.0:_ZN4llvm12MachineInstr21setPhysRegsDeadExceptENS_8ArrayRefINS_8RegisterEEERKNS_18TargetRegisterInfoE
libbcc.so.0:_ZN4llvm12MachineInstr23changeDebugValuesDefRegENS_8RegisterE
libbcc.so.0:_ZN4llvm12MachineInstr23setRegisterDefReadUndefENS_8RegisterEb
libbcc.so.0:_ZN4llvm12MachineInstr24addRegOperandsToUseListsERNS_19MachineRegisterInfoE
libbcc.so.0:_ZN4llvm12MachineInstr24copyFlagsFromInstructionERKNS_11InstructionE
libbcc.so.0:_ZN4llvm12MachineInstr25addImplicitDefUseOperandsERNS_15MachineFunctionE
libbcc.so.0:_ZN4llvm12MachineInstr29removeRegOperandsFromUseListsERNS_19MachineRegisterInfoE
libbcc.so.0:_ZN4llvm12MachineInstrC1ERNS_15MachineFunctionERKNS_11MCInstrDescENS_8DebugLocEb
libbcc.so.0:_ZN4llvm12MachineInstrC1ERNS_15MachineFunctionERKS0_
libbcc.so.0:_ZN4llvm12MachineInstrC2ERNS_15MachineFunctionERKNS_11MCInstrDescENS_8DebugLocEb
libbcc.so.0:_ZN4llvm12MachineInstrC2ERNS_15MachineFunctionERKS0_
libbcc.so.0:_ZN4llvm12MemoryBuffer11getOpenFileEiRKNS_5TwineEmbb
libbcc.so.0:_ZN4llvm12MemoryBuffer12getFileSliceERKNS_5TwineEmmb
libbcc.so.0:_ZN4llvm12MemoryBuffer12getMemBufferENS_15MemoryBufferRefEb
libbcc.so.0:_ZN4llvm12MemoryBuffer12getMemBufferENS_9StringRefES1_b
libbcc.so.0:_ZN4llvm12MemoryBuffer14getFileOrSTDINERKNS_5TwineEbb
libbcc.so.0:_ZN4llvm12MemoryBuffer15getFileAsStreamERKNS_5TwineE
libbcc.so.0:_ZN4llvm12MemoryBuffer16getMemBufferCopyENS_9StringRefERKNS_5TwineE
libbcc.so.0:_ZN4llvm12MemoryBuffer16getOpenFileSliceEiRKNS_5TwineEmlb
libbcc.so.0:_ZN4llvm12MemoryBuffer4initEPKcS2_b
libbcc.so.0:_ZN4llvm12MemoryBuffer7getFileERKNS_5TwineEbbb
libbcc.so.0:_ZN4llvm12MemoryBuffer8getSTDINEv
libbcc.so.0:_ZN4llvm12MemoryBufferD0Ev
libbcc.so.0:_ZN4llvm12MemoryBufferD1Ev
libbcc.so.0:_ZN4llvm12MemoryBufferD2Ev
libbcc.so.0:_ZN4llvm12OverlapStats12addOneUniqueERKNS_17CountSumOrPercentE
libbcc.so.0:_ZN4llvm12OverlapStats14addOneMismatchERKNS_17CountSumOrPercentE
libbcc.so.0:_ZN4llvm12OverlapStats16accumulateCountsERKNSt7__cxx1112basic_stringIcSt11char_traitsIcESaIcEEES8_b
libbcc.so.0:_ZN4llvm12PHITransAddr17PHITranslateValueEPNS_10BasicBlockES2_PKNS_13DominatorTreeEb
libbcc.so.0:_ZN4llvm12PHITransAddr19PHITranslateSubExprEPNS_5ValueEPNS_10BasicBlockES4_PKNS_13DominatorTreeE
libbcc.so.0:_ZN4llvm12PHITransAddr25PHITranslateWithInsertionEPNS_10BasicBlockES2_RKNS_13DominatorTreeERNS_15SmallVectorImplIPNS_11InstructionEEE
libbcc.so.0:_ZN4llvm12PHITransAddr26InsertPHITranslatedSubExprEPNS_5ValueEPNS_10BasicBlockES4_RKNS_13DominatorTreeERNS_15SmallVectorImplIPNS_11InstructionEEE
libbcc.so.0:_ZN4llvm12PassRegistry12registerPassERKNS_8PassInfoEb
libbcc.so.0:_ZN4llvm12PassRegistry13enumerateWithEPNS_24PassRegistrationListenerE
libbcc.so.0:_ZN4llvm12PassRegistry15getPassRegistryEv
libbcc.so.0:_ZN4llvm12PassRegistry21registerAnalysisGroupEPKvS2_RNS_8PassInfoEbb
libbcc.so.0:_ZN4llvm12PassRegistry23addRegistrationListenerEPNS_24PassRegistrationListenerE
libbcc.so.0:_ZN4llvm12PassRegistry26removeRegistrationListenerEPNS_24PassRegistrationListenerE
libbcc.so.0:_ZN4llvm12PassRegistryD1Ev
libbcc.so.0:_ZN4llvm12PassRegistryD2Ev
libbcc.so.0:_ZN4llvm12PressureDiff17addPressureChangeENS_8RegisterEbPKNS_19MachineRegisterInfoE
libbcc.so.0:_ZN4llvm12PtrToIntInstC1EPNS_5ValueEPNS_4TypeERKNS_5TwineEPNS_10BasicBlockE
libbcc.so.0:_ZN4llvm12PtrToIntInstC1EPNS_5ValueEPNS_4TypeERKNS_5TwineEPNS_11InstructionE
libbcc.so.0:_ZN4llvm12PtrToIntInstC2EPNS_5ValueEPNS_4TypeERKNS_5TwineEPNS_10BasicBlockE
libbcc.so.0:_ZN4llvm12PtrToIntInstC2EPNS_5ValueEPNS_4TypeERKNS_5TwineEPNS_11InstructionE
libbcc.so.0:_ZN4llvm12RISCVISAInfo10updateFLenEv
libbcc.so.0:_ZN4llvm12RISCVISAInfo12addExtensionENS_9StringRefEjj
libbcc.so.0:_ZN4llvm12RISCVISAInfo13parseFeaturesEjRKSt6vectorINSt7__cxx1112basic_stringIcSt11char_traitsIcESaIcEEESaIS7_EE
libbcc.so.0:_ZN4llvm12RISCVISAInfo13updateMaxELenEv
libbcc.so.0:_ZN4llvm12RISCVISAInfo13updateMinVLenEv
libbcc.so.0:_ZN4llvm12RISCVISAInfo15checkDependencyEv
libbcc.so.0:_ZN4llvm12RISCVISAInfo15parseArchStringENS_9StringRefEbb
libbcc.so.0:_ZN4llvm12RISCVISAInfo16compareExtensionERKNSt7__cxx1112basic_stringIcSt11char_traitsIcESaIcEEES8_
libbcc.so.0:_ZN4llvm12RISCVISAInfo17updateCombinationEv
libbcc.so.0:_ZN4llvm12RISCVISAInfo17updateImplicationEv
libbcc.so.0:_ZN4llvm12RISCVISAInfo20isSupportedExtensionENS_9StringRefE
libbcc.so.0:_ZN4llvm12RISCVISAInfo20isSupportedExtensionENS_9StringRefEjj
libbcc.so.0:_ZN4llvm12RISCVISAInfo22postProcessAndCheckingEOSt10unique_ptrIS0_St14default_deleteIS0_EE
libbcc.so.0:_ZN4llvm12RISCVISAInfo27isSupportedExtensionFeatureENS_9StringRefE
libbcc.so.0:_ZN4llvm12RegAllocBase12seedLiveRegsEv
libbcc.so.0:_ZN4llvm12RegAllocBase16allocatePhysRegsEv
libbcc.so.0:_ZN4llvm12RegAllocBase16postOptimizationEv
libbcc.so.0:_ZN4llvm12RegAllocBase4initERNS_10VirtRegMapERNS_13LiveIntervalsERNS_13LiveRegMatrixE
libbcc.so.0:_ZN4llvm12RegAllocBase6anchorEv
libbcc.so.0:_ZN4llvm12RegAllocBase7enqueueEPKNS_12LiveIntervalE
libbcc.so.0:_ZN4llvm12RegScavenger10setRegUsedENS_8RegisterENS_11LaneBitmaskE
libbcc.so.0:_ZN4llvm12RegScavenger11addRegUnitsERNS_9BitVectorENS_10MCRegisterE
libbcc.so.0:_ZN4llvm12RegScavenger14removeRegUnitsERNS_9BitVectorENS_10MCRegisterE
libbcc.so.0:_ZN4llvm12RegScavenger15enterBasicBlockERNS_17MachineBasicBlockE
libbcc.so.0:_ZN4llvm12RegScavenger15findSurvivorRegENS_26MachineInstrBundleIteratorINS_12MachineInstrELb0EEERNS_9BitVectorEjRS3_
libbcc.so.0:_ZN4llvm12RegScavenger16getRegsAvailableEPKNS_19TargetRegisterClassE
libbcc.so.0:_ZN4llvm12RegScavenger16scavengeRegisterEPKNS_19TargetRegisterClassENS_26MachineInstrBundleIteratorINS_12MachineInstrELb0EEEib
libbcc.so.0:_ZN4llvm12RegScavenger18enterBasicBlockEndERNS_17MachineBasicBlockE
libbcc.so.0:_ZN4llvm12RegScavenger21determineKillsAndDefsEv
libbcc.so.0:_ZN4llvm12RegScavenger25scavengeRegisterBackwardsERKNS_19TargetRegisterClassENS_26MachineInstrBundleIteratorINS_12MachineInstrELb0EEEbib
libbcc.so.0:_ZN4llvm12RegScavenger4initERNS_17MachineBasicBlockE
libbcc.so.0:_ZN4llvm12RegScavenger5spillENS_8RegisterERKNS_19TargetRegisterClassEiNS_26MachineInstrBundleIteratorINS_12MachineInstrELb0EEERS7_
libbcc.so.0:_ZN4llvm12RegScavenger7forwardEv
libbcc.so.0:_ZN4llvm12RegScavenger8backwardEv
libbcc.so.0:_ZN4llvm12RegToMemPass3runERNS_8FunctionERNS_15AnalysisManagerIS1_JEEE
libbcc.so.0:_ZN4llvm12RegisterBankC1EjPKcjPKjj
libbcc.so.0:_ZN4llvm12RegisterBankC2EjPKcjPKjj
libbcc.so.0:_ZN4llvm12RegsForValueC1ERKNS_11SmallVectorIjLj4EEENS_3MVTENS_3EVTENS_8OptionalIjEE
libbcc.so.0:_ZN4llvm12RegsForValueC1ERNS_11LLVMContextERKNS_14TargetLoweringERKNS_10DataLayoutEjPNS_4TypeENS_8OptionalIjEE
libbcc.so.0:_ZN4llvm12RegsForValueC2ERKNS_11SmallVectorIjLj4EEENS_3MVTENS_3EVTENS_8OptionalIjEE
libbcc.so.0:_ZN4llvm12RegsForValueC2ERNS_11LLVMContextERKNS_14TargetLoweringERKNS_10DataLayoutEjPNS_4TypeENS_8OptionalIjEE
libbcc.so.0:_ZN4llvm12SCEVAAResult10invalidateERNS_8FunctionERKNS_17PreservedAnalysesERNS_15AnalysisManagerIS1_JEE11InvalidatorE
libbcc.so.0:_ZN4llvm12SCEVAAResult12GetBaseValueEPKNS_4SCEVE
libbcc.so.0:_ZN4llvm12SCEVAAResult5aliasERKNS_14MemoryLocationES3_RNS_11AAQueryInfoE
libbcc.so.0:_ZN4llvm12SCEVCastExprC1ENS_19FoldingSetNodeIDRefENS_9SCEVTypesEPKNS_4SCEVEPNS_4TypeE
libbcc.so.0:_ZN4llvm12SCEVCastExprC2ENS_19FoldingSetNodeIDRefENS_9SCEVTypesEPKNS_4SCEVEPNS_4TypeE
libbcc.so.0:_ZN4llvm12SCEVDivision12cannotDivideEPKNS_4SCEVE
libbcc.so.0:_ZN4llvm12SCEVDivision12visitAddExprEPKNS_11SCEVAddExprE
libbcc.so.0:_ZN4llvm12SCEVDivision12visitMulExprEPKNS_11SCEVMulExprE
libbcc.so.0:_ZN4llvm12SCEVDivision13visitConstantEPKNS_12SCEVConstantE
libbcc.so.0:_ZN4llvm12SCEVDivision15visitAddRecExprEPKNS_14SCEVAddRecExprE
libbcc.so.0:_ZN4llvm12SCEVDivision6divideERNS_15ScalarEvolutionEPKNS_4SCEVES5_PS5_S6_
libbcc.so.0:_ZN4llvm12SCEVDivisionC1ERNS_15ScalarEvolutionEPKNS_4SCEVES5_
libbcc.so.0:_ZN4llvm12SCEVDivisionC2ERNS_15ScalarEvolutionEPKNS_4SCEVES5_
libbcc.so.0:_ZN4llvm12SCEVExpander10hoistIVIncEPNS_11InstructionES2_
libbcc.so.0:_ZN4llvm12SCEVExpander11InsertBinopENS_11Instruction9BinaryOpsEPNS_5ValueES4_NS_4SCEV11NoWrapFlagsEb
libbcc.so.0:_ZN4llvm12SCEVExpander11expandIVIncEPNS_7PHINodeEPNS_5ValueEPKNS_4LoopEPNS_4TypeES9_b
libbcc.so.0:_ZN4llvm12SCEVExpander12visitAddExprEPKNS_11SCEVAddExprE
libbcc.so.0:_ZN4llvm12SCEVExpander12visitMulExprEPKNS_11SCEVMulExprE
libbcc.so.0:_ZN4llvm12SCEVExpander13visitSMaxExprEPKNS_12SCEVSMaxExprE
libbcc.so.0:_ZN4llvm12SCEVExpander13visitSMinExprEPKNS_12SCEVSMinExprE
libbcc.so.0:_ZN4llvm12SCEVExpander13visitUDivExprEPKNS_12SCEVUDivExprE
libbcc.so.0:_ZN4llvm12SCEVExpander13visitUMaxExprEPKNS_12SCEVUMaxExprE
libbcc.so.0:_ZN4llvm12SCEVExpander13visitUMinExprEPKNS_12SCEVUMinExprE
libbcc.so.0:_ZN4llvm12SCEVExpander14expandAddToGEPEPKNS_4SCEVEPNS_11PointerTypeEPNS_4TypeEPNS_5ValueE
libbcc.so.0:_ZN4llvm12SCEVExpander14expandAddToGEPEPKPKNS_4SCEVES5_PNS_11PointerTypeEPNS_4TypeEPNS_5ValueE
libbcc.so.0:_ZN4llvm12SCEVExpander15getIVIncOperandEPNS_11InstructionES2_b
libbcc.so.0:_ZN4llvm12SCEVExpander15getRelevantLoopEPKNS_4SCEVE
libbcc.so.0:_ZN4llvm12SCEVExpander15visitAddRecExprEPKNS_14SCEVAddRecExprE
libbcc.so.0:_ZN4llvm12SCEVExpander16expandMinMaxExprEPKNS_12SCEVNAryExprEjNS_5TwineEb
libbcc.so.0:_ZN4llvm12SCEVExpander17ReuseOrCreateCastEPNS_5ValueEPNS_4TypeENS_11Instruction7CastOpsENS_14ilist_iteratorINS_12ilist_detail12node_optionsIS5_Lb0ELb0EvEELb0ELb0EEE
libbcc.so.0:_ZN4llvm12SCEVExpander17expandCodeForImplEPKNS_4SCEVEPNS_4TypeEPNS_11InstructionEb
libbcc.so.0:_ZN4llvm12SCEVExpander17expandCodeForImplEPKNS_4SCEVEPNS_4TypeEb
libbcc.so.0:_ZN4llvm12SCEVExpander17fixupInsertPointsEPNS_11InstructionE
libbcc.so.0:_ZN4llvm12SCEVExpander17fixupLCSSAFormForEPNS_11InstructionEj
libbcc.so.0:_ZN4llvm12SCEVExpander17visitPtrToIntExprEPKNS_16SCEVPtrToIntExprE
libbcc.so.0:_ZN4llvm12SCEVExpander17visitTruncateExprEPKNS_16SCEVTruncateExprE
libbcc.so.0:_ZN4llvm12SCEVExpander18InsertNoopCastOfToEPNS_5ValueEPNS_4TypeE
libbcc.so.0:_ZN4llvm12SCEVExpander19expandWrapPredicateEPKNS_17SCEVWrapPredicateEPNS_11InstructionE
libbcc.so.0:_ZN4llvm12SCEVExpander19rememberInstructionEPNS_5ValueE
libbcc.so.0:_ZN4llvm12SCEVExpander19replaceCongruentIVsEPNS_4LoopEPKNS_13DominatorTreeERNS_15SmallVectorImplINS_14WeakTrackingVHEEEPKNS_19TargetTransformInfoE
libbcc.so.0:_ZN4llvm12SCEVExpander19visitSignExtendExprEPKNS_18SCEVSignExtendExprE
libbcc.so.0:_ZN4llvm12SCEVExpander19visitZeroExtendExprEPKNS_18SCEVZeroExtendExprE
libbcc.so.0:_ZN4llvm12SCEVExpander20expandUnionPredicateEPKNS_18SCEVUnionPredicateEPNS_11InstructionE
libbcc.so.0:_ZN4llvm12SCEVExpander21generateOverflowCheckEPKNS_14SCEVAddRecExprEPNS_11InstructionEb
libbcc.so.0:_ZN4llvm12SCEVExpander21isNormalAddRecExprPHIEPNS_7PHINodeEPNS_11InstructionEPKNS_4LoopE
libbcc.so.0:_ZN4llvm12SCEVExpander22expandCodeForPredicateEPKNS_13SCEVPredicateEPNS_11InstructionE
libbcc.so.0:_ZN4llvm12SCEVExpander22expandComparePredicateEPKNS_20SCEVComparePredicateEPNS_11InstructionE
libbcc.so.0:_ZN4llvm12SCEVExpander23FindValueInExprValueMapEPKNS_4SCEVEPKNS_11InstructionE
libbcc.so.0:_ZN4llvm12SCEVExpander23isExpandedAddRecExprPHIEPNS_7PHINodeEPNS_11InstructionEPKNS_4LoopE
libbcc.so.0:_ZN4llvm12SCEVExpander23visitSequentialUMinExprEPKNS_22SCEVSequentialUMinExprE
libbcc.so.0:_ZN4llvm12SCEVExpander25expandAddRecExprLiterallyEPKNS_14SCEVAddRecExprE
libbcc.so.0:_ZN4llvm12SCEVExpander25getAddRecExprPHILiterallyEPKNS_14SCEVAddRecExprEPKNS_4LoopEPNS_4TypeES8_RS8_Rb
libbcc.so.0:_ZN4llvm12SCEVExpander25isHighCostExpansionHelperERKNS_11SCEVOperandEPNS_4LoopERKNS_11InstructionERNS_15InstructionCostEjRKNS_19TargetTransformInfoERNS_15SmallPtrSetImplIPKNS_4SCEVEEERNS_15SmallVectorImplIS1_EE
libbcc.so.0:_ZN4llvm12SCEVExpander27getRelatedExistingExpansionEPKNS_4SCEVEPKNS_11InstructionEPNS_4LoopE
libbcc.so.0:_ZN4llvm12SCEVExpander6expandEPKNS_4SCEVE
libbcc.so.0:_ZN4llvm12SMDiagnosticC1ERKNS_9SourceMgrENS_5SMLocENS_9StringRefEiiNS1_8DiagKindES5_S5_NS_8ArrayRefISt4pairIjjEEENS7_INS_7SMFixItEEE
libbcc.so.0:_ZN4llvm12SMDiagnosticC2ERKNS_9SourceMgrENS_5SMLocENS_9StringRefEiiNS1_8DiagKindES5_S5_NS_8ArrayRefISt4pairIjjEEENS7_INS_7SMFixItEEE
libbcc.so.0:_ZN4llvm12SelectionDAG10DeleteNodeEPNS_6SDNodeE
libbcc.so.0:_ZN4llvm12SelectionDAG10InsertNodeEPNS_6SDNodeE
libbcc.so.0:_ZN4llvm12SelectionDAG10LegalizeOpEPNS_6SDNodeERNS_14SmallSetVectorIS2_Lj16EEE
libbcc.so.0:_ZN4llvm12SelectionDAG10getBitcastENS_3EVTENS_7SDValueE
libbcc.so.0:_ZN4llvm12SelectionDAG10getEHLabelERKNS_5SDLocENS_7SDValueEPNS_8MCSymbolE
libbcc.so.0:_ZN4llvm12SelectionDAG10getExtLoadENS_3ISD11LoadExtTypeERKNS_5SDLocENS_3EVTENS_7SDValueES7_NS_18MachinePointerInfoES6_NS_10MaybeAlignENS_17MachineMemOperand5FlagsERKNS_9AAMDNodesE
libbcc.so.0:_ZN4llvm12SelectionDAG10getExtLoadENS_3ISD11LoadExtTypeERKNS_5SDLocENS_3EVTENS_7SDValueES7_S6_PNS_17MachineMemOperandE
libbcc.so.0:_ZN4llvm12SelectionDAG10getMemmoveENS_7SDValueERKNS_5SDLocES1_S1_S1_NS_5AlignEbbNS_18MachinePointerInfoES6_RKNS_9AAMDNodesEPNS_9AAResultsE
libbcc.so.0:_ZN4llvm12SelectionDAG10getStoreVPENS_7SDValueERKNS_5SDLocES1_S1_S1_S1_S1_NS_3EVTEPNS_17MachineMemOperandENS_3ISD14MemIndexedModeEbb
libbcc.so.0:_ZN4llvm12SelectionDAG11AddDbgLabelEPNS_10SDDbgLabelE
libbcc.so.0:_ZN4llvm12SelectionDAG11AddDbgValueEPNS_10SDDbgValueEb
libbcc.so.0:_ZN4llvm12SelectionDAG11MorphNodeToEPNS_6SDNodeEjNS_8SDVTListENS_8ArrayRefINS_7SDValueEEE
libbcc.so.0:_ZN4llvm12SelectionDAG11SplitVectorERKNS_7SDValueERKNS_5SDLocERKNS_3EVTES9_
libbcc.so.0:_ZN4llvm12SelectionDAG11WidenVectorERKNS_7SDValueERKNS_5SDLocE
libbcc.so.0:_ZN4llvm12SelectionDAG11expandVAArgEPNS_6SDNodeE
libbcc.so.0:_ZN4llvm12SelectionDAG11getCondCodeENS_3ISD8CondCodeE
libbcc.so.0:_ZN4llvm12SelectionDAG11getConstantERKNS_11ConstantIntERKNS_5SDLocENS_3EVTEbb
libbcc.so.0:_ZN4llvm12SelectionDAG11getConstantERKNS_5APIntERKNS_5SDLocENS_3EVTEbb
libbcc.so.0:_ZN4llvm12SelectionDAG11getConstantEmRKNS_5SDLocENS_3EVTEbb
libbcc.so.0:_ZN4llvm12SelectionDAG11getDbgLabelEPNS_7DILabelERKNS_8DebugLocEj
libbcc.so.0:_ZN4llvm12SelectionDAG11getDbgValueEPNS_10DIVariableEPNS_12DIExpressionEPNS_6SDNodeEjbRKNS_8DebugLocEj
libbcc.so.0:_ZN4llvm12SelectionDAG11getGatherVPENS_8SDVTListENS_3EVTERKNS_5SDLocENS_8ArrayRefINS_7SDValueEEEPNS_17MachineMemOperandENS_3ISD12MemIndexTypeE
libbcc.so.0:_ZN4llvm12SelectionDAG11getMCSymbolEPNS_8MCSymbolENS_3EVTE
libbcc.so.0:_ZN4llvm12SelectionDAG11getRegisterEjNS_3EVTE
libbcc.so.0:_ZN4llvm12SelectionDAG11getSrcValueEPKNS_5ValueE
libbcc.so.0:_ZN4llvm12SelectionDAG12SelectNodeToEPNS_6SDNodeEjNS_3EVTE
libbcc.so.0:_ZN4llvm12SelectionDAG12SelectNodeToEPNS_6SDNodeEjNS_3EVTENS_7SDValueE
libbcc.so.0:_ZN4llvm12SelectionDAG12SelectNodeToEPNS_6SDNodeEjNS_3EVTENS_7SDValueES4_
libbcc.so.0:_ZN4llvm12SelectionDAG12SelectNodeToEPNS_6SDNodeEjNS_3EVTENS_7SDValueES4_S4_
libbcc.so.0:_ZN4llvm12SelectionDAG12SelectNodeToEPNS_6SDNodeEjNS_3EVTENS_8ArrayRefINS_7SDValueEEE
libbcc.so.0:_ZN4llvm12SelectionDAG12SelectNodeToEPNS_6SDNodeEjNS_3EVTES3_
libbcc.so.0:_ZN4llvm12SelectionDAG12SelectNodeToEPNS_6SDNodeEjNS_3EVTES3_NS_7SDValueES4_
libbcc.so.0:_ZN4llvm12SelectionDAG12SelectNodeToEPNS_6SDNodeEjNS_3EVTES3_NS_8ArrayRefINS_7SDValueEEE
libbcc.so.0:_ZN4llvm12SelectionDAG12SelectNodeToEPNS_6SDNodeEjNS_3EVTES3_S3_NS_8ArrayRefINS_7SDValueEEE
libbcc.so.0:_ZN4llvm12SelectionDAG12SelectNodeToEPNS_6SDNodeEjNS_8SDVTListENS_8ArrayRefINS_7SDValueEEE
libbcc.so.0:_ZN4llvm12SelectionDAG12expandVACopyEPNS_6SDNodeE
libbcc.so.0:_ZN4llvm12SelectionDAG12getExtLoadVPENS_3ISD11LoadExtTypeERKNS_5SDLocENS_3EVTENS_7SDValueES7_S7_S7_NS_18MachinePointerInfoES6_NS_10MaybeAlignENS_17MachineMemOperand5FlagsERKNS_9AAMDNodesEb
libbcc.so.0:_ZN4llvm12SelectionDAG12getExtLoadVPENS_3ISD11LoadExtTypeERKNS_5SDLocENS_3EVTENS_7SDValueES7_S7_S7_S6_PNS_17MachineMemOperandEb
libbcc.so.0:_ZN4llvm12SelectionDAG12getJumpTableEiNS_3EVTEbj
libbcc.so.0:_ZN4llvm12SelectionDAG12getLabelNodeEjRKNS_5SDLocENS_7SDValueEPNS_8MCSymbolE
libbcc.so.0:_ZN4llvm12SelectionDAG12getScatterVPENS_8SDVTListENS_3EVTERKNS_5SDLocENS_8ArrayRefINS_7SDValueEEEPNS_17MachineMemOperandENS_3ISD12MemIndexTypeE
libbcc.so.0:_ZN4llvm12SelectionDAG12getValueTypeENS_3EVTE
libbcc.so.0:_ZN4llvm12SelectionDAG13LegalizeTypesEv
libbcc.so.0:_ZN4llvm12SelectionDAG13doesNodeExistEjNS_8SDVTListENS_8ArrayRefINS_7SDValueEEE
libbcc.so.0:_ZN4llvm12SelectionDAG13getBasicBlockEPNS_17MachineBasicBlockE
libbcc.so.0:_ZN4llvm12SelectionDAG13getConstantFPERKNS_10ConstantFPERKNS_5SDLocENS_3EVTEb
libbcc.so.0:_ZN4llvm12SelectionDAG13getConstantFPERKNS_7APFloatERKNS_5SDLocENS_3EVTEb
libbcc.so.0:_ZN4llvm12SelectionDAG13getConstantFPEdRKNS_5SDLocENS_3EVTEb
libbcc.so.0:_ZN4llvm12SelectionDAG13getFrameIndexEiNS_3EVTEb
libbcc.so.0:_ZN4llvm12SelectionDAG13getLogicalNOTERKNS_5SDLocENS_7SDValueENS_3EVTE
libbcc.so.0:_ZN4llvm12SelectionDAG13getMaskedLoadENS_3EVTERKNS_5SDLocENS_7SDValueES5_S5_S5_S5_S1_PNS_17MachineMemOperandENS_3ISD14MemIndexedModeENS8_11LoadExtTypeEb
libbcc.so.0:_ZN4llvm12SelectionDAG13getSplatValueENS_7SDValueEb
libbcc.so.0:_ZN4llvm12SelectionDAG13getStepVectorERKNS_5SDLocENS_3EVTE
libbcc.so.0:_ZN4llvm12SelectionDAG13getStepVectorERKNS_5SDLocENS_3EVTENS_5APIntE
libbcc.so.0:_ZN4llvm12SelectionDAG13getTruncStoreENS_7SDValueERKNS_5SDLocES1_S1_NS_18MachinePointerInfoENS_3EVTENS_5AlignENS_17MachineMemOperand5FlagsERKNS_9AAMDNodesE
libbcc.so.0:_ZN4llvm12SelectionDAG13getTruncStoreENS_7SDValueERKNS_5SDLocES1_S1_NS_3EVTEPNS_17MachineMemOperandE
libbcc.so.0:_ZN4llvm12SelectionDAG13setGraphAttrsEPKNS_6SDNodeEPKc
libbcc.so.0:_ZN4llvm12SelectionDAG13setGraphColorEPKNS_6SDNodeEPKc
libbcc.so.0:_ZN4llvm12SelectionDAG13simplifyShiftENS_7SDValueES1_
libbcc.so.0:_ZN4llvm12SelectionDAG14DeallocateNodeEPNS_6SDNodeE
libbcc.so.0:_ZN4llvm12SelectionDAG14RemoveDeadNodeEPNS_6SDNodeE
libbcc.so.0:_ZN4llvm12SelectionDAG14UnrollVectorOpEPNS_6SDNodeEj
libbcc.so.0:_ZN4llvm12SelectionDAG14allnodes_clearEv
libbcc.so.0:_ZN4llvm12SelectionDAG14createOperandsEPNS_6SDNodeENS_8ArrayRefINS_7SDValueEEE
libbcc.so.0:_ZN4llvm12SelectionDAG14getAssertAlignERKNS_5SDLocENS_7SDValueENS_5AlignE
libbcc.so.0:_ZN4llvm12SelectionDAG14getIndexedLoadENS_7SDValueERKNS_5SDLocES1_S1_NS_3ISD14MemIndexedModeE
libbcc.so.0:_ZN4llvm12SelectionDAG14getMachineNodeEjRKNS_5SDLocENS_3EVTE
libbcc.so.0:_ZN4llvm12SelectionDAG14getMachineNodeEjRKNS_5SDLocENS_3EVTENS_7SDValueE
libbcc.so.0:_ZN4llvm12SelectionDAG14getMachineNodeEjRKNS_5SDLocENS_3EVTENS_7SDValueES5_
libbcc.so.0:_ZN4llvm12SelectionDAG14getMachineNodeEjRKNS_5SDLocENS_3EVTENS_7SDValueES5_S5_
libbcc.so.0:_ZN4llvm12SelectionDAG14getMachineNodeEjRKNS_5SDLocENS_3EVTENS_8ArrayRefINS_7SDValueEEE
libbcc.so.0:_ZN4llvm12SelectionDAG14getMachineNodeEjRKNS_5SDLocENS_3EVTES4_NS_7SDValueES5_
libbcc.so.0:_ZN4llvm12SelectionDAG14getMachineNodeEjRKNS_5SDLocENS_3EVTES4_NS_7SDValueES5_S5_
libbcc.so.0:_ZN4llvm12SelectionDAG14getMachineNodeEjRKNS_5SDLocENS_3EVTES4_NS_8ArrayRefINS_7SDValueEEE
libbcc.so.0:_ZN4llvm12SelectionDAG14getMachineNodeEjRKNS_5SDLocENS_3EVTES4_S4_NS_7SDValueES5_
libbcc.so.0:_ZN4llvm12SelectionDAG14getMachineNodeEjRKNS_5SDLocENS_3EVTES4_S4_NS_7SDValueES5_S5_
libbcc.so.0:_ZN4llvm12SelectionDAG14getMachineNodeEjRKNS_5SDLocENS_3EVTES4_S4_NS_8ArrayRefINS_7SDValueEEE
libbcc.so.0:_ZN4llvm12SelectionDAG14getMachineNodeEjRKNS_5SDLocENS_8ArrayRefINS_3EVTEEENS4_INS_7SDValueEEE
libbcc.so.0:_ZN4llvm12SelectionDAG14getMachineNodeEjRKNS_5SDLocENS_8SDVTListENS_8ArrayRefINS_7SDValueEEE
libbcc.so.0:_ZN4llvm12SelectionDAG14getMaskedStoreENS_7SDValueERKNS_5SDLocES1_S1_S1_S1_NS_3EVTEPNS_17MachineMemOperandENS_3ISD14MemIndexedModeEbb
libbcc.so.0:_ZN4llvm12SelectionDAG14getMergeValuesENS_8ArrayRefINS_7SDValueEEERKNS_5SDLocE
libbcc.so.0:_ZN4llvm12SelectionDAG14getSExtOrTruncENS_7SDValueERKNS_5SDLocENS_3EVTE
libbcc.so.0:_ZN4llvm12SelectionDAG14getTargetIndexEiNS_3EVTElj
libbcc.so.0:_ZN4llvm12SelectionDAG14getTokenFactorERKNS_5SDLocERNS_15SmallVectorImplINS_7SDValueEEE
libbcc.so.0:_ZN4llvm12SelectionDAG14getZExtOrTruncENS_7SDValueERKNS_5SDLocENS_3EVTE
libbcc.so.0:_ZN4llvm12SelectionDAG14setNodeMemRefsEPNS_13MachineSDNodeENS_8ArrayRefIPNS_17MachineMemOperandEEE
libbcc.so.0:_ZN4llvm12SelectionDAG14simplifySelectENS_7SDValueES1_S1_
libbcc.so.0:_ZN4llvm12SelectionDAG15GetDemandedBitsENS_7SDValueERKNS_5APIntE
libbcc.so.0:_ZN4llvm12SelectionDAG15LegalizeVectorsEv
libbcc.so.0:_ZN4llvm12SelectionDAG15RemoveDeadNodesERNS_15SmallVectorImplIPNS_6SDNodeEEE
libbcc.so.0:_ZN4llvm12SelectionDAG15RemoveDeadNodesEv
libbcc.so.0:_ZN4llvm12SelectionDAG15clearGraphAttrsEv
libbcc.so.0:_ZN4llvm12SelectionDAG15getAtomicMemcpyENS_7SDValueERKNS_5SDLocES1_S1_S1_PNS_4TypeEjbNS_18MachinePointerInfoES7_
libbcc.so.0:_ZN4llvm12SelectionDAG15getAtomicMemsetENS_7SDValueERKNS_5SDLocES1_S1_S1_PNS_4TypeEjbNS_18MachinePointerInfoE
libbcc.so.0:_ZN4llvm12SelectionDAG15getBlockAddressEPKNS_12BlockAddressENS_3EVTElbj
libbcc.so.0:_ZN4llvm12SelectionDAG15getBoolConstantEbRKNS_5SDLocENS_3EVTES4_
libbcc.so.0:_ZN4llvm12SelectionDAG15getConstantPoolEPKNS_8ConstantENS_3EVTENS_10MaybeAlignEibj
libbcc.so.0:_ZN4llvm12SelectionDAG15getConstantPoolEPNS_24MachineConstantPoolValueENS_3EVTENS_10MaybeAlignEibj
libbcc.so.0:_ZN4llvm12SelectionDAG15getDbgValueListEPNS_10DIVariableEPNS_12DIExpressionENS_8ArrayRefINS_12SDDbgOperandEEENS5_IPNS_6SDNodeEEEbRKNS_8DebugLocEjb
libbcc.so.0:_ZN4llvm12SelectionDAG15getIndexedStoreENS_7SDValueERKNS_5SDLocES1_S1_NS_3ISD14MemIndexedModeE
libbcc.so.0:_ZN4llvm12SelectionDAG15getLifetimeNodeEbRKNS_5SDLocENS_7SDValueEill
libbcc.so.0:_ZN4llvm12SelectionDAG15getMaskedGatherENS_8SDVTListENS_3EVTERKNS_5SDLocENS_8ArrayRefINS_7SDValueEEEPNS_17MachineMemOperandENS_3ISD12MemIndexTypeENSB_11LoadExtTypeE
libbcc.so.0:_ZN4llvm12SelectionDAG15getNodeIfExistsEjNS_8SDVTListENS_8ArrayRefINS_7SDValueEEE
libbcc.so.0:_ZN4llvm12SelectionDAG15getNodeIfExistsEjNS_8SDVTListENS_8ArrayRefINS_7SDValueEEENS_11SDNodeFlagsE
libbcc.so.0:_ZN4llvm12SelectionDAG15getReducedAlignENS_3EVTEb
libbcc.so.0:_ZN4llvm12SelectionDAG15getRegisterMaskEPKj
libbcc.so.0:_ZN4llvm12SelectionDAG15getTruncStoreVPENS_7SDValueERKNS_5SDLocES1_S1_S1_S1_NS_18MachinePointerInfoENS_3EVTENS_5AlignENS_17MachineMemOperand5FlagsERKNS_9AAMDNodesEb
libbcc.so.0:_ZN4llvm12SelectionDAG15getTruncStoreVPENS_7SDValueERKNS_5SDLocES1_S1_S1_S1_NS_3EVTEPNS_17MachineMemOperandEb
libbcc.so.0:_ZN4llvm12SelectionDAG15getVPLogicalNOTERKNS_5SDLocENS_7SDValueES4_S4_NS_3EVTE
libbcc.so.0:_ZN4llvm12SelectionDAG15getVRegDbgValueEPNS_10DIVariableEPNS_12DIExpressionEjbRKNS_8DebugLocEj
libbcc.so.0:_ZN4llvm12SelectionDAG15simplifyFPBinopEjNS_7SDValueES1_NS_11SDNodeFlagsE
libbcc.so.0:_ZN4llvm12SelectionDAG16FoldSymbolOffsetEjNS_3EVTEPKNS_19GlobalAddressSDNodeEPKNS_6SDNodeE
libbcc.so.0:_ZN4llvm12SelectionDAG16getAddrSpaceCastERKNS_5SDLocENS_3EVTENS_7SDValueEjj
libbcc.so.0:_ZN4llvm12SelectionDAG16getAnyExtOrTruncENS_7SDValueERKNS_5SDLocENS_3EVTE
libbcc.so.0:_ZN4llvm12SelectionDAG16getAtomicCmpSwapEjRKNS_5SDLocENS_3EVTENS_8SDVTListENS_7SDValueES6_S6_S6_PNS_17MachineMemOperandE
libbcc.so.0:_ZN4llvm12SelectionDAG16getAtomicMemmoveENS_7SDValueERKNS_5SDLocES1_S1_S1_PNS_4TypeEjbNS_18MachinePointerInfoES7_
libbcc.so.0:_ZN4llvm12SelectionDAG16getGlobalAddressEPKNS_11GlobalValueERKNS_5SDLocENS_3EVTElbj
libbcc.so.0:_ZN4llvm12SelectionDAG16getIndexedLoadVPENS_7SDValueERKNS_5SDLocES1_S1_NS_3ISD14MemIndexedModeE
libbcc.so.0:_ZN4llvm12SelectionDAG16getMaskedScatterENS_8SDVTListENS_3EVTERKNS_5SDLocENS_8ArrayRefINS_7SDValueEEEPNS_17MachineMemOperandENS_3ISD12MemIndexTypeEb
libbcc.so.0:_ZN4llvm12SelectionDAG16getPtrExtOrTruncENS_7SDValueERKNS_5SDLocENS_3EVTE
libbcc.so.0:_ZN4llvm12SelectionDAG16getStridedLoadVPENS_3EVTERKNS_5SDLocENS_7SDValueES5_S5_S5_S5_NS_18MachinePointerInfoENS_10MaybeAlignENS_17MachineMemOperand5FlagsERKNS_9AAMDNodesEPKNS_6MDNodeEb
libbcc.so.0:_ZN4llvm12SelectionDAG16getStridedLoadVPENS_3EVTERKNS_5SDLocENS_7SDValueES5_S5_S5_S5_PNS_17MachineMemOperandEb
libbcc.so.0:_ZN4llvm12SelectionDAG16getStridedLoadVPENS_3ISD14MemIndexedModeENS1_11LoadExtTypeENS_3EVTERKNS_5SDLocENS_7SDValueES8_S8_S8_S8_S8_NS_18MachinePointerInfoES4_NS_5AlignENS_17MachineMemOperand5FlagsERKNS_9AAMDNodesEPKNS_6MDNodeEb
libbcc.so.0:_ZN4llvm12SelectionDAG16getStridedLoadVPENS_3ISD14MemIndexedModeENS1_11LoadExtTypeENS_3EVTERKNS_5SDLocENS_7SDValueES8_S8_S8_S8_S8_S4_PNS_17MachineMemOperandEb
libbcc.so.0:_ZN4llvm12SelectionDAG16getVectorShuffleENS_3EVTERKNS_5SDLocENS_7SDValueES5_NS_8ArrayRefIiEE
libbcc.so.0:_ZN4llvm12SelectionDAG16salvageDebugInfoERNS_6SDNodeE
libbcc.so.0:_ZN4llvm12SelectionDAG16setSubgraphColorEPNS_6SDNodeEPKc
libbcc.so.0:_ZN4llvm12SelectionDAG16updateDivergenceEPNS_6SDNodeE
libbcc.so.0:_ZN4llvm12SelectionDAG17DAGUpdateListener11NodeDeletedEPNS_6SDNodeES3_
libbcc.so.0:_ZN4llvm12SelectionDAG17DAGUpdateListener11NodeUpdatedEPNS_6SDNodeE
libbcc.so.0:_ZN4llvm12SelectionDAG17DAGUpdateListener12NodeInsertedEPNS_6SDNodeE
libbcc.so.0:_ZN4llvm12SelectionDAG17getBoolExtOrTruncENS_7SDValueERKNS_5SDLocENS_3EVTES5_
libbcc.so.0:_ZN4llvm12SelectionDAG17getExternalSymbolEPKcNS_3EVTE
libbcc.so.0:_ZN4llvm12SelectionDAG17getIndexedStoreVPENS_7SDValueERKNS_5SDLocES1_S1_NS_3ISD14MemIndexedModeE
libbcc.so.0:_ZN4llvm12SelectionDAG17getIntPtrConstantEmRKNS_5SDLocEb
libbcc.so.0:_ZN4llvm12SelectionDAG17getNeutralElementEjRKNS_5SDLocENS_3EVTENS_11SDNodeFlagsE
libbcc.so.0:_ZN4llvm12SelectionDAG17getPtrExtendInRegENS_7SDValueERKNS_5SDLocENS_3EVTE
libbcc.so.0:_ZN4llvm12SelectionDAG17getStridedStoreVPENS_7SDValueERKNS_5SDLocES1_S1_S1_S1_S1_S1_NS_3EVTEPNS_17MachineMemOperandENS_3ISD14MemIndexedModeEbb
libbcc.so.0:_ZN4llvm12SelectionDAG17transferDbgValuesENS_7SDValueES1_jjb
libbcc.so.0:_ZN4llvm12SelectionDAG18ReplaceAllUsesWithENS_7SDValueES1_
libbcc.so.0:_ZN4llvm12SelectionDAG18ReplaceAllUsesWithEPNS_6SDNodeEPKNS_7SDValueE
libbcc.so.0:_ZN4llvm12SelectionDAG18ReplaceAllUsesWithEPNS_6SDNodeES2_
libbcc.so.0:_ZN4llvm12SelectionDAG18UpdateNodeOperandsEPNS_6SDNodeENS_7SDValueE
libbcc.so.0:_ZN4llvm12SelectionDAG18UpdateNodeOperandsEPNS_6SDNodeENS_7SDValueES3_
libbcc.so.0:_ZN4llvm12SelectionDAG18UpdateNodeOperandsEPNS_6SDNodeENS_7SDValueES3_S3_
libbcc.so.0:_ZN4llvm12SelectionDAG18UpdateNodeOperandsEPNS_6SDNodeENS_7SDValueES3_S3_S3_
libbcc.so.0:_ZN4llvm12SelectionDAG18UpdateNodeOperandsEPNS_6SDNodeENS_7SDValueES3_S3_S3_S3_
libbcc.so.0:_ZN4llvm12SelectionDAG18UpdateNodeOperandsEPNS_6SDNodeENS_8ArrayRefINS_7SDValueEEE
libbcc.so.0:_ZN4llvm12SelectionDAG18foldConstantFPMathEjRKNS_5SDLocENS_3EVTENS_7SDValueES5_
libbcc.so.0:_ZN4llvm12SelectionDAG18getFPExtendOrRoundENS_7SDValueERKNS_5SDLocENS_3EVTE
libbcc.so.0:_ZN4llvm12SelectionDAG18getPseudoProbeNodeERKNS_5SDLocENS_7SDValueEmmj
libbcc.so.0:_ZN4llvm12SelectionDAG18getZeroExtendInRegENS_7SDValueERKNS_5SDLocENS_3EVTE
libbcc.so.0:_ZN4llvm12SelectionDAG18mutateStrictFPToFPEPNS_6SDNodeE
libbcc.so.0:_ZN4llvm12SelectionDAG19FindNodeOrInsertPosERKNS_16FoldingSetNodeIDERKNS_5SDLocERPv
libbcc.so.0:_ZN4llvm12SelectionDAG19FindNodeOrInsertPosERKNS_16FoldingSetNodeIDERPv
libbcc.so.0:_ZN4llvm12SelectionDAG19calculateDivergenceEPNS_6SDNodeE
libbcc.so.0:_ZN4llvm12SelectionDAG19getConstantDbgValueEPNS_10DIVariableEPNS_12DIExpressionEPKNS_5ValueERKNS_8DebugLocEj
libbcc.so.0:_ZN4llvm12SelectionDAG19getExtStridedLoadVPENS_3ISD11LoadExtTypeERKNS_5SDLocENS_3EVTENS_7SDValueES7_S7_S7_S7_NS_18MachinePointerInfoES6_NS_10MaybeAlignENS_17MachineMemOperand5FlagsERKNS_9AAMDNodesEb
libbcc.so.0:_ZN4llvm12SelectionDAG19getExtStridedLoadVPENS_3ISD11LoadExtTypeERKNS_5SDLocENS_3EVTENS_7SDValueES7_S7_S7_S7_S6_PNS_17MachineMemOperandEb
libbcc.so.0:_ZN4llvm12SelectionDAG19getMemIntrinsicNodeEjRKNS_5SDLocENS_8SDVTListENS_8ArrayRefINS_7SDValueEEENS_3EVTENS_18MachinePointerInfoENS_5AlignENS_17MachineMemOperand5FlagsEmRKNS_9AAMDNodesE
libbcc.so.0:_ZN4llvm12SelectionDAG19getMemIntrinsicNodeEjRKNS_5SDLocENS_8SDVTListENS_8ArrayRefINS_7SDValueEEENS_3EVTEPNS_17MachineMemOperandE
libbcc.so.0:_ZN4llvm12SelectionDAG19matchBinOpReductionEPNS_6SDNodeERNS_3ISD8NodeTypeENS_8ArrayRefIS4_EEb
libbcc.so.0:_ZN4llvm12SelectionDAG20CreateStackTemporaryENS_3EVTES1_
libbcc.so.0:_ZN4llvm12SelectionDAG20CreateStackTemporaryENS_3EVTEj
libbcc.so.0:_ZN4llvm12SelectionDAG20CreateStackTemporaryENS_8TypeSizeENS_5AlignE
libbcc.so.0:_ZN4llvm12SelectionDAG20FindModifiedNodeSlotEPNS_6SDNodeENS_7SDValueERPv
libbcc.so.0:_ZN4llvm12SelectionDAG20FindModifiedNodeSlotEPNS_6SDNodeENS_7SDValueES3_RPv
libbcc.so.0:_ZN4llvm12SelectionDAG20FindModifiedNodeSlotEPNS_6SDNodeENS_8ArrayRefINS_7SDValueEEERPv
libbcc.so.0:_ZN4llvm12SelectionDAG20getIndexedMaskedLoadENS_7SDValueERKNS_5SDLocES1_S1_NS_3ISD14MemIndexedModeE
libbcc.so.0:_ZN4llvm12SelectionDAG20getMemBasePlusOffsetENS_7SDValueENS_8TypeSizeERKNS_5SDLocENS_11SDNodeFlagsE
libbcc.so.0:_ZN4llvm12SelectionDAG20getMemBasePlusOffsetENS_7SDValueES1_RKNS_5SDLocENS_11SDNodeFlagsE
libbcc.so.0:_ZN4llvm12SelectionDAG20getSplatSourceVectorENS_7SDValueERi
libbcc.so.0:_ZN4llvm12SelectionDAG20getVectorIdxConstantEmRKNS_5SDLocEb
libbcc.so.0:_ZN4llvm12SelectionDAG21ExtractVectorElementsENS_7SDValueERNS_15SmallVectorImplIS1_EEjjNS_3EVTE
libbcc.so.0:_ZN4llvm12SelectionDAG21RemoveNodeFromCSEMapsEPNS_6SDNodeE
libbcc.so.0:_ZN4llvm12SelectionDAG21getFrameIndexDbgValueEPNS_10DIVariableEPNS_12DIExpressionEjNS_8ArrayRefIPNS_6SDNodeEEEbRKNS_8DebugLocEj
libbcc.so.0:_ZN4llvm12SelectionDAG21getFrameIndexDbgValueEPNS_10DIVariableEPNS_12DIExpressionEjbRKNS_8DebugLocEj
libbcc.so.0:_ZN4llvm12SelectionDAG21getIndexedMaskedStoreENS_7SDValueERKNS_5SDLocES1_S1_NS_3ISD14MemIndexedModeE
libbcc.so.0:_ZN4llvm12SelectionDAG21getShiftAmountOperandENS_3EVTENS_7SDValueE
libbcc.so.0:_ZN4llvm12SelectionDAG21getTargetInsertSubregEiRKNS_5SDLocENS_3EVTENS_7SDValueES5_
libbcc.so.0:_ZN4llvm12SelectionDAG22AssignTopologicalOrderEv
libbcc.so.0:_ZN4llvm12SelectionDAG22CreateTopologicalOrderERSt6vectorIPNS_6SDNodeESaIS3_EE
libbcc.so.0:_ZN4llvm12SelectionDAG22DAGNodeDeletedListener6anchorEv
libbcc.so.0:_ZN4llvm12SelectionDAG22DeleteNodeNotInCSEMapsEPNS_6SDNodeE
libbcc.so.0:_ZN4llvm12SelectionDAG22FoldConstantArithmeticEjRKNS_5SDLocENS_3EVTENS_8ArrayRefINS_7SDValueEEE
libbcc.so.0:_ZN4llvm12SelectionDAG22UnrollVectorOverflowOpEPNS_6SDNodeEj
libbcc.so.0:_ZN4llvm12SelectionDAG22getShiftAmountConstantEmNS_3EVTERKNS_5SDLocEb
libbcc.so.0:_ZN4llvm12SelectionDAG22getTargetExtractSubregEiRKNS_5SDLocENS_3EVTENS_7SDValueE
libbcc.so.0:_ZN4llvm12SelectionDAG22getTruncStridedStoreVPENS_7SDValueERKNS_5SDLocES1_S1_S1_S1_S1_NS_18MachinePointerInfoENS_3EVTENS_5AlignENS_17MachineMemOperand5FlagsERKNS_9AAMDNodesEb
libbcc.so.0:_ZN4llvm12SelectionDAG22getTruncStridedStoreVPENS_7SDValueERKNS_5SDLocES1_S1_S1_S1_S1_NS_3EVTEPNS_17MachineMemOperandEb
libbcc.so.0:_ZN4llvm12SelectionDAG22setSubgraphColorHelperEPNS_6SDNodeEPKcRNS_8DenseSetIS2_NS_12DenseMapInfoIS2_vEEEEiRb
libbcc.so.0:_ZN4llvm12SelectionDAG23getIndexedStridedLoadVPENS_7SDValueERKNS_5SDLocES1_S1_NS_3ISD14MemIndexedModeE
libbcc.so.0:_ZN4llvm12SelectionDAG23getTargetExternalSymbolEPKcNS_3EVTEj
libbcc.so.0:_ZN4llvm12SelectionDAG24AddModifiedNodeToCSEMapsEPNS_6SDNodeE
libbcc.so.0:_ZN4llvm12SelectionDAG24UpdateSDLocOnMergeSDNodeEPNS_6SDNodeERKNS_5SDLocE
libbcc.so.0:_ZN4llvm12SelectionDAG24getCommutedVectorShuffleERKNS_19ShuffleVectorSDNodeE
libbcc.so.0:_ZN4llvm12SelectionDAG24getIndexedStridedStoreVPENS_7SDValueERKNS_5SDLocES1_S1_NS_3ISD14MemIndexedModeE
libbcc.so.0:_ZN4llvm12SelectionDAG24getStrictFPExtendOrRoundENS_7SDValueES1_RKNS_5SDLocENS_3EVTE
libbcc.so.0:_ZN4llvm12SelectionDAG25ReplaceAllUsesOfValueWithENS_7SDValueES1_
libbcc.so.0:_ZN4llvm12SelectionDAG26ReplaceAllUsesOfValuesWithEPKNS_7SDValueES3_j
libbcc.so.0:_ZN4llvm12SelectionDAG27getStackArgumentTokenFactorENS_7SDValueE
libbcc.so.0:_ZN4llvm12SelectionDAG28makeEquivalentMemoryOrderingENS_7SDValueES1_
libbcc.so.0:_ZN4llvm12SelectionDAG28makeEquivalentMemoryOrderingEPNS_10LoadSDNodeENS_7SDValueE
libbcc.so.0:_ZN4llvm12SelectionDAG30getSymbolFunctionGlobalAddressENS_7SDValueEPPNS_8FunctionE
libbcc.so.0:_ZN4llvm12SelectionDAG4initERNS_15MachineFunctionERNS_25OptimizationRemarkEmitterEPNS_4PassEPKNS_17TargetLibraryInfoEPNS_24LegacyDivergenceAnalysisEPNS_18ProfileSummaryInfoEPNS_18BlockFrequencyInfoE
libbcc.so.0:_ZN4llvm12SelectionDAG5clearEv
libbcc.so.0:_ZN4llvm12SelectionDAG6getNOTERKNS_5SDLocENS_7SDValueENS_3EVTE
libbcc.so.0:_ZN4llvm12SelectionDAG7CombineENS_12CombineLevelEPNS_9AAResultsENS_10CodeGenOpt5LevelE
libbcc.so.0:_ZN4llvm12SelectionDAG7getLoadENS_3EVTERKNS_5SDLocENS_7SDValueES5_NS_18MachinePointerInfoENS_10MaybeAlignENS_17MachineMemOperand5FlagsERKNS_9AAMDNodesEPKNS_6MDNodeE
libbcc.so.0:_ZN4llvm12SelectionDAG7getLoadENS_3EVTERKNS_5SDLocENS_7SDValueES5_PNS_17MachineMemOperandE
libbcc.so.0:_ZN4llvm12SelectionDAG7getLoadENS_3ISD14MemIndexedModeENS1_11LoadExtTypeENS_3EVTERKNS_5SDLocENS_7SDValueES8_S8_NS_18MachinePointerInfoES4_NS_5AlignENS_17MachineMemOperand5FlagsERKNS_9AAMDNodesEPKNS_6MDNodeE
libbcc.so.0:_ZN4llvm12SelectionDAG7getLoadENS_3ISD14MemIndexedModeENS1_11LoadExtTypeENS_3EVTERKNS_5SDLocENS_7SDValueES8_S8_S4_PNS_17MachineMemOperandE
libbcc.so.0:_ZN4llvm12SelectionDAG7getNodeEjRKNS_5SDLocENS_3EVTE
libbcc.so.0:_ZN4llvm12SelectionDAG7getNodeEjRKNS_5SDLocENS_3EVTENS_7SDValueE
libbcc.so.0:_ZN4llvm12SelectionDAG7getNodeEjRKNS_5SDLocENS_3EVTENS_7SDValueENS_11SDNodeFlagsE
libbcc.so.0:_ZN4llvm12SelectionDAG7getNodeEjRKNS_5SDLocENS_3EVTENS_7SDValueES5_
libbcc.so.0:_ZN4llvm12SelectionDAG7getNodeEjRKNS_5SDLocENS_3EVTENS_7SDValueES5_NS_11SDNodeFlagsE
libbcc.so.0:_ZN4llvm12SelectionDAG7getNodeEjRKNS_5SDLocENS_3EVTENS_7SDValueES5_S5_
libbcc.so.0:_ZN4llvm12SelectionDAG7getNodeEjRKNS_5SDLocENS_3EVTENS_7SDValueES5_S5_NS_11SDNodeFlagsE
libbcc.so.0:_ZN4llvm12SelectionDAG7getNodeEjRKNS_5SDLocENS_3EVTENS_7SDValueES5_S5_S5_
libbcc.so.0:_ZN4llvm12SelectionDAG7getNodeEjRKNS_5SDLocENS_3EVTENS_7SDValueES5_S5_S5_S5_
libbcc.so.0:_ZN4llvm12SelectionDAG7getNodeEjRKNS_5SDLocENS_3EVTENS_8ArrayRefINS_5SDUseEEE
libbcc.so.0:_ZN4llvm12SelectionDAG7getNodeEjRKNS_5SDLocENS_3EVTENS_8ArrayRefINS_7SDValueEEE
libbcc.so.0:_ZN4llvm12SelectionDAG7getNodeEjRKNS_5SDLocENS_3EVTENS_8ArrayRefINS_7SDValueEEENS_11SDNodeFlagsE
libbcc.so.0:_ZN4llvm12SelectionDAG7getNodeEjRKNS_5SDLocENS_8ArrayRefINS_3EVTEEENS4_INS_7SDValueEEE
libbcc.so.0:_ZN4llvm12SelectionDAG7getNodeEjRKNS_5SDLocENS_8SDVTListE
libbcc.so.0:_ZN4llvm12SelectionDAG7getNodeEjRKNS_5SDLocENS_8SDVTListENS_7SDValueE
libbcc.so.0:_ZN4llvm12SelectionDAG7getNodeEjRKNS_5SDLocENS_8SDVTListENS_7SDValueES5_
libbcc.so.0:_ZN4llvm12SelectionDAG7getNodeEjRKNS_5SDLocENS_8SDVTListENS_7SDValueES5_S5_
libbcc.so.0:_ZN4llvm12SelectionDAG7getNodeEjRKNS_5SDLocENS_8SDVTListENS_7SDValueES5_S5_S5_
libbcc.so.0:_ZN4llvm12SelectionDAG7getNodeEjRKNS_5SDLocENS_8SDVTListENS_7SDValueES5_S5_S5_S5_
libbcc.so.0:_ZN4llvm12SelectionDAG7getNodeEjRKNS_5SDLocENS_8SDVTListENS_8ArrayRefINS_7SDValueEEE
libbcc.so.0:_ZN4llvm12SelectionDAG7getNodeEjRKNS_5SDLocENS_8SDVTListENS_8ArrayRefINS_7SDValueEEENS_11SDNodeFlagsE
libbcc.so.0:_ZN4llvm12SelectionDAG7isUndefEjNS_8ArrayRefINS_7SDValueEEE
libbcc.so.0:_ZN4llvm12SelectionDAG8LegalizeEv
libbcc.so.0:_ZN4llvm12SelectionDAG8SplitEVLENS_7SDValueENS_3EVTERKNS_5SDLocE
libbcc.so.0:_ZN4llvm12SelectionDAG8getStoreENS_7SDValueERKNS_5SDLocES1_S1_NS_18MachinePointerInfoENS_5AlignENS_17MachineMemOperand5FlagsERKNS_9AAMDNodesE
libbcc.so.0:_ZN4llvm12SelectionDAG8getStoreENS_7SDValueERKNS_5SDLocES1_S1_PNS_17MachineMemOperandE
libbcc.so.0:_ZN4llvm12SelectionDAG8getVAArgENS_3EVTERKNS_5SDLocENS_7SDValueES5_S5_j
libbcc.so.0:_ZN4llvm12SelectionDAG9FoldSetCCENS_3EVTENS_7SDValueES2_NS_3ISD8CondCodeERKNS_5SDLocE
libbcc.so.0:_ZN4llvm12SelectionDAG9getAtomicEjRKNS_5SDLocENS_3EVTENS_7SDValueES5_S5_PNS_17MachineMemOperandE
libbcc.so.0:_ZN4llvm12SelectionDAG9getAtomicEjRKNS_5SDLocENS_3EVTENS_8SDVTListENS_8ArrayRefINS_7SDValueEEEPNS_17MachineMemOperandE
libbcc.so.0:_ZN4llvm12SelectionDAG9getAtomicEjRKNS_5SDLocENS_3EVTES4_NS_7SDValueES5_PNS_17MachineMemOperandE
libbcc.so.0:_ZN4llvm12SelectionDAG9getFreezeENS_7SDValueE
libbcc.so.0:_ZN4llvm12SelectionDAG9getLoadVPENS_3EVTERKNS_5SDLocENS_7SDValueES5_S5_S5_NS_18MachinePointerInfoENS_10MaybeAlignENS_17MachineMemOperand5FlagsERKNS_9AAMDNodesEPKNS_6MDNodeEb
libbcc.so.0:_ZN4llvm12SelectionDAG9getLoadVPENS_3EVTERKNS_5SDLocENS_7SDValueES5_S5_S5_PNS_17MachineMemOperandEb
libbcc.so.0:_ZN4llvm12SelectionDAG9getLoadVPENS_3ISD14MemIndexedModeENS1_11LoadExtTypeENS_3EVTERKNS_5SDLocENS_7SDValueES8_S8_S8_S8_NS_18MachinePointerInfoES4_NS_5AlignENS_17MachineMemOperand5FlagsERKNS_9AAMDNodesEPKNS_6MDNodeEb
libbcc.so.0:_ZN4llvm12SelectionDAG9getLoadVPENS_3ISD14MemIndexedModeENS1_11LoadExtTypeENS_3EVTERKNS_5SDLocENS_7SDValueES8_S8_S8_S8_S4_PNS_17MachineMemOperandEb
libbcc.so.0:_ZN4llvm12SelectionDAG9getMDNodeEPKNS_6MDNodeE
libbcc.so.0:_ZN4llvm12SelectionDAG9getMemcpyENS_7SDValueERKNS_5SDLocES1_S1_S1_NS_5AlignEbbbNS_18MachinePointerInfoES6_RKNS_9AAMDNodesEPNS_9AAResultsE
libbcc.so.0:_ZN4llvm12SelectionDAG9getMemsetENS_7SDValueERKNS_5SDLocES1_S1_S1_NS_5AlignEbbbNS_18MachinePointerInfoERKNS_9AAMDNodesE
libbcc.so.0:_ZN4llvm12SelectionDAG9getVTListENS_3EVTE
libbcc.so.0:_ZN4llvm12SelectionDAG9getVTListENS_3EVTES1_
libbcc.so.0:_ZN4llvm12SelectionDAG9getVTListENS_3EVTES1_S1_
libbcc.so.0:_ZN4llvm12SelectionDAG9getVTListENS_3EVTES1_S1_S1_
libbcc.so.0:_ZN4llvm12SelectionDAG9getVTListENS_8ArrayRefINS_3EVTEEE
libbcc.so.0:_ZN4llvm12SelectionDAG9viewGraphERKNSt7__cxx1112basic_stringIcSt11char_traitsIcESaIcEEE
libbcc.so.0:_ZN4llvm12SelectionDAG9viewGraphEv
libbcc.so.0:_ZN4llvm12SelectionDAGC1ERKNS_13TargetMachineENS_10CodeGenOpt5LevelE
libbcc.so.0:_ZN4llvm12SelectionDAGC2ERKNS_13TargetMachineENS_10CodeGenOpt5LevelE
libbcc.so.0:_ZN4llvm12SelectionDAGD1Ev
libbcc.so.0:_ZN4llvm12SelectionDAGD2Ev
libbcc.so.0:_ZN4llvm12StructLayoutC1EPNS_10StructTypeERKNS_10DataLayoutE
libbcc.so.0:_ZN4llvm12StructLayoutC2EPNS_10StructTypeERKNS_10DataLayoutE
libbcc.so.0:_ZN4llvm12TBAAVerifier17visitTBAAMetadataERNS_11InstructionEPKNS_6MDNodeE
libbcc.so.0:_ZN4llvm12TBAAVerifier18verifyTBAABaseNodeERNS_11InstructionEPKNS_6MDNodeEb
libbcc.so.0:_ZN4llvm12TBAAVerifier21isValidScalarTBAANodeEPKNS_6MDNodeE
libbcc.so.0:_ZN4llvm12TBAAVerifier22verifyTBAABaseNodeImplERNS_11InstructionEPKNS_6MDNodeEb
libbcc.so.0:_ZN4llvm12TBAAVerifier28getFieldNodeFromTBAABaseNodeERNS_11InstructionEPKNS_6MDNodeERNS_5APIntEb
libbcc.so.0:_ZN4llvm12TargetFolder6anchorEv
libbcc.so.0:_ZN4llvm12TrigramIndex6insertERKNSt7__cxx1112basic_stringIcSt11char_traitsIcESaIcEEE
libbcc.so.0:_ZN4llvm12VPBasicBlock13getTerminatorEv
libbcc.so.0:_ZN4llvm12VPBasicBlock14getFirstNonPhiEv
libbcc.so.0:_ZN4llvm12VPBasicBlock17dropAllReferencesEPNS_7VPValueE
libbcc.so.0:_ZN4llvm12VPBasicBlock21createEmptyBasicBlockERNS_16VPTransformState8CFGStateE
libbcc.so.0:_ZN4llvm12VPBasicBlock22getEnclosingLoopRegionEv
libbcc.so.0:_ZN4llvm12VPBasicBlock7executeEPNS_16VPTransformStateE
libbcc.so.0:_ZN4llvm12VPBasicBlock7splitAtENS_14ilist_iteratorINS_12ilist_detail12node_optionsINS_12VPRecipeBaseELb0ELb0EvEELb0ELb0EEE
libbcc.so.0:_ZN4llvm12VPRecipeBase10moveBeforeERNS_12VPBasicBlockENS_14ilist_iteratorINS_12ilist_detail12node_optionsIS0_Lb0ELb0EvEELb0ELb0EEE
libbcc.so.0:_ZN4llvm12VPRecipeBase11insertAfterEPS0_
libbcc.so.0:_ZN4llvm12VPRecipeBase12insertBeforeEPS0_
libbcc.so.0:_ZN4llvm12VPRecipeBase12insertBeforeERNS_12VPBasicBlockENS_14ilist_iteratorINS_12ilist_detail12node_optionsIS0_Lb0ELb0EvEELb0ELb0EEE
libbcc.so.0:_ZN4llvm12VPRecipeBase15eraseFromParentEv
libbcc.so.0:_ZN4llvm12VPRecipeBase16removeFromParentEv
libbcc.so.0:_ZN4llvm12VPRecipeBase9moveAfterEPS0_
libbcc.so.0:_ZN4llvm12VerifierPass3runERNS_6ModuleERNS_15AnalysisManagerIS1_JEEE
libbcc.so.0:_ZN4llvm12VerifierPass3runERNS_8FunctionERNS_15AnalysisManagerIS1_JEEE
libbcc.so.0:_ZN4llvm12VersionTuple8tryParseENS_9StringRefE
libbcc.so.0:_ZN4llvm12appendToUsedERNS_6ModuleENS_8ArrayRefIPNS_11GlobalValueEEE
libbcc.so.0:_ZN4llvm12changeToCallEPNS_10InvokeInstEPNS_14DomTreeUpdaterE
libbcc.so.0:_ZN4llvm12createWideIVERKNS_10WideIVInfoEPNS_8LoopInfoEPNS_15ScalarEvolutionERNS_12SCEVExpanderEPNS_13DominatorTreeERNS_15SmallVectorImplINS_14WeakTrackingVHEEERjSF_bb
libbcc.so.0:_ZN4llvm12emitSNPrintfEPNS_5ValueES1_S1_NS_8ArrayRefIS1_EERNS_13IRBuilderBaseEPKNS_17TargetLibraryInfoE
libbcc.so.0:_ZN4llvm12emitVSPrintfEPNS_5ValueES1_S1_RNS_13IRBuilderBaseEPKNS_17TargetLibraryInfoE
libbcc.so.0:_ZN4llvm12extractProbeERKNS_11InstructionE
libbcc.so.0:_ZN4llvm12findDbgUsersERNS_15SmallVectorImplIPNS_20DbgVariableIntrinsicEEEPNS_5ValueE
libbcc.so.0:_ZN4llvm12getAllocSizeEPKNS_8CallBaseEPKNS_17TargetLibraryInfoENS_12function_refIFPKNS_5ValueES9_EEE
libbcc.so.0:_ZN4llvm12getHeatColorB5cxx11Ed
libbcc.so.0:_ZN4llvm12getHeatColorB5cxx11Emm
libbcc.so.0:_ZN4llvm12getLLTForMVTENS_3MVTE
libbcc.so.0:_ZN4llvm12getMVTForLLTENS_3LLTE
libbcc.so.0:_ZN4llvm12getOpcodeDefEjNS_8RegisterERKNS_19MachineRegisterInfoE
libbcc.so.0:_ZN4llvm12getPassTimerEPNS_4PassE
libbcc.so.0:_ZN4llvm12getPtrStrideERNS_25PredicatedScalarEvolutionEPNS_4TypeEPNS_5ValueEPKNS_4LoopERKNS_8DenseMapIPKS4_S5_NS_12DenseMapInfoISB_vEENS_6detail12DenseMapPairISB_S5_EEEEbb
libbcc.so.0:_ZN4llvm12getRuntimeVFERNS_13IRBuilderBaseEPNS_4TypeENS_12ElementCountE
libbcc.so.0:_ZN4llvm12get_threadidEv
libbcc.so.0:_ZN4llvm12ilist_traitsINS_12MachineInstrEE10deleteNodeEPS1_
libbcc.so.0:_ZN4llvm12ilist_traitsINS_12MachineInstrEE13addNodeToListEPS1_
libbcc.so.0:_ZN4llvm12ilist_traitsINS_12MachineInstrEE18removeNodeFromListEPS1_
libbcc.so.0:_ZN4llvm12ilist_traitsINS_12MachineInstrEE21transferNodesFromListERS2_NS_14ilist_iteratorINS_12ilist_detail12node_optionsIS1_Lb1ELb1EvEELb0ELb0EEES8_
libbcc.so.0:_ZN4llvm12isBitwiseNotENS_7SDValueEb
libbcc.so.0:_ZN4llvm12isSplatValueEPKNS_5ValueEij
libbcc.so.0:_ZN4llvm12lintFunctionERKNS_8FunctionE
libbcc.so.0:_ZN4llvm12printRegUnitEjPKNS_18TargetRegisterInfoE
libbcc.so.0:_ZN4llvm12rustDemangleEPKc
libbcc.so.0:_ZN4llvm12shouldInlineERNS_8CallBaseENS_12function_refIFNS_10InlineCostES1_EEERNS_25OptimizationRemarkEmitterEb
libbcc.so.0:_ZN4llvm12shouldRenameEPNS_5ValueE
libbcc.so.0:_ZN4llvm12simplifyCallEPNS_8CallBaseERKNS_13SimplifyQueryE
libbcc.so.0:_ZN4llvm12simplifyLoopEPNS_4LoopEPNS_13DominatorTreeEPNS_8LoopInfoEPNS_15ScalarEvolutionEPNS_15AssumptionCacheEPNS_16MemorySSAUpdaterEb
libbcc.so.0:_ZN4llvm12simplifyUnOpEjPNS_5ValueENS_13FastMathFlagsERKNS_13SimplifyQueryE
libbcc.so.0:_ZN4llvm12simplifyUnOpEjPNS_5ValueERKNS_13SimplifyQueryE
libbcc.so.0:_ZN4llvm12verifyModuleERKNS_6ModuleEPNS_11raw_ostreamEPb
libbcc.so.0:_ZN4llvm12write_doubleERNS_11raw_ostreamEdNS_10FloatStyleENS_8OptionalImEE
libbcc.so.0:_ZN4llvm13AAHeapToStack17createForPositionERKNS_10IRPositionERNS_10AttributorE
libbcc.so.0:_ZN4llvm13AAPointerInfo17createForPositionERKNS_10IRPositionERNS_10AttributorE
libbcc.so.0:_ZN4llvm13ARMBuildAttrs19getARMAttributeTagsEv
libbcc.so.0:_ZN4llvm13AnalysisUsage12addPreservedENS_9StringRefE
libbcc.so.0:_ZN4llvm13AnalysisUsage13addRequiredIDEPKv
libbcc.so.0:_ZN4llvm13AnalysisUsage13addRequiredIDERc
libbcc.so.0:_ZN4llvm13AnalysisUsage15setPreservesCFGEv
libbcc.so.0:_ZN4llvm13AnalysisUsage23addRequiredTransitiveIDERc
libbcc.so.0:_ZN4llvm13AtomicRMWInst16getOperationNameENS0_5BinOpE
libbcc.so.0:_ZN4llvm13AtomicRMWInst4InitENS0_5BinOpEPNS_5ValueES3_NS_5AlignENS_14AtomicOrderingEh
libbcc.so.0:_ZN4llvm13AtomicRMWInstC1ENS0_5BinOpEPNS_5ValueES3_NS_5AlignENS_14AtomicOrderingEhPNS_10BasicBlockE
libbcc.so.0:_ZN4llvm13AtomicRMWInstC1ENS0_5BinOpEPNS_5ValueES3_NS_5AlignENS_14AtomicOrderingEhPNS_11InstructionE
libbcc.so.0:_ZN4llvm13AtomicRMWInstC2ENS0_5BinOpEPNS_5ValueES3_NS_5AlignENS_14AtomicOrderingEhPNS_10BasicBlockE
libbcc.so.0:_ZN4llvm13AtomicRMWInstC2ENS0_5BinOpEPNS_5ValueES3_NS_5AlignENS_14AtomicOrderingEhPNS_11InstructionE
libbcc.so.0:_ZN4llvm13AttributeList21addAllocSizeParamAttrERNS_11LLVMContextEjjRKNS_8OptionalIjEE
libbcc.so.0:_ZN4llvm13AttributeList3getERNS_11LLVMContextENS_12AttributeSetES3_NS_8ArrayRefIS3_EE
libbcc.so.0:_ZN4llvm13AttributeList3getERNS_11LLVMContextENS_8ArrayRefIS0_EE
libbcc.so.0:_ZN4llvm13AttributeList3getERNS_11LLVMContextENS_8ArrayRefISt4pairIjNS_12AttributeSetEEEE
libbcc.so.0:_ZN4llvm13AttributeList3getERNS_11LLVMContextENS_8ArrayRefISt4pairIjNS_9AttributeEEEE
libbcc.so.0:_ZN4llvm13AttributeList3getERNS_11LLVMContextEjNS_12AttributeSetE
libbcc.so.0:_ZN4llvm13AttributeList3getERNS_11LLVMContextEjNS_8ArrayRefINS_9Attribute8AttrKindEEE
libbcc.so.0:_ZN4llvm13AttributeList3getERNS_11LLVMContextEjNS_8ArrayRefINS_9Attribute8AttrKindEEENS3_ImEE
libbcc.so.0:_ZN4llvm13AttributeList3getERNS_11LLVMContextEjNS_8ArrayRefINS_9StringRefEEE
libbcc.so.0:_ZN4llvm13AttributeList3getERNS_11LLVMContextEjRKNS_11AttrBuilderE
libbcc.so.0:_ZN4llvm13AttributeList7getImplERNS_11LLVMContextENS_8ArrayRefINS_12AttributeSetEEE
libbcc.so.0:_ZN4llvm13BasicAAResult10aliasCheckEPKNS_5ValueENS_12LocationSizeES3_S4_RNS_11AAQueryInfoE
libbcc.so.0:_ZN4llvm13BasicAAResult10invalidateERNS_8FunctionERKNS_17PreservedAnalysesERNS_15AnalysisManagerIS1_JEE11InvalidatorE
libbcc.so.0:_ZN4llvm13BasicAAResult11aliasSelectEPKNS_10SelectInstENS_12LocationSizeEPKNS_5ValueES4_RNS_11AAQueryInfoE
libbcc.so.0:_ZN4llvm13BasicAAResult13getModRefInfoEPKNS_8CallBaseERKNS_14MemoryLocationERNS_11AAQueryInfoE
libbcc.so.0:_ZN4llvm13BasicAAResult13getModRefInfoEPKNS_8CallBaseES3_RNS_11AAQueryInfoE
libbcc.so.0:_ZN4llvm13BasicAAResult16getArgModRefInfoEPKNS_8CallBaseEj
libbcc.so.0:_ZN4llvm13BasicAAResult17getModRefBehaviorEPKNS_8CallBaseE
libbcc.so.0:_ZN4llvm13BasicAAResult17getModRefBehaviorEPKNS_8FunctionE
libbcc.so.0:_ZN4llvm13BasicAAResult19aliasCheckRecursiveEPKNS_5ValueENS_12LocationSizeES3_S4_RNS_11AAQueryInfoES3_S3_
libbcc.so.0:_ZN4llvm13BasicAAResult22DecomposeGEPExpressionEPKNS_5ValueERKNS_10DataLayoutEPNS_15AssumptionCacheEPNS_13DominatorTreeE
libbcc.so.0:_ZN4llvm13BasicAAResult22pointsToConstantMemoryERKNS_14MemoryLocationERNS_11AAQueryInfoEb
libbcc.so.0:_ZN4llvm13BasicAAResult22subtractDecomposedGEPsERNS0_13DecomposedGEPERKS1_
libbcc.so.0:_ZN4llvm13BasicAAResult23constantOffsetHeuristicERKNS0_13DecomposedGEPENS_12LocationSizeES4_PNS_15AssumptionCacheEPNS_13DominatorTreeE
libbcc.so.0:_ZN4llvm13BasicAAResult29isValueEqualInPotentialCyclesEPKNS_5ValueES3_
libbcc.so.0:_ZN4llvm13BasicAAResult5aliasERKNS_14MemoryLocationES3_RNS_11AAQueryInfoE
libbcc.so.0:_ZN4llvm13BasicAAResult8aliasGEPEPKNS_11GEPOperatorENS_12LocationSizeEPKNS_5ValueES4_S7_S7_RNS_11AAQueryInfoE
libbcc.so.0:_ZN4llvm13BasicAAResult8aliasPHIEPKNS_7PHINodeENS_12LocationSizeEPKNS_5ValueES4_RNS_11AAQueryInfoE
libbcc.so.0:_ZN4llvm13BitcodeModule10getLTOInfoEv
libbcc.so.0:_ZN4llvm13BitcodeModule10getSummaryEv
libbcc.so.0:_ZN4llvm13BitcodeModule11parseModuleERNS_11LLVMContextENS_12function_refIFNS_8OptionalINSt7__cxx1112basic_stringIcSt11char_traitsIcESaIcEEEEENS_9StringRefEEEE
libbcc.so.0:_ZN4llvm13BitcodeModule11readSummaryERNS_18ModuleSummaryIndexENS_9StringRefEm
libbcc.so.0:_ZN4llvm13BitcodeModule13getLazyModuleERNS_11LLVMContextEbb
libbcc.so.0:_ZN4llvm13BitcodeModule13getModuleImplERNS_11LLVMContextEbbbNS_12function_refIFNS_8OptionalINSt7__cxx1112basic_stringIcSt11char_traitsIcESaIcEEEEENS_9StringRefEEEE
libbcc.so.0:_ZN4llvm13CFGViewerPass3runERNS_8FunctionERNS_15AnalysisManagerIS1_JEEE
libbcc.so.0:_ZN4llvm13CGProfilePass3runERNS_6ModuleERNS_15AnalysisManagerIS1_JEEE
libbcc.so.0:_ZN4llvm13CSEConfigFull12shouldCSEOpcEj
libbcc.so.0:_ZN4llvm13CSEMIRBuilder10buildInstrEjNS_8ArrayRefINS_5DstOpEEENS1_INS_5SrcOpEEENS_8OptionalIjEE
libbcc.so.0:_ZN4llvm13CSEMIRBuilder13buildConstantERKNS_5DstOpERKNS_11ConstantIntE
libbcc.so.0:_ZN4llvm13CSEMIRBuilder14buildFConstantERKNS_5DstOpERKNS_10ConstantFPE
libbcc.so.0:_ZN4llvm13CSEMIRBuilder23checkCopyToDefsPossibleENS_8ArrayRefINS_5DstOpEEE
libbcc.so.0:_ZN4llvm13CSEMIRBuilder23getDominatingInstrForIDERNS_16FoldingSetNodeIDERPv
libbcc.so.0:_ZN4llvm13CSEMIRBuilder24generateCopiesIfRequiredENS_8ArrayRefINS_5DstOpEEERNS_19MachineInstrBuilderE
libbcc.so.0:_ZN4llvm13CSEMIRBuilder9memoizeMIENS_19MachineInstrBuilderEPv
libbcc.so.0:_ZN4llvm13CallGraphNode15replaceCallEdgeERNS_8CallBaseES2_PS0_
libbcc.so.0:_ZN4llvm13CallGraphNode17removeCallEdgeForERNS_8CallBaseE
libbcc.so.0:_ZN4llvm13CallGraphNode19removeAnyCallEdgeToEPS0_
libbcc.so.0:_ZN4llvm13CallGraphNode23removeOneAbstractEdgeToEPS0_
libbcc.so.0:_ZN4llvm13CloneFunctionEPNS_8FunctionERNS_8ValueMapIPKNS_5ValueENS_14WeakTrackingVHENS_14ValueMapConfigIS5_NS_3sys10SmartMutexILb0EEEEEEEPNS_14ClonedCodeInfoE
libbcc.so.0:_ZN4llvm13CoalescerPair12setRegistersEPKNS_12MachineInstrE
libbcc.so.0:_ZN4llvm13CoalescerPair4flipEv
libbcc.so.0:_ZN4llvm13CodeExtractor17constructFunctionERKNS_9SetVectorIPNS_5ValueESt6vectorIS3_SaIS3_EENS_8DenseSetIS3_NS_12DenseMapInfoIS3_vEEEEEESD_PNS_10BasicBlockESF_SF_PNS_8FunctionEPNS_6ModuleE
libbcc.so.0:_ZN4llvm13CodeExtractor17extractCodeRegionERKNS_26CodeExtractorAnalysisCacheE
libbcc.so.0:_ZN4llvm13CodeExtractor17extractCodeRegionERKNS_26CodeExtractorAnalysisCacheERNS_9SetVectorIPNS_5ValueESt6vectorIS6_SaIS6_EENS_8DenseSetIS6_NS_12DenseMapInfoIS6_vEEEEEESF_
libbcc.so.0:_ZN4llvm13CodeExtractor17splitReturnBlocksEv
libbcc.so.0:_ZN4llvm13CodeExtractor18moveCodeToFunctionEPNS_8FunctionE
libbcc.so.0:_ZN4llvm13CodeExtractor21verifyAssumptionCacheERKNS_8FunctionES3_PNS_15AssumptionCacheE
libbcc.so.0:_ZN4llvm13CodeExtractor23excludeArgFromAggregateEPNS_5ValueE
libbcc.so.0:_ZN4llvm13CodeExtractor25severSplitPHINodesOfEntryERPNS_10BasicBlockE
libbcc.so.0:_ZN4llvm13CodeExtractor25severSplitPHINodesOfExitsERKNS_15SmallPtrSetImplIPNS_10BasicBlockEEE
libbcc.so.0:_ZN4llvm13CodeExtractor26emitCallAndSwitchStatementEPNS_8FunctionEPNS_10BasicBlockERNS_9SetVectorIPNS_5ValueESt6vectorIS7_SaIS7_EENS_8DenseSetIS7_NS_12DenseMapInfoIS7_vEEEEEESG_
libbcc.so.0:_ZN4llvm13CodeExtractor28findOrCreateBlockForHoistingEPNS_10BasicBlockE
libbcc.so.0:_ZN4llvm13CodeExtractor33calculateNewCallTerminatorWeightsEPNS_10BasicBlockERNS_8DenseMapIS2_NS_14BlockFrequencyENS_12DenseMapInfoIS2_vEENS_6detail12DenseMapPairIS2_S4_EEEEPNS_21BranchProbabilityInfoE
libbcc.so.0:_ZN4llvm13CodeExtractorC1ENS_8ArrayRefIPNS_10BasicBlockEEEPNS_13DominatorTreeEbPNS_18BlockFrequencyInfoEPNS_21BranchProbabilityInfoEPNS_15AssumptionCacheEbbS3_NSt7__cxx1112basic_stringIcSt11char_traitsIcESaIcEEE
libbcc.so.0:_ZN4llvm13CodeExtractorC1ERNS_13DominatorTreeERNS_4LoopEbPNS_18BlockFrequencyInfoEPNS_21BranchProbabilityInfoEPNS_15AssumptionCacheENSt7__cxx1112basic_stringIcSt11char_traitsIcESaIcEEE
libbcc.so.0:_ZN4llvm13CodeExtractorC2ENS_8ArrayRefIPNS_10BasicBlockEEEPNS_13DominatorTreeEbPNS_18BlockFrequencyInfoEPNS_21BranchProbabilityInfoEPNS_15AssumptionCacheEbbS3_NSt7__cxx1112basic_stringIcSt11char_traitsIcESaIcEEE
libbcc.so.0:_ZN4llvm13CodeExtractorC2ERNS_13DominatorTreeERNS_4LoopEbPNS_18BlockFrequencyInfoEPNS_21BranchProbabilityInfoEPNS_15AssumptionCacheENSt7__cxx1112basic_stringIcSt11char_traitsIcESaIcEEE
libbcc.so.0:_ZN4llvm13ConstantArray19destroyConstantImplEv
libbcc.so.0:_ZN4llvm13ConstantArray23handleOperandChangeImplEPNS_5ValueES2_
libbcc.so.0:_ZN4llvm13ConstantArray3getEPNS_9ArrayTypeENS_8ArrayRefIPNS_8ConstantEEE
libbcc.so.0:_ZN4llvm13ConstantArray7getImplEPNS_9ArrayTypeENS_8ArrayRefIPNS_8ConstantEEE
libbcc.so.0:_ZN4llvm13ConstantArrayC1EPNS_9ArrayTypeENS_8ArrayRefIPNS_8ConstantEEE
libbcc.so.0:_ZN4llvm13ConstantArrayC2EPNS_9ArrayTypeENS_8ArrayRefIPNS_8ConstantEEE
libbcc.so.0:_ZN4llvm13ConstantRange13fromKnownBitsERKNS_9KnownBitsEb
libbcc.so.0:_ZN4llvm13ConstantRange19makeExactICmpRegionENS_7CmpInst9PredicateERKNS_5APIntE
libbcc.so.0:_ZN4llvm13ConstantRange20isIntrinsicSupportedEj
libbcc.so.0:_ZN4llvm13ConstantRange21makeAllowedICmpRegionENS_7CmpInst9PredicateERKS0_
libbcc.so.0:_ZN4llvm13ConstantRange21makeExactNoWrapRegionENS_11Instruction9BinaryOpsERKNS_5APIntEj
libbcc.so.0:_ZN4llvm13ConstantRange24makeSatisfyingICmpRegionENS_7CmpInst9PredicateERKS0_
libbcc.so.0:_ZN4llvm13ConstantRange26makeGuaranteedNoWrapRegionENS_11Instruction9BinaryOpsERKS0_j
libbcc.so.0:_ZN4llvm13ConstantRange38getEquivalentPredWithFlippedSignednessENS_7CmpInst9PredicateERKS0_S4_
libbcc.so.0:_ZN4llvm13ConstantRange41areInsensitiveToSignednessOfICmpPredicateERKS0_S2_
libbcc.so.0:_ZN4llvm13ConstantRange49areInsensitiveToSignednessOfInvertedICmpPredicateERKS0_S2_
libbcc.so.0:_ZN4llvm13ConstantRange9intrinsicEjNS_8ArrayRefIS0_EE
libbcc.so.0:_ZN4llvm13ConstantRangeC1ENS_5APIntE
libbcc.so.0:_ZN4llvm13ConstantRangeC1ENS_5APIntES1_
libbcc.so.0:_ZN4llvm13ConstantRangeC1Ejb
libbcc.so.0:_ZN4llvm13ConstantRangeC2ENS_5APIntE
libbcc.so.0:_ZN4llvm13ConstantRangeC2ENS_5APIntES1_
libbcc.so.0:_ZN4llvm13ConstantRangeC2Ejb
libbcc.so.0:_ZN4llvm13CycleAnalysis3runERNS_8FunctionERNS_15AnalysisManagerIS1_JEEE
libbcc.so.0:_ZN4llvm13DFAPacketizer16getUsedResourcesEj
libbcc.so.0:_ZN4llvm13DFAPacketizer16reserveResourcesEPKNS_11MCInstrDescE
libbcc.so.0:_ZN4llvm13DFAPacketizer16reserveResourcesERNS_12MachineInstrE
libbcc.so.0:_ZN4llvm13DFAPacketizer19canReserveResourcesEPKNS_11MCInstrDescE
libbcc.so.0:_ZN4llvm13DFAPacketizer19canReserveResourcesERNS_12MachineInstrE
libbcc.so.0:_ZN4llvm13DICommonBlock7getImplERNS_11LLVMContextEPNS_8MetadataES4_PNS_8MDStringES4_jNS3_11StorageTypeEb
libbcc.so.0:_ZN4llvm13DICommonBlockC1ERNS_11LLVMContextENS_8Metadata11StorageTypeEjNS_8ArrayRefIPS3_EE
libbcc.so.0:_ZN4llvm13DICommonBlockC2ERNS_11LLVMContextENS_8Metadata11StorageTypeEjNS_8ArrayRefIPS3_EE
libbcc.so.0:_ZN4llvm13DICompileUnit15getEmissionKindENS_9StringRefE
libbcc.so.0:_ZN4llvm13DICompileUnit16getNameTableKindENS_9StringRefE
libbcc.so.0:_ZN4llvm13DICompileUnit18emissionKindStringENS0_17DebugEmissionKindE
libbcc.so.0:_ZN4llvm13DICompileUnit19nameTableKindStringENS0_18DebugNameTableKindE
libbcc.so.0:_ZN4llvm13DICompileUnit7getImplERNS_11LLVMContextEjPNS_8MetadataEPNS_8MDStringEbS6_jS6_jS4_S4_S4_S4_S4_mbbjbS6_S6_NS3_11StorageTypeEb
libbcc.so.0:_ZN4llvm13DICompileUnitC1ERNS_11LLVMContextENS_8Metadata11StorageTypeEjbjjmbbjbNS_8ArrayRefIPS3_EE
libbcc.so.0:_ZN4llvm13DICompileUnitC2ERNS_11LLVMContextENS_8Metadata11StorageTypeEjbjjmbbjbNS_8ArrayRefIPS3_EE
libbcc.so.0:_ZN4llvm13DIDerivedType7getImplERNS_11LLVMContextEjPNS_8MDStringEPNS_8MetadataEjS6_S6_mjmNS_8OptionalIjEENS_6DINode7DIFlagsES6_S6_NS5_11StorageTypeEb
libbcc.so.0:_ZN4llvm13DebugLocEntry8finalizeERKNS_10AsmPrinterERNS_14DebugLocStream11ListBuilderEPKNS_11DIBasicTypeERNS_16DwarfCompileUnitE
libbcc.so.0:_ZN4llvm13DominatorTree10invalidateERNS_8FunctionERKNS_17PreservedAnalysesERNS_15AnalysisManagerIS1_JEE11InvalidatorE
libbcc.so.0:_ZN4llvm13DwarfTypeUnit10emitHeaderEb
libbcc.so.0:_ZN4llvm13DwarfTypeUnit13addGlobalNameENS_9StringRefERKNS_3DIEEPKNS_7DIScopeE
libbcc.so.0:_ZN4llvm13DwarfTypeUnit13addGlobalTypeEPKNS_6DITypeERKNS_3DIEEPKNS_7DIScopeE
libbcc.so.0:_ZN4llvm13DwarfTypeUnit19getOrCreateSourceIDEPKNS_6DIFileE
libbcc.so.0:_ZN4llvm13DwarfTypeUnit20finishNonUnitTypeDIEERNS_3DIEEPKNS_15DICompositeTypeE
libbcc.so.0:_ZN4llvm13DwarfTypeUnitC1ERNS_16DwarfCompileUnitEPNS_10AsmPrinterEPNS_10DwarfDebugEPNS_9DwarfFileEPNS_19MCDwarfDwoLineTableE
libbcc.so.0:_ZN4llvm13DwarfTypeUnitC2ERNS_16DwarfCompileUnitEPNS_10AsmPrinterEPNS_10DwarfDebugEPNS_9DwarfFileEPNS_19MCDwarfDwoLineTableE
libbcc.so.0:_ZN4llvm13EngineBuilder12selectTargetERKNS_6TripleENS_9StringRefES4_RKNS_15SmallVectorImplINSt7__cxx1112basic_stringIcSt11char_traitsIcESaIcEEEEE
libbcc.so.0:_ZN4llvm13EngineBuilder12selectTargetEv
libbcc.so.0:_ZN4llvm13EngineBuilder16setMemoryManagerESt10unique_ptrINS_18MCJITMemoryManagerESt14default_deleteIS2_EE
libbcc.so.0:_ZN4llvm13EngineBuilder17setSymbolResolverESt10unique_ptrINS_23LegacyJITSymbolResolverESt14default_deleteIS2_EE
libbcc.so.0:_ZN4llvm13EngineBuilder21setMCJITMemoryManagerESt10unique_ptrINS_19RTDyldMemoryManagerESt14default_deleteIS2_EE
libbcc.so.0:_ZN4llvm13EngineBuilder6createEPNS_13TargetMachineE
libbcc.so.0:_ZN4llvm13EngineBuilderC1ESt10unique_ptrINS_6ModuleESt14default_deleteIS2_EE
libbcc.so.0:_ZN4llvm13EngineBuilderC1Ev
libbcc.so.0:_ZN4llvm13EngineBuilderC2ESt10unique_ptrINS_6ModuleESt14default_deleteIS2_EE
libbcc.so.0:_ZN4llvm13EngineBuilderC2Ev
libbcc.so.0:_ZN4llvm13EngineBuilderD1Ev
libbcc.so.0:_ZN4llvm13EngineBuilderD2Ev
libbcc.so.0:_ZN4llvm13ErrorInfoBase6anchorEv
libbcc.so.0:_ZN4llvm13FPPassManager11runOnModuleERNS_6ModuleE
libbcc.so.0:_ZN4llvm13FPPassManager13runOnFunctionERNS_8FunctionE
libbcc.so.0:_ZN4llvm13FPPassManager14doFinalizationERNS_6ModuleE
libbcc.so.0:_ZN4llvm13FPPassManager16doInitializationERNS_6ModuleE
libbcc.so.0:_ZN4llvm13FPPassManager17dumpPassStructureEj
libbcc.so.0:_ZN4llvm13FPPassManager7cleanupEv
libbcc.so.0:_ZN4llvm13FileCollector11addFileImplENS_9StringRefE
libbcc.so.0:_ZN4llvm13FileCollector12writeMappingENS_9StringRefE
libbcc.so.0:_ZN4llvm13FileCollector16addDirectoryImplERKNS_5TwineENS_18IntrusiveRefCntPtrINS_3vfs10FileSystemEEERSt10error_code
libbcc.so.0:_ZN4llvm13FileCollector17PathCanonicalizer12canonicalizeENS_9StringRefE
libbcc.so.0:_ZN4llvm13FileCollector17PathCanonicalizer18updateWithRealPathERNS_15SmallVectorImplIcEE
libbcc.so.0:_ZN4llvm13FileCollector18createCollectorVFSENS_18IntrusiveRefCntPtrINS_3vfs10FileSystemEEESt10shared_ptrIS0_E
libbcc.so.0:_ZN4llvm13FileCollector9copyFilesEb
libbcc.so.0:_ZN4llvm13FileCollectorC1ENSt7__cxx1112basic_stringIcSt11char_traitsIcESaIcEEES6_
libbcc.so.0:_ZN4llvm13FileCollectorC2ENSt7__cxx1112basic_stringIcSt11char_traitsIcESaIcEEES6_
libbcc.so.0:_ZN4llvm13Float2IntPass12unknownRangeEv
libbcc.so.0:_ZN4llvm13Float2IntPass12walkForwardsEv
libbcc.so.0:_ZN4llvm13Float2IntPass13validateRangeENS_13ConstantRangeE
libbcc.so.0:_ZN4llvm13Float2IntPass13walkBackwardsEv
libbcc.so.0:_ZN4llvm13Float2IntPass20validateAndTransformEv
libbcc.so.0:_ZN4llvm13Float2IntPass3runERNS_8FunctionERNS_15AnalysisManagerIS1_JEEE
libbcc.so.0:_ZN4llvm13Float2IntPass4seenEPNS_11InstructionENS_13ConstantRangeE
libbcc.so.0:_ZN4llvm13Float2IntPass7cleanupEv
libbcc.so.0:_ZN4llvm13Float2IntPass7convertEPNS_11InstructionEPNS_4TypeE
libbcc.so.0:_ZN4llvm13Float2IntPass7runImplERNS_8FunctionERKNS_13DominatorTreeE
libbcc.so.0:_ZN4llvm13Float2IntPass8badRangeEv
libbcc.so.0:_ZN4llvm13Float2IntPass9calcRangeEPNS_11InstructionE
libbcc.so.0:_ZN4llvm13Float2IntPass9findRootsERNS_8FunctionERKNS_13DominatorTreeE
libbcc.so.0:_ZN4llvm13GVNExpression10ExpressionD0Ev
libbcc.so.0:_ZN4llvm13GVNExpression10ExpressionD1Ev
libbcc.so.0:_ZN4llvm13GVNExpression10ExpressionD2Ev
libbcc.so.0:_ZN4llvm13GVNExpression13PHIExpressionD0Ev
libbcc.so.0:_ZN4llvm13GVNExpression13PHIExpressionD1Ev
libbcc.so.0:_ZN4llvm13GVNExpression13PHIExpressionD2Ev
libbcc.so.0:_ZN4llvm13GVNExpression14CallExpressionD0Ev
libbcc.so.0:_ZN4llvm13GVNExpression14CallExpressionD1Ev
libbcc.so.0:_ZN4llvm13GVNExpression14CallExpressionD2Ev
libbcc.so.0:_ZN4llvm13GVNExpression14LoadExpressionD0Ev
libbcc.so.0:_ZN4llvm13GVNExpression14LoadExpressionD1Ev
libbcc.so.0:_ZN4llvm13GVNExpression14LoadExpressionD2Ev
libbcc.so.0:_ZN4llvm13GVNExpression15BasicExpressionD0Ev
libbcc.so.0:_ZN4llvm13GVNExpression15BasicExpressionD1Ev
libbcc.so.0:_ZN4llvm13GVNExpression15BasicExpressionD2Ev
libbcc.so.0:_ZN4llvm13GVNExpression15StoreExpressionD0Ev
libbcc.so.0:_ZN4llvm13GVNExpression15StoreExpressionD1Ev
libbcc.so.0:_ZN4llvm13GVNExpression15StoreExpressionD2Ev
libbcc.so.0:_ZN4llvm13GVNExpression24AggregateValueExpressionD0Ev
libbcc.so.0:_ZN4llvm13GVNExpression24AggregateValueExpressionD1Ev
libbcc.so.0:_ZN4llvm13GVNExpression24AggregateValueExpressionD2Ev
libbcc.so.0:_ZN4llvm13GenericDINode15recalculateHashEv
libbcc.so.0:_ZN4llvm13GenericDINode7getImplERNS_11LLVMContextEjPNS_8MDStringENS_8ArrayRefIPNS_8MetadataEEENS6_11StorageTypeEb
libbcc.so.0:_ZN4llvm13GetReturnInfoEjPNS_4TypeENS_13AttributeListERNS_15SmallVectorImplINS_3ISD9OutputArgEEERKNS_14TargetLoweringERKNS_10DataLayoutE
libbcc.so.0:_ZN4llvm13GetStatisticsEv
libbcc.so.0:_ZN4llvm13GlobalDCEPass11ScanVTablesERNS_6ModuleE
libbcc.so.0:_ZN4llvm13GlobalDCEPass14ScanVTableLoadEPNS_8FunctionEPNS_8MetadataEm
libbcc.so.0:_ZN4llvm13GlobalDCEPass19ComputeDependenciesEPNS_5ValueERNS_15SmallPtrSetImplIPNS_11GlobalValueEEE
libbcc.so.0:_ZN4llvm13GlobalDCEPass20UpdateGVDependenciesERNS_11GlobalValueE
libbcc.so.0:_ZN4llvm13GlobalDCEPass29ScanTypeCheckedLoadIntrinsicsERNS_6ModuleE
libbcc.so.0:_ZN4llvm13GlobalDCEPass30AddVirtualFunctionDependenciesERNS_6ModuleE
libbcc.so.0:_ZN4llvm13GlobalDCEPass3runERNS_6ModuleERNS_15AnalysisManagerIS1_JEEE
libbcc.so.0:_ZN4llvm13GlobalDCEPass8MarkLiveERNS_11GlobalValueEPNS_15SmallVectorImplIPS1_EE
libbcc.so.0:_ZN4llvm13GlobalOptPass3runERNS_6ModuleERNS_15AnalysisManagerIS1_JEEE
libbcc.so.0:_ZN4llvm13IRBuilderBase12CreateMemSetEPNS_5ValueES2_S2_NS_10MaybeAlignEbPNS_6MDNodeES5_S5_
libbcc.so.0:_ZN4llvm13IRBuilderBase12CreateNAryOpEjNS_8ArrayRefIPNS_5ValueEEERKNS_5TwineEPNS_6MDNodeE
libbcc.so.0:_ZN4llvm13IRBuilderBase12CreateSelectEPNS_5ValueES2_S2_RKNS_5TwineEPNS_11InstructionE
libbcc.so.0:_ZN4llvm13IRBuilderBase12CreateVScaleEPNS_8ConstantERKNS_5TwineE
libbcc.so.0:_ZN4llvm13IRBuilderBase13CreateMemMoveEPNS_5ValueENS_10MaybeAlignES2_S3_S2_bPNS_6MDNodeES5_S5_
libbcc.so.0:_ZN4llvm13IRBuilderBase13CreatePtrDiffEPNS_4TypeEPNS_5ValueES4_RKNS_5TwineE
libbcc.so.0:_ZN4llvm13IRBuilderBase14CreateGCResultEPNS_11InstructionEPNS_4TypeERKNS_5TwineE
libbcc.so.0:_ZN4llvm13IRBuilderBase14CreateOrReduceEPNS_5ValueE
libbcc.so.0:_ZN4llvm13IRBuilderBase15CreateAddReduceEPNS_5ValueE
libbcc.so.0:_ZN4llvm13IRBuilderBase15CreateAndReduceEPNS_5ValueE
libbcc.so.0:_ZN4llvm13IRBuilderBase15CreateIntrinsicEjNS_8ArrayRefIPNS_4TypeEEENS1_IPNS_5ValueEEEPNS_11InstructionERKNS_5TwineE
libbcc.so.0:_ZN4llvm13IRBuilderBase15CreateMulReduceEPNS_5ValueE
libbcc.so.0:_ZN4llvm13IRBuilderBase15CreateXorReduceEPNS_5ValueE
libbcc.so.0:_ZN4llvm13IRBuilderBase16CreateAssumptionEPNS_5ValueENS_8ArrayRefINS_17OperandBundleDefTIS2_EEEE
libbcc.so.0:_ZN4llvm13IRBuilderBase16CreateFAddReduceEPNS_5ValueES2_
libbcc.so.0:_ZN4llvm13IRBuilderBase16CreateFCmpHelperENS_7CmpInst9PredicateEPNS_5ValueES4_RKNS_5TwineEPNS_6MDNodeEb
libbcc.so.0:_ZN4llvm13IRBuilderBase16CreateFMulReduceEPNS_5ValueES2_
libbcc.so.0:_ZN4llvm13IRBuilderBase16CreateGCRelocateEPNS_11InstructionEiiPNS_4TypeERKNS_5TwineE
libbcc.so.0:_ZN4llvm13IRBuilderBase16CreateMaskedLoadEPNS_4TypeEPNS_5ValueENS_5AlignES4_S4_RKNS_5TwineE
libbcc.so.0:_ZN4llvm13IRBuilderBase16CreateStepVectorEPNS_4TypeERKNS_5TwineE
libbcc.so.0:_ZN4llvm13IRBuilderBase17CreateFPMaxReduceEPNS_5ValueE
libbcc.so.0:_ZN4llvm13IRBuilderBase17CreateFPMinReduceEPNS_5ValueE
libbcc.so.0:_ZN4llvm13IRBuilderBase17CreateLifetimeEndEPNS_5ValueEPNS_11ConstantIntE
libbcc.so.0:_ZN4llvm13IRBuilderBase17CreateMaskedStoreEPNS_5ValueES2_NS_5AlignES2_
libbcc.so.0:_ZN4llvm13IRBuilderBase17CreateVectorSplatENS_12ElementCountEPNS_5ValueERKNS_5TwineE
libbcc.so.0:_ZN4llvm13IRBuilderBase17CreateVectorSplatEjPNS_5ValueERKNS_5TwineE
libbcc.so.0:_ZN4llvm13IRBuilderBase18CreateGlobalStringENS_9StringRefERKNS_5TwineEjPNS_6ModuleE
libbcc.so.0:_ZN4llvm13IRBuilderBase18CreateIntMaxReduceEPNS_5ValueEb
libbcc.so.0:_ZN4llvm13IRBuilderBase18CreateIntMinReduceEPNS_5ValueEb
libbcc.so.0:_ZN4llvm13IRBuilderBase18CreateMaskedGatherEPNS_4TypeEPNS_5ValueENS_5AlignES4_S4_RKNS_5TwineE
libbcc.so.0:_ZN4llvm13IRBuilderBase18CreateMemCpyInlineEPNS_5ValueENS_10MaybeAlignES2_S3_S2_bPNS_6MDNodeES5_S5_S5_
libbcc.so.0:_ZN4llvm13IRBuilderBase18CreateMemSetInlineEPNS_5ValueENS_10MaybeAlignES2_S2_bPNS_6MDNodeES5_S5_
libbcc.so.0:_ZN4llvm13IRBuilderBase18CreateVectorSpliceEPNS_5ValueES2_lRKNS_5TwineE
libbcc.so.0:_ZN4llvm13IRBuilderBase19CreateLifetimeStartEPNS_5ValueEPNS_11ConstantIntE
libbcc.so.0:_ZN4llvm13IRBuilderBase19CreateMaskedScatterEPNS_5ValueES2_NS_5AlignES2_
libbcc.so.0:_ZN4llvm13IRBuilderBase19CreateVectorReverseEPNS_5ValueERKNS_5TwineE
libbcc.so.0:_ZN4llvm13IRBuilderBase20CreateExtractIntegerERKNS_10DataLayoutEPNS_5ValueEPNS_11IntegerTypeEmRKNS_5TwineE
libbcc.so.0:_ZN4llvm13IRBuilderBase20CreateInvariantStartEPNS_5ValueEPNS_11ConstantIntE
libbcc.so.0:_ZN4llvm13IRBuilderBase20CreateUnaryIntrinsicEjPNS_5ValueEPNS_11InstructionERKNS_5TwineE
libbcc.so.0:_ZN4llvm13IRBuilderBase21CreateBinaryIntrinsicEjPNS_5ValueES2_PNS_11InstructionERKNS_5TwineE
libbcc.so.0:_ZN4llvm13IRBuilderBase21CreateMaskedIntrinsicEjNS_8ArrayRefIPNS_5ValueEEENS1_IPNS_4TypeEEERKNS_5TwineE
libbcc.so.0:_ZN4llvm13IRBuilderBase21CreateMemTransferInstEjPNS_5ValueENS_10MaybeAlignES2_S3_S2_bPNS_6MDNodeES5_S5_S5_
libbcc.so.0:_ZN4llvm13IRBuilderBase21getCastedInt8PtrValueEPNS_5ValueE
libbcc.so.0:_ZN4llvm13IRBuilderBase22CreateConstrainedFPCmpEjNS_7CmpInst9PredicateEPNS_5ValueES4_RKNS_5TwineENS_8OptionalINS_2fp17ExceptionBehaviorEEE
libbcc.so.0:_ZN4llvm13IRBuilderBase22CreateGCGetPointerBaseEPNS_5ValueERKNS_5TwineE
libbcc.so.0:_ZN4llvm13IRBuilderBase22CreateGCStatepointCallEmjNS_14FunctionCalleeENS_8ArrayRefINS_3UseEEENS_8OptionalINS2_IPNS_5ValueEEEEES8_RKNS_5TwineE
libbcc.so.0:_ZN4llvm13IRBuilderBase22CreateGCStatepointCallEmjNS_14FunctionCalleeENS_8ArrayRefIPNS_5ValueEEENS_8OptionalIS5_EES5_RKNS_5TwineE
libbcc.so.0:_ZN4llvm13IRBuilderBase22CreateGCStatepointCallEmjNS_14FunctionCalleeEjNS_8ArrayRefIPNS_5ValueEEENS_8OptionalINS2_INS_3UseEEEEES9_S5_RKNS_5TwineE
libbcc.so.0:_ZN4llvm13IRBuilderBase23CreateConstrainedFPCallEPNS_8FunctionENS_8ArrayRefIPNS_5ValueEEERKNS_5TwineENS_8OptionalINS_12RoundingModeEEENSA_INS_2fp17ExceptionBehaviorEEE
libbcc.so.0:_ZN4llvm13IRBuilderBase23CreateConstrainedFPCastEjPNS_5ValueEPNS_4TypeEPNS_11InstructionERKNS_5TwineEPNS_6MDNodeENS_8OptionalINS_12RoundingModeEEENSC_INS_2fp17ExceptionBehaviorEEE
libbcc.so.0:_ZN4llvm13IRBuilderBase24CreateConstrainedFPBinOpEjPNS_5ValueES2_PNS_11InstructionERKNS_5TwineEPNS_6MDNodeENS_8OptionalINS_12RoundingModeEEENSA_INS_2fp17ExceptionBehaviorEEE
libbcc.so.0:_ZN4llvm13IRBuilderBase24CreateGCGetPointerOffsetEPNS_5ValueERKNS_5TwineE
libbcc.so.0:_ZN4llvm13IRBuilderBase24CreateGCStatepointInvokeEmjNS_14FunctionCalleeEPNS_10BasicBlockES3_NS_8ArrayRefINS_3UseEEENS_8OptionalINS4_IPNS_5ValueEEEEESA_RKNS_5TwineE
libbcc.so.0:_ZN4llvm13IRBuilderBase24CreateGCStatepointInvokeEmjNS_14FunctionCalleeEPNS_10BasicBlockES3_NS_8ArrayRefIPNS_5ValueEEENS_8OptionalIS7_EES7_RKNS_5TwineE
libbcc.so.0:_ZN4llvm13IRBuilderBase24CreateGCStatepointInvokeEmjNS_14FunctionCalleeEPNS_10BasicBlockES3_jNS_8ArrayRefIPNS_5ValueEEENS_8OptionalINS4_INS_3UseEEEEESB_S7_RKNS_5TwineE
libbcc.so.0:_ZN4llvm13IRBuilderBase25CreateAlignmentAssumptionERKNS_10DataLayoutEPNS_5ValueES5_S5_
libbcc.so.0:_ZN4llvm13IRBuilderBase25CreateAlignmentAssumptionERKNS_10DataLayoutEPNS_5ValueEjS5_
libbcc.so.0:_ZN4llvm13IRBuilderBase25CreateStripInvariantGroupEPNS_5ValueE
libbcc.so.0:_ZN4llvm13IRBuilderBase27CreateLaunderInvariantGroupEPNS_5ValueE
libbcc.so.0:_ZN4llvm13IRBuilderBase29CreateNoAliasScopeDeclarationEPNS_5ValueE
libbcc.so.0:_ZN4llvm13IRBuilderBase30CreatePreserveArrayAccessIndexEPNS_4TypeEPNS_5ValueEjjPNS_6MDNodeE
libbcc.so.0:_ZN4llvm13IRBuilderBase30CreatePreserveUnionAccessIndexEPNS_5ValueEjPNS_6MDNodeE
libbcc.so.0:_ZN4llvm13IRBuilderBase31CreateAlignmentAssumptionHelperERKNS_10DataLayoutEPNS_5ValueES5_S5_
libbcc.so.0:_ZN4llvm13IRBuilderBase31CreatePreserveStructAccessIndexEPNS_4TypeEPNS_5ValueEjjPNS_6MDNodeE
libbcc.so.0:_ZN4llvm13IRBuilderBase34CreateElementUnorderedAtomicMemCpyEPNS_5ValueENS_5AlignES2_S3_S2_jPNS_6MDNodeES5_S5_S5_
libbcc.so.0:_ZN4llvm13IRBuilderBase34CreateElementUnorderedAtomicMemSetEPNS_5ValueES2_S2_NS_5AlignEjPNS_6MDNodeES5_S5_
libbcc.so.0:_ZN4llvm13IRBuilderBase35CreateElementUnorderedAtomicMemMoveEPNS_5ValueENS_5AlignES2_S3_S2_jPNS_6MDNodeES5_S5_S5_
libbcc.so.0:_ZN4llvm13ImmutablePass14initializePassEv
libbcc.so.0:_ZN4llvm13ImmutablePassD0Ev
libbcc.so.0:_ZN4llvm13ImmutablePassD1Ev
libbcc.so.0:_ZN4llvm13ImmutablePassD2Ev
libbcc.so.0:_ZN4llvm13InlineAdvisor12getCallerOREERNS_8CallBaseE
libbcc.so.0:_ZN4llvm13InlineAdvisor16getMandatoryKindERNS_8CallBaseERNS_15AnalysisManagerINS_8FunctionEJEEERNS_25OptimizationRemarkEmitterE
libbcc.so.0:_ZN4llvm13InlineAdvisor18getMandatoryAdviceERNS_8CallBaseEb
libbcc.so.0:_ZN4llvm13InlineAdvisor9getAdviceERNS_8CallBaseEb
libbcc.so.0:_ZN4llvm13InlineAdvisorC2ERNS_6ModuleERNS_15AnalysisManagerINS_8FunctionEJEEENS_8OptionalINS_13InlineContextEEE
libbcc.so.0:_ZN4llvm13InlineAdvisorD0Ev
libbcc.so.0:_ZN4llvm13InlineAdvisorD1Ev
libbcc.so.0:_ZN4llvm13InlineAdvisorD2Ev
libbcc.so.0:_ZN4llvm13InstCountPass3runERNS_8FunctionERNS_15AnalysisManagerIS1_JEEE
libbcc.so.0:_ZN4llvm13IntrinsicInst22mayLowerToFunctionCallEj
libbcc.so.0:_ZN4llvm13LPPassManager13runOnFunctionERNS_8FunctionE
libbcc.so.0:_ZN4llvm13LPPassManager17dumpPassStructureEj
libbcc.so.0:_ZN4llvm13LPPassManager17markLoopAsDeletedERNS_4LoopE
libbcc.so.0:_ZN4llvm13LPPassManager7addLoopERNS_4LoopE
libbcc.so.0:_ZN4llvm13LPPassManagerC1Ev
libbcc.so.0:_ZN4llvm13LPPassManagerC2Ev
libbcc.so.0:_ZN4llvm13LazyCallGraph10insertEdgeERNS0_4NodeES2_NS0_4Edge4KindE
libbcc.so.0:_ZN4llvm13LazyCallGraph10insertIntoERNS_8FunctionERPNS0_4NodeE
libbcc.so.0:_ZN4llvm13LazyCallGraph10invalidateERNS_6ModuleERKNS_17PreservedAnalysesERNS_15AnalysisManagerIS1_JEE11InvalidatorE
libbcc.so.0:_ZN4llvm13LazyCallGraph10removeEdgeERNS0_4NodeES2_
libbcc.so.0:_ZN4llvm13LazyCallGraph12EdgeSequence11setEdgeKindERNS0_4NodeENS0_4Edge4KindE
libbcc.so.0:_ZN4llvm13LazyCallGraph12EdgeSequence18insertEdgeInternalERNS0_4NodeENS0_4Edge4KindE
libbcc.so.0:_ZN4llvm13LazyCallGraph12EdgeSequence18removeEdgeInternalERNS0_4NodeE
libbcc.so.0:_ZN4llvm13LazyCallGraph12buildRefSCCsEv
libbcc.so.0:_ZN4llvm13LazyCallGraph15updateGraphPtrsEv
libbcc.so.0:_ZN4llvm13LazyCallGraph15visitReferencesERNS_15SmallVectorImplIPNS_8ConstantEEERNS_15SmallPtrSetImplIS3_EENS_12function_refIFvRNS_8FunctionEEEE
libbcc.so.0:_ZN4llvm13LazyCallGraph16addSplitFunctionERNS_8FunctionES2_
libbcc.so.0:_ZN4llvm13LazyCallGraph18removeDeadFunctionERNS_8FunctionE
libbcc.so.0:_ZN4llvm13LazyCallGraph29addSplitRefRecursiveFunctionsERNS_8FunctionENS_8ArrayRefIPS1_EE
libbcc.so.0:_ZN4llvm13LazyCallGraph4Node12populateSlowEv
libbcc.so.0:_ZN4llvm13LazyCallGraph4Node15replaceFunctionERNS_8FunctionE
libbcc.so.0:_ZN4llvm13LazyCallGraph6RefSCC18insertOutgoingEdgeERNS0_4NodeES3_NS0_4Edge4KindE
libbcc.so.0:_ZN4llvm13LazyCallGraph6RefSCC18removeOutgoingEdgeERNS0_4NodeES3_
libbcc.so.0:_ZN4llvm13LazyCallGraph6RefSCC19replaceNodeFunctionERNS0_4NodeERNS_8FunctionE
libbcc.so.0:_ZN4llvm13LazyCallGraph6RefSCC20insertTrivialRefEdgeERNS0_4NodeES3_
libbcc.so.0:_ZN4llvm13LazyCallGraph6RefSCC21insertIncomingRefEdgeERNS0_4NodeES3_
libbcc.so.0:_ZN4llvm13LazyCallGraph6RefSCC21insertInternalRefEdgeERNS0_4NodeES3_
libbcc.so.0:_ZN4llvm13LazyCallGraph6RefSCC21insertTrivialCallEdgeERNS0_4NodeES3_
libbcc.so.0:_ZN4llvm13LazyCallGraph6RefSCC21removeInternalRefEdgeERNS0_4NodeENS_8ArrayRefIPS2_EE
libbcc.so.0:_ZN4llvm13LazyCallGraph6RefSCC23switchInternalEdgeToRefERNS0_4NodeES3_
libbcc.so.0:_ZN4llvm13LazyCallGraph6RefSCC23switchOutgoingEdgeToRefERNS0_4NodeES3_
libbcc.so.0:_ZN4llvm13LazyCallGraph6RefSCC24switchInternalEdgeToCallERNS0_4NodeES3_NS_12function_refIFvNS_8ArrayRefIPNS0_3SCCEEEEEE
libbcc.so.0:_ZN4llvm13LazyCallGraph6RefSCC24switchOutgoingEdgeToCallERNS0_4NodeES3_
libbcc.so.0:_ZN4llvm13LazyCallGraph6RefSCC30switchTrivialInternalEdgeToRefERNS0_4NodeES3_
libbcc.so.0:_ZN4llvm13LazyCallGraph6RefSCCC1ERS0_
libbcc.so.0:_ZN4llvm13LazyCallGraph6RefSCCC2ERS0_
libbcc.so.0:_ZN4llvm13LazyCallGraph8initNodeERNS_8FunctionE
libbcc.so.0:_ZN4llvm13LazyCallGraph9buildSCCsERNS0_6RefSCCENS_14iterator_rangeISt16reverse_iteratorIPPNS0_4NodeEEEE
libbcc.so.0:_ZN4llvm13LazyCallGraphC1EOS0_
libbcc.so.0:_ZN4llvm13LazyCallGraphC1ERNS_6ModuleENS_12function_refIFRNS_17TargetLibraryInfoERNS_8FunctionEEEE
libbcc.so.0:_ZN4llvm13LazyCallGraphC2EOS0_
libbcc.so.0:_ZN4llvm13LazyCallGraphC2ERNS_6ModuleENS_12function_refIFRNS_17TargetLibraryInfoERNS_8FunctionEEEE
libbcc.so.0:_ZN4llvm13LazyCallGraphaSEOS0_
libbcc.so.0:_ZN4llvm13LazyValueInfo10eraseBlockEPNS_10BasicBlockE
libbcc.so.0:_ZN4llvm13LazyValueInfo10invalidateERNS_8FunctionERKNS_17PreservedAnalysesERNS_15AnalysisManagerIS1_JEE11InvalidatorE
libbcc.so.0:_ZN4llvm13LazyValueInfo10threadEdgeEPNS_10BasicBlockES2_S2_
libbcc.so.0:_ZN4llvm13LazyValueInfo11getConstantEPNS_5ValueEPNS_11InstructionE
libbcc.so.0:_ZN4llvm13LazyValueInfo13releaseMemoryEv
libbcc.so.0:_ZN4llvm13LazyValueInfo14getPredicateAtEjPNS_5ValueEPNS_8ConstantEPNS_11InstructionEb
libbcc.so.0:_ZN4llvm13LazyValueInfo14getPredicateAtEjPNS_5ValueES2_PNS_11InstructionEb
libbcc.so.0:_ZN4llvm13LazyValueInfo16getConstantRangeEPNS_5ValueEPNS_11InstructionEb
libbcc.so.0:_ZN4llvm13LazyValueInfo17getConstantOnEdgeEPNS_5ValueEPNS_10BasicBlockES4_PNS_11InstructionE
libbcc.so.0:_ZN4llvm13LazyValueInfo18getPredicateOnEdgeEjPNS_5ValueEPNS_8ConstantEPNS_10BasicBlockES6_PNS_11InstructionE
libbcc.so.0:_ZN4llvm13LazyValueInfo22getConstantRangeOnEdgeEPNS_5ValueEPNS_10BasicBlockES4_PNS_11InstructionE
libbcc.so.0:_ZN4llvm13LazyValueInfo5clearEPKNS_6ModuleE
libbcc.so.0:_ZN4llvm13LazyValueInfo8printLVIERNS_8FunctionERNS_13DominatorTreeERNS_11raw_ostreamE
libbcc.so.0:_ZN4llvm13LazyValueInfoD1Ev
libbcc.so.0:_ZN4llvm13LazyValueInfoD2Ev
libbcc.so.0:_ZN4llvm13LegalizerInfo22aliasActionDefinitionsEjj
libbcc.so.0:_ZN4llvm13LegalizerInfo27getActionDefinitionsBuilderESt16initializer_listIjE
libbcc.so.0:_ZN4llvm13LegalizerInfo27getActionDefinitionsBuilderEj
libbcc.so.0:_ZN4llvm13LexicalScopes10initializeERKNS_15MachineFunctionE
libbcc.so.0:_ZN4llvm13LexicalScopes16findLexicalScopeEPKNS_10DILocationE
libbcc.so.0:_ZN4llvm13LexicalScopes18constructScopeNestEPNS_12LexicalScopeE
libbcc.so.0:_ZN4llvm13LexicalScopes20extractLexicalScopesERNS_15SmallVectorImplISt4pairIPKNS_12MachineInstrES5_EEERNS_8DenseMapIS5_PNS_12LexicalScopeENS_12DenseMapInfoIS5_vEENS_6detail12DenseMapPairIS5_SB_EEEE
libbcc.so.0:_ZN4llvm13LexicalScopes21getMachineBasicBlocksEPKNS_10DILocationERNS_15SmallPtrSetImplIPKNS_17MachineBasicBlockEEE
libbcc.so.0:_ZN4llvm13LexicalScopes23assignInstructionRangesERNS_15SmallVectorImplISt4pairIPKNS_12MachineInstrES5_EEERNS_8DenseMapIS5_PNS_12LexicalScopeENS_12DenseMapInfoIS5_vEENS_6detail12DenseMapPairIS5_SB_EEEE
libbcc.so.0:_ZN4llvm13LexicalScopes23getOrCreateInlinedScopeEPKNS_12DILocalScopeEPKNS_10DILocationE
libbcc.so.0:_ZN4llvm13LexicalScopes23getOrCreateLexicalScopeEPKNS_12DILocalScopeEPKNS_10DILocationE
libbcc.so.0:_ZN4llvm13LexicalScopes23getOrCreateRegularScopeEPKNS_12DILocalScopeE
libbcc.so.0:_ZN4llvm13LexicalScopes24getOrCreateAbstractScopeEPKNS_12DILocalScopeE
libbcc.so.0:_ZN4llvm13LexicalScopes5resetEv
libbcc.so.0:_ZN4llvm13LexicalScopes9dominatesEPKNS_10DILocationEPNS_17MachineBasicBlockE
libbcc.so.0:_ZN4llvm13LiveIntervals10handleMoveERNS_12MachineInstrEb
libbcc.so.0:_ZN4llvm13LiveIntervals10pruneValueERNS_9LiveRangeENS_9SlotIndexEPNS_15SmallVectorImplIS3_EE
libbcc.so.0:_ZN4llvm13LiveIntervals12addKillFlagsEPKNS_10VirtRegMapE
libbcc.so.0:_ZN4llvm13LiveIntervals12shrinkToUsesEPNS_12LiveIntervalEPNS_15SmallVectorImplIPNS_12MachineInstrEEE
libbcc.so.0:_ZN4llvm13LiveIntervals12shrinkToUsesERNS_12LiveInterval8SubRangeENS_8RegisterE
libbcc.so.0:_ZN4llvm13LiveIntervals13releaseMemoryEv
libbcc.so.0:_ZN4llvm13LiveIntervals14createIntervalENS_8RegisterE
libbcc.so.0:_ZN4llvm13LiveIntervals14getSpillWeightEbbPKNS_25MachineBlockFrequencyInfoEPKNS_17MachineBasicBlockE
libbcc.so.0:_ZN4llvm13LiveIntervals14getSpillWeightEbbPKNS_25MachineBlockFrequencyInfoERKNS_12MachineInstrE
libbcc.so.0:_ZN4llvm13LiveIntervals15computeRegMasksEv
libbcc.so.0:_ZN4llvm13LiveIntervals15computeVirtRegsEv
libbcc.so.0:_ZN4llvm13LiveIntervals15extendToIndicesERNS_9LiveRangeENS_8ArrayRefINS_9SlotIndexEEES5_
libbcc.so.0:_ZN4llvm13LiveIntervals15removeVRegDefAtERNS_12LiveIntervalENS_9SlotIndexE
libbcc.so.0:_ZN4llvm13LiveIntervals17computeDeadValuesERNS_12LiveIntervalEPNS_15SmallVectorImplIPNS_12MachineInstrEEE
libbcc.so.0:_ZN4llvm13LiveIntervals18removePhysRegDefAtENS_10MCRegisterENS_9SlotIndexE
libbcc.so.0:_ZN4llvm13LiveIntervals19computeRegUnitRangeERNS_9LiveRangeEj
libbcc.so.0:_ZN4llvm13LiveIntervals19repairOldRegInRangeENS_26MachineInstrBundleIteratorINS_12MachineInstrELb0EEES3_NS_9SlotIndexERNS_9LiveRangeENS_8RegisterENS_11LaneBitmaskE
libbcc.so.0:_ZN4llvm13LiveIntervals20extendSegmentsToUsesERNS_9LiveRangeERNS_11SmallVectorISt4pairINS_9SlotIndexEPNS_6VNInfoEELj16EEENS_8RegisterENS_11LaneBitmaskE
libbcc.so.0:_ZN4llvm13LiveIntervals20runOnMachineFunctionERNS_15MachineFunctionE
libbcc.so.0:_ZN4llvm13LiveIntervals21computeLiveInRegUnitsEv
libbcc.so.0:_ZN4llvm13LiveIntervals22addSegmentToEndOfBlockENS_8RegisterERNS_12MachineInstrE
libbcc.so.0:_ZN4llvm13LiveIntervals22computeVirtRegIntervalERNS_12LiveIntervalE
libbcc.so.0:_ZN4llvm13LiveIntervals22repairIntervalsInRangeEPNS_17MachineBasicBlockENS_26MachineInstrBundleIteratorINS_12MachineInstrELb0EEES5_NS_8ArrayRefINS_8RegisterEEE
libbcc.so.0:_ZN4llvm13LiveIntervals23handleMoveIntoNewBundleERNS_12MachineInstrEb
libbcc.so.0:_ZN4llvm13LiveIntervals23splitSeparateComponentsERNS_12LiveIntervalERNS_15SmallVectorImplIPS1_EE
libbcc.so.0:_ZN4llvm13LiveIntervals24checkRegMaskInterferenceERKNS_12LiveIntervalERNS_9BitVectorE
libbcc.so.0:_ZN4llvm13LiveIntervals31constructMainRangeFromSubrangesERNS_12LiveIntervalE
libbcc.so.0:_ZN4llvm13LiveIntervalsC1Ev
libbcc.so.0:_ZN4llvm13LiveIntervalsC2Ev
libbcc.so.0:_ZN4llvm13LiveIntervalsD0Ev
libbcc.so.0:_ZN4llvm13LiveIntervalsD1Ev
libbcc.so.0:_ZN4llvm13LiveIntervalsD2Ev
libbcc.so.0:_ZN4llvm13LiveRangeCalc12isDefOnEntryERNS_9LiveRangeENS_8ArrayRefINS_9SlotIndexEEERNS_17MachineBasicBlockERNS_9BitVectorES9_
libbcc.so.0:_ZN4llvm13LiveRangeCalc15calculateValuesEv
libbcc.so.0:_ZN4llvm13LiveRangeCalc15resetLiveOutMapEv
libbcc.so.0:_ZN4llvm13LiveRangeCalc16findReachingDefsERNS_9LiveRangeERNS_17MachineBasicBlockENS_9SlotIndexEjNS_8ArrayRefIS5_EE
libbcc.so.0:_ZN4llvm13LiveRangeCalc17updateFromLiveInsEv
libbcc.so.0:_ZN4llvm13LiveRangeCalc18isJointlyDominatedEPKNS_17MachineBasicBlockENS_8ArrayRefINS_9SlotIndexEEERKNS_11SlotIndexesE
libbcc.so.0:_ZN4llvm13LiveRangeCalc5resetEPKNS_15MachineFunctionEPNS_11SlotIndexesEPNS_20MachineDominatorTreeEPNS_20BumpPtrAllocatorImplINS_15MallocAllocatorELm4096ELm4096ELm128EEE
libbcc.so.0:_ZN4llvm13LiveRangeCalc6extendERNS_9LiveRangeENS_9SlotIndexEjNS_8ArrayRefIS3_EE
libbcc.so.0:_ZN4llvm13LiveRangeCalc9updateSSAEv
libbcc.so.0:_ZN4llvm13LiveRangeEdit10createFromENS_8RegisterE
libbcc.so.0:_ZN4llvm13LiveRangeEdit10foldAsLoadEPNS_12LiveIntervalERNS_15SmallVectorImplIPNS_12MachineInstrEEE
libbcc.so.0:_ZN4llvm13LiveRangeEdit12eraseVirtRegENS_8RegisterE
libbcc.so.0:_ZN4llvm13LiveRangeEdit14scanRemattableEv
libbcc.so.0:_ZN4llvm13LiveRangeEdit15rematerializeAtERNS_17MachineBasicBlockENS_26MachineInstrBundleIteratorINS_12MachineInstrELb0EEEjRKNS0_5RematERKNS_18TargetRegisterInfoEb
libbcc.so.0:_ZN4llvm13LiveRangeEdit16eliminateDeadDefEPNS_12MachineInstrERNS_9SetVectorIPNS_12LiveIntervalENS_11SmallVectorIS5_Lj8EEENS_11SmallPtrSetIS5_Lj8EEEEE
libbcc.so.0:_ZN4llvm13LiveRangeEdit17eliminateDeadDefsERNS_15SmallVectorImplIPNS_12MachineInstrEEENS_8ArrayRefINS_8RegisterEEE
libbcc.so.0:_ZN4llvm13LiveRangeEdit18canRematerializeAtERNS0_5RematEPNS_6VNInfoENS_9SlotIndexEb
libbcc.so.0:_ZN4llvm13LiveRangeEdit19anyRematerializableEv
libbcc.so.0:_ZN4llvm13LiveRangeEdit21checkRematerializableEPNS_6VNInfoEPKNS_12MachineInstrE
libbcc.so.0:_ZN4llvm13LiveRangeEdit23createEmptyIntervalFromENS_8RegisterEb
libbcc.so.0:_ZN4llvm13LiveRangeEdit24calculateRegClassAndHintERNS_15MachineFunctionERNS_14VirtRegAuxInfoE
libbcc.so.0:_ZN4llvm13LiveRangeEdit26MRI_NoteNewVirtualRegisterENS_8RegisterE
libbcc.so.0:_ZN4llvm13LiveRangeEdit8Delegate6anchorEv
libbcc.so.0:_ZN4llvm13LiveRegMatrix13releaseMemoryEv
libbcc.so.0:_ZN4llvm13LiveRegMatrix17checkInterferenceENS_9SlotIndexES1_NS_10MCRegisterE
libbcc.so.0:_ZN4llvm13LiveRegMatrix17checkInterferenceERKNS_12LiveIntervalENS_10MCRegisterE
libbcc.so.0:_ZN4llvm13LiveRegMatrix20runOnMachineFunctionERNS_15MachineFunctionE
libbcc.so.0:_ZN4llvm13LiveRegMatrix24checkRegMaskInterferenceERKNS_12LiveIntervalENS_10MCRegisterE
libbcc.so.0:_ZN4llvm13LiveRegMatrix24checkRegUnitInterferenceERKNS_12LiveIntervalENS_10MCRegisterE
libbcc.so.0:_ZN4llvm13LiveRegMatrix5queryERKNS_9LiveRangeENS_10MCRegisterE
libbcc.so.0:_ZN4llvm13LiveRegMatrix6assignERKNS_12LiveIntervalENS_10MCRegisterE
libbcc.so.0:_ZN4llvm13LiveRegMatrix8unassignERKNS_12LiveIntervalE
libbcc.so.0:_ZN4llvm13LiveRegMatrixC1Ev
libbcc.so.0:_ZN4llvm13LiveRegMatrixC2Ev
libbcc.so.0:_ZN4llvm13LiveVariables10getVarInfoENS_8RegisterE
libbcc.so.0:_ZN4llvm13LiveVariables10runOnBlockEPNS_17MachineBasicBlockEj
libbcc.so.0:_ZN4llvm13LiveVariables10runOnInstrERNS_12MachineInstrERNS_15SmallVectorImplIjEE
libbcc.so.0:_ZN4llvm13LiveVariables11addNewBlockEPNS_17MachineBasicBlockES2_S2_
libbcc.so.0:_ZN4llvm13LiveVariables11addNewBlockEPNS_17MachineBasicBlockES2_S2_RSt6vectorINS_15SparseBitVectorILj128EEESaIS5_EE
libbcc.so.0:_ZN4llvm13LiveVariables13HandleRegMaskERKNS_14MachineOperandE
libbcc.so.0:_ZN4llvm13LiveVariables15analyzePHINodesERKNS_15MachineFunctionE
libbcc.so.0:_ZN4llvm13LiveVariables16HandlePhysRegDefENS_8RegisterEPNS_12MachineInstrERNS_15SmallVectorImplIjEE
libbcc.so.0:_ZN4llvm13LiveVariables16HandlePhysRegUseENS_8RegisterERNS_12MachineInstrE
libbcc.so.0:_ZN4llvm13LiveVariables16HandleVirtRegDefENS_8RegisterERNS_12MachineInstrE
libbcc.so.0:_ZN4llvm13LiveVariables16HandleVirtRegUseENS_8RegisterEPNS_17MachineBasicBlockERNS_12MachineInstrE
libbcc.so.0:_ZN4llvm13LiveVariables17HandlePhysRegKillENS_8RegisterEPNS_12MachineInstrE
libbcc.so.0:_ZN4llvm13LiveVariables17UpdatePhysRegDefsERNS_12MachineInstrERNS_15SmallVectorImplIjEE
libbcc.so.0:_ZN4llvm13LiveVariables18FindLastPartialDefENS_8RegisterERNS_8SmallSetIjLj4ESt4lessIjEEE
libbcc.so.0:_ZN4llvm13LiveVariables20FindLastRefOrPartRefENS_8RegisterE
libbcc.so.0:_ZN4llvm13LiveVariables20runOnMachineFunctionERNS_15MachineFunctionE
libbcc.so.0:_ZN4llvm13LiveVariables22replaceKillInstructionENS_8RegisterERNS_12MachineInstrES3_
libbcc.so.0:_ZN4llvm13LiveVariables23MarkVirtRegAliveInBlockERNS0_7VarInfoEPNS_17MachineBasicBlockES4_
libbcc.so.0:_ZN4llvm13LiveVariables23MarkVirtRegAliveInBlockERNS0_7VarInfoEPNS_17MachineBasicBlockES4_RNS_15SmallVectorImplIS4_EE
libbcc.so.0:_ZN4llvm13LiveVariables28recomputeForSingleDefVirtRegENS_8RegisterE
libbcc.so.0:_ZN4llvm13LiveVariables28removeVirtualRegistersKilledERNS_12MachineInstrE
libbcc.so.0:_ZN4llvm13LiveVariables7VarInfo8isLiveInERKNS_17MachineBasicBlockENS_8RegisterERNS_19MachineRegisterInfoE
libbcc.so.0:_ZN4llvm13LiveVariables9isLiveOutENS_8RegisterERKNS_17MachineBasicBlockE
libbcc.so.0:_ZN4llvm13LoopBlocksDFS7performEPNS_8LoopInfoE
libbcc.so.0:_ZN4llvm13LoopTraversal11isBlockDoneEPNS_17MachineBasicBlockE
libbcc.so.0:_ZN4llvm13LoopTraversal8traverseERNS_15MachineFunctionE
libbcc.so.0:_ZN4llvm13MCAsmInfoCOFF6anchorEv
libbcc.so.0:_ZN4llvm13MCAsmInfoCOFFC1Ev
libbcc.so.0:_ZN4llvm13MCAsmInfoCOFFC2Ev
libbcc.so.0:_ZN4llvm13MCCodeEmitterC2Ev
libbcc.so.0:_ZN4llvm13MCCodeEmitterD0Ev
libbcc.so.0:_ZN4llvm13MCCodeEmitterD1Ev
libbcc.so.0:_ZN4llvm13MCCodeEmitterD2Ev
libbcc.so.0:_ZN4llvm13MCELFStreamer10finishImplEv
libbcc.so.0:_ZN4llvm13MCELFStreamer11emitELFSizeEPNS_8MCSymbolEPKNS_6MCExprE
libbcc.so.0:_ZN4llvm13MCELFStreamer12emitZerofillEPNS_9MCSectionEPNS_8MCSymbolEmjNS_5SMLocE
libbcc.so.0:_ZN4llvm13MCELFStreamer12initSectionsEbRKNS_15MCSubtargetInfoE
libbcc.so.0:_ZN4llvm13MCELFStreamer13changeSectionEPNS_9MCSectionEPKNS_6MCExprE
libbcc.so.0:_ZN4llvm13MCELFStreamer13emitThumbFuncEPNS_8MCSymbolE
libbcc.so.0:_ZN4llvm13MCELFStreamer13emitValueImplEPKNS_6MCExprEjNS_5SMLocE
libbcc.so.0:_ZN4llvm13MCELFStreamer13mergeFragmentEPNS_14MCDataFragmentES2_
libbcc.so.0:_ZN4llvm13MCELFStreamer14emitBundleLockEb
libbcc.so.0:_ZN4llvm13MCELFStreamer14emitInstToDataERKNS_6MCInstERKNS_15MCSubtargetInfoE
libbcc.so.0:_ZN4llvm13MCELFStreamer14emitLabelAtPosEPNS_8MCSymbolENS_5SMLocEPNS_10MCFragmentEm
libbcc.so.0:_ZN4llvm13MCELFStreamer14emitSymbolDescEPNS_8MCSymbolEj
libbcc.so.0:_ZN4llvm13MCELFStreamer14emitTBSSSymbolEPNS_9MCSectionEPNS_8MCSymbolEmj
libbcc.so.0:_ZN4llvm13MCELFStreamer16emitBundleUnlockEv
libbcc.so.0:_ZN4llvm13MCELFStreamer16emitCommonSymbolEPNS_8MCSymbolEmj
libbcc.so.0:_ZN4llvm13MCELFStreamer16getAttributeItemEj
libbcc.so.0:_ZN4llvm13MCELFStreamer16setAttributeItemEjNS_9StringRefEb
libbcc.so.0:_ZN4llvm13MCELFStreamer16setAttributeItemEjjb
libbcc.so.0:_ZN4llvm13MCELFStreamer17emitAssemblerFlagENS_15MCAssemblerFlagE
libbcc.so.0:_ZN4llvm13MCELFStreamer17emitWeakReferenceEPNS_8MCSymbolEPKS1_
libbcc.so.0:_ZN4llvm13MCELFStreamer17finalizeCGProfileEv
libbcc.so.0:_ZN4llvm13MCELFStreamer17setAttributeItemsEjjNS_9StringRefEb
libbcc.so.0:_ZN4llvm13MCELFStreamer18emitCGProfileEntryEPKNS_15MCSymbolRefExprES3_m
libbcc.so.0:_ZN4llvm13MCELFStreamer18emitInstToFragmentERKNS_6MCInstERKNS_15MCSubtargetInfoE
libbcc.so.0:_ZN4llvm13MCELFStreamer19emitBundleAlignModeEj
libbcc.so.0:_ZN4llvm13MCELFStreamer19emitSymbolAttributeEPNS_8MCSymbolENS_12MCSymbolAttrE
libbcc.so.0:_ZN4llvm13MCELFStreamer20calculateContentSizeERNS_11SmallVectorINS0_13AttributeItemELj64EEE
libbcc.so.0:_ZN4llvm13MCELFStreamer20emitValueToAlignmentEjljj
libbcc.so.0:_ZN4llvm13MCELFStreamer21emitLocalCommonSymbolEPNS_8MCSymbolEmj
libbcc.so.0:_ZN4llvm13MCELFStreamer21fixSymbolsInTLSFixupsEPKNS_6MCExprE
libbcc.so.0:_ZN4llvm13MCELFStreamer22emitELFSymverDirectiveEPKNS_8MCSymbolENS_9StringRefEb
libbcc.so.0:_ZN4llvm13MCELFStreamer22finalizeCGProfileEntryERPKNS_15MCSymbolRefExprEm
libbcc.so.0:_ZN4llvm13MCELFStreamer23createAttributesSectionENS_9StringRefERKNS_5TwineEjRPNS_9MCSectionERNS_11SmallVectorINS0_13AttributeItemELj64EEE
libbcc.so.0:_ZN4llvm13MCELFStreamer9emitIdentENS_9StringRefE
libbcc.so.0:_ZN4llvm13MCELFStreamer9emitLabelEPNS_8MCSymbolENS_5SMLocE
libbcc.so.0:_ZN4llvm13MCELFStreamerC1ERNS_9MCContextESt10unique_ptrINS_12MCAsmBackendESt14default_deleteIS4_EES3_INS_14MCObjectWriterES5_IS8_EES3_INS_13MCCodeEmitterES5_ISB_EE
libbcc.so.0:_ZN4llvm13MCELFStreamerC2ERNS_9MCContextESt10unique_ptrINS_12MCAsmBackendESt14default_deleteIS4_EES3_INS_14MCObjectWriterES5_IS8_EES3_INS_13MCCodeEmitterES5_ISB_EE
libbcc.so.0:_ZN4llvm13MCInstPrinter15printAnnotationERNS_11raw_ostreamENS_9StringRefE
libbcc.so.0:_ZN4llvm13MCInstPrinter18matchAliasPatternsEPKNS_6MCInstEPKNS_15MCSubtargetInfoERKNS_17AliasMatchingDataE
libbcc.so.0:_ZN4llvm13MCInstPrinterD0Ev
libbcc.so.0:_ZN4llvm13MCInstPrinterD1Ev
libbcc.so.0:_ZN4llvm13MCInstPrinterD2Ev
libbcc.so.0:_ZN4llvm13MCLineSection11addEndEntryEPNS_8MCSymbolE
libbcc.so.0:_ZN4llvm13MCParserUtils25parseAssignmentExpressionENS_9StringRefEbRNS_11MCAsmParserERPNS_8MCSymbolERPKNS_6MCExprE
libbcc.so.0:_ZN4llvm13MCSymbolXCOFF19setRepresentedCsectEPNS_14MCSectionXCOFFE
libbcc.so.0:_ZN4llvm13MDAttachments3setEjPNS_6MDNodeE
libbcc.so.0:_ZN4llvm13MDAttachments5eraseEj
libbcc.so.0:_ZN4llvm13MDAttachments6insertEjRNS_6MDNodeE
libbcc.so.0:_ZN4llvm13MachineRegionC1EPNS_17MachineBasicBlockES2_PNS_17MachineRegionInfoEPNS_20MachineDominatorTreeEPS0_
libbcc.so.0:_ZN4llvm13MachineRegionC2EPNS_17MachineBasicBlockES2_PNS_17MachineRegionInfoEPNS_20MachineDominatorTreeEPS0_
libbcc.so.0:_ZN4llvm13MachineRegionD1Ev
libbcc.so.0:_ZN4llvm13MachineRegionD2Ev
libbcc.so.0:_ZN4llvm13MemCpyOptPass12processStoreEPNS_9StoreInstERNS_14ilist_iteratorINS_12ilist_detail12node_optionsINS_11InstructionELb0ELb0EvEELb0ELb0EEE
libbcc.so.0:_ZN4llvm13MemCpyOptPass13processMemCpyEPNS_10MemCpyInstERNS_14ilist_iteratorINS_12ilist_detail12node_optionsINS_11InstructionELb0ELb0EvEELb0ELb0EEE
libbcc.so.0:_ZN4llvm13MemCpyOptPass13processMemSetEPNS_10MemSetInstERNS_14ilist_iteratorINS_12ilist_detail12node_optionsINS_11InstructionELb0ELb0EvEELb0ELb0EEE
libbcc.so.0:_ZN4llvm13MemCpyOptPass14processMemMoveEPNS_11MemMoveInstE
libbcc.so.0:_ZN4llvm13MemCpyOptPass16eraseInstructionEPNS_11InstructionE
libbcc.so.0:_ZN4llvm13MemCpyOptPass17iterateOnFunctionERNS_8FunctionE
libbcc.so.0:_ZN4llvm13MemCpyOptPass20performCallSlotOptznEPNS_11InstructionES2_PNS_5ValueES4_NS_8TypeSizeENS_5AlignESt8functionIFPNS_8CallInstEvEE
libbcc.so.0:_ZN4llvm13MemCpyOptPass20processByValArgumentERNS_8CallBaseEj
libbcc.so.0:_ZN4llvm13MemCpyOptPass20tryMergingIntoMemsetEPNS_11InstructionEPNS_5ValueES4_
libbcc.so.0:_ZN4llvm13MemCpyOptPass26performMemCpyToMemSetOptznEPNS_10MemCpyInstEPNS_10MemSetInstE
libbcc.so.0:_ZN4llvm13MemCpyOptPass29processMemCpyMemCpyDependenceEPNS_10MemCpyInstES2_
libbcc.so.0:_ZN4llvm13MemCpyOptPass29processMemSetMemCpyDependenceEPNS_10MemCpyInstEPNS_10MemSetInstE
libbcc.so.0:_ZN4llvm13MemCpyOptPass3runERNS_8FunctionERNS_15AnalysisManagerIS1_JEEE
libbcc.so.0:_ZN4llvm13MemCpyOptPass6moveUpEPNS_9StoreInstEPNS_11InstructionEPKNS_8LoadInstE
libbcc.so.0:_ZN4llvm13MemCpyOptPass7runImplERNS_8FunctionEPNS_17TargetLibraryInfoEPNS_9AAResultsEPNS_15AssumptionCacheEPNS_13DominatorTreeEPNS_9MemorySSAE
libbcc.so.0:_ZN4llvm13MemorySSAUtil19defClobbersUseOrDefEPNS_9MemoryDefEPKNS_14MemoryUseOrDefERNS_9AAResultsE
libbcc.so.0:_ZN4llvm13OpenMPOptPass3runERNS_6ModuleERNS_15AnalysisManagerIS1_JEEE
libbcc.so.0:_ZN4llvm13PMDataManager12dumpPassInfoEPNS_4PassENS_19PassDebuggingStringES3_NS_9StringRefE
libbcc.so.0:_ZN4llvm13PMDataManager15getOnTheFlyPassEPNS_4PassEPKvRNS_8FunctionE
libbcc.so.0:_ZN4llvm13PMDataManager16findAnalysisPassEPKvb
libbcc.so.0:_ZN4llvm13PMDataManager16removeDeadPassesEPNS_4PassENS_9StringRefENS_19PassDebuggingStringE
libbcc.so.0:_ZN4llvm13PMDataManager18initSizeRemarkInfoERNS_6ModuleERNS_9StringMapISt4pairIjjENS_15MallocAllocatorEEE
libbcc.so.0:_ZN4llvm13PMDataManager22initializeAnalysisImplEPNS_4PassE
libbcc.so.0:_ZN4llvm13PMDataManager23recordAvailableAnalysisEPNS_4PassE
libbcc.so.0:_ZN4llvm13PMDataManager23verifyPreservedAnalysisEPNS_4PassE
libbcc.so.0:_ZN4llvm13PMDataManager25addLowerLevelRequiredPassEPNS_4PassES2_
libbcc.so.0:_ZN4llvm13PMDataManager26removeNotPreservedAnalysisEPNS_4PassE
libbcc.so.0:_ZN4llvm13PMDataManager27emitInstrCountChangedRemarkEPNS_4PassERNS_6ModuleEljRNS_9StringMapISt4pairIjjENS_15MallocAllocatorEEEPNS_8FunctionE
libbcc.so.0:_ZN4llvm13PMDataManager27preserveHigherLevelAnalysisEPNS_4PassE
libbcc.so.0:_ZN4llvm13PMDataManager30collectRequiredAndUsedAnalysesERNS_15SmallVectorImplIPNS_4PassEEERNS1_IPKvEES3_
libbcc.so.0:_ZN4llvm13PMDataManager3addEPNS_4PassEb
libbcc.so.0:_ZN4llvm13PMDataManager8freePassEPNS_4PassENS_9StringRefENS_19PassDebuggingStringE
libbcc.so.0:_ZN4llvm13PMDataManagerD0Ev
libbcc.so.0:_ZN4llvm13PMDataManagerD1Ev
libbcc.so.0:_ZN4llvm13PMDataManagerD2Ev
libbcc.so.0:_ZN4llvm13PredicateInfoC1ERNS_8FunctionERNS_13DominatorTreeERNS_15AssumptionCacheE
libbcc.so.0:_ZN4llvm13PredicateInfoC2ERNS_8FunctionERNS_13DominatorTreeERNS_15AssumptionCacheE
libbcc.so.0:_ZN4llvm13PredicateInfoD1Ev
libbcc.so.0:_ZN4llvm13PredicateInfoD2Ev
libbcc.so.0:_ZN4llvm13PressureDiffs14addInstructionEjRKNS_16RegisterOperandsERKNS_19MachineRegisterInfoE
libbcc.so.0:_ZN4llvm13PressureDiffs4initEj
libbcc.so.0:_ZN4llvm13PrintLoopPass3runERNS_4LoopERNS_15AnalysisManagerIS1_JRNS_27LoopStandardAnalysisResultsEEEES5_RNS_10LPMUpdaterE
libbcc.so.0:_ZN4llvm13PrintLoopPassC1ERNS_11raw_ostreamERKNSt7__cxx1112basic_stringIcSt11char_traitsIcESaIcEEE
libbcc.so.0:_ZN4llvm13PrintLoopPassC1Ev
libbcc.so.0:_ZN4llvm13PrintLoopPassC2ERNS_11raw_ostreamERKNSt7__cxx1112basic_stringIcSt11char_traitsIcESaIcEEE
libbcc.so.0:_ZN4llvm13PrintLoopPassC2Ev
libbcc.so.0:_ZN4llvm13RGPassManager13runOnFunctionERNS_8FunctionE
libbcc.so.0:_ZN4llvm13RGPassManager17dumpPassStructureEj
libbcc.so.0:_ZN4llvm13RGPassManagerC1Ev
libbcc.so.0:_ZN4llvm13RGPassManagerC2Ev
libbcc.so.0:_ZN4llvm13RegBankSelect11MappingCost12addLocalCostEm
libbcc.so.0:_ZN4llvm13RegBankSelect11MappingCost14ImpossibleCostEv
libbcc.so.0:_ZN4llvm13RegBankSelect11MappingCost15addNonLocalCostEm
libbcc.so.0:_ZN4llvm13RegBankSelect11MappingCost8saturateEv
libbcc.so.0:_ZN4llvm13RegBankSelect11MappingCostC1ERKNS_14BlockFrequencyE
libbcc.so.0:_ZN4llvm13RegBankSelect11MappingCostC2ERKNS_14BlockFrequencyE
libbcc.so.0:_ZN4llvm13RegBankSelect11assignInstrERNS_12MachineInstrE
libbcc.so.0:_ZN4llvm13RegBankSelect12applyMappingERNS_12MachineInstrERKNS_16RegisterBankInfo18InstructionMappingERNS_15SmallVectorImplINS0_18RepairingPlacementEEE
libbcc.so.0:_ZN4llvm13RegBankSelect14computeMappingERNS_12MachineInstrERKNS_16RegisterBankInfo18InstructionMappingERNS_15SmallVectorImplINS0_18RepairingPlacementEEEPKNS0_11MappingCostE
libbcc.so.0:_ZN4llvm13RegBankSelect15EdgeInsertPoint11materializeEv
libbcc.so.0:_ZN4llvm13RegBankSelect15findBestMappingERNS_12MachineInstrERNS_11SmallVectorIPKNS_16RegisterBankInfo18InstructionMappingELj4EEERNS_15SmallVectorImplINS0_18RepairingPlacementEEE
libbcc.so.0:_ZN4llvm13RegBankSelect16InstrInsertPoint11materializeEv
libbcc.so.0:_ZN4llvm13RegBankSelect16InstrInsertPointC1ERNS_12MachineInstrEb
libbcc.so.0:_ZN4llvm13RegBankSelect16InstrInsertPointC2ERNS_12MachineInstrEb
libbcc.so.0:_ZN4llvm13RegBankSelect18RepairingPlacement14addInsertPointERNS0_11InsertPointE
libbcc.so.0:_ZN4llvm13RegBankSelect18RepairingPlacement14addInsertPointERNS_12MachineInstrEb
libbcc.so.0:_ZN4llvm13RegBankSelect18RepairingPlacement14addInsertPointERNS_17MachineBasicBlockES3_
libbcc.so.0:_ZN4llvm13RegBankSelect18RepairingPlacement14addInsertPointERNS_17MachineBasicBlockEb
libbcc.so.0:_ZN4llvm13RegBankSelect18RepairingPlacementC1ERNS_12MachineInstrEjRKNS_18TargetRegisterInfoERNS_4PassENS1_13RepairingKindE
libbcc.so.0:_ZN4llvm13RegBankSelect18RepairingPlacementC2ERNS_12MachineInstrEjRKNS_18TargetRegisterInfoERNS_4PassENS1_13RepairingKindE
libbcc.so.0:_ZN4llvm13RegBankSelect20runOnMachineFunctionERNS_15MachineFunctionE
libbcc.so.0:_ZN4llvm13RegBankSelect4initERNS_15MachineFunctionE
libbcc.so.0:_ZN4llvm13RegBankSelect9repairRegERNS_14MachineOperandERKNS_16RegisterBankInfo12ValueMappingERNS0_18RepairingPlacementERKNS_14iterator_rangeIPKNS_8RegisterEEE
libbcc.so.0:_ZN4llvm13RegBankSelectC1ENS0_4ModeE
libbcc.so.0:_ZN4llvm13RegBankSelectC2ENS0_4ModeE
libbcc.so.0:_ZN4llvm13SCEVPredicateC2ENS_19FoldingSetNodeIDRefENS0_17SCEVPredicateKindE
libbcc.so.0:_ZN4llvm13ScaledNumbers10multiply64Emm
libbcc.so.0:_ZN4llvm13ScaledNumbers11compareImplEmmi
libbcc.so.0:_ZN4llvm13ScaledNumbers8divide32Ejj
libbcc.so.0:_ZN4llvm13ScaledNumbers8divide64Emm
libbcc.so.0:_ZN4llvm13SchedBoundary11checkHazardEPNS_5SUnitE
libbcc.so.0:_ZN4llvm13SchedBoundary11releaseNodeEPNS_5SUnitEjbj
libbcc.so.0:_ZN4llvm13SchedBoundary11removeReadyEPNS_5SUnitE
libbcc.so.0:_ZN4llvm13SchedBoundary13countResourceEPKNS_16MCSchedClassDescEjjj
libbcc.so.0:_ZN4llvm13SchedBoundary14findMaxLatencyENS_8ArrayRefIPNS_5SUnitEEE
libbcc.so.0:_ZN4llvm13SchedBoundary14pickOnlyChoiceEv
libbcc.so.0:_ZN4llvm13SchedBoundary14releasePendingEv
libbcc.so.0:_ZN4llvm13SchedBoundary20getNextResourceCycleEPKNS_16MCSchedClassDescEjj
libbcc.so.0:_ZN4llvm13SchedBoundary20incExecutedResourcesEjj
libbcc.so.0:_ZN4llvm13SchedBoundary21getLatencyStallCyclesEPNS_5SUnitE
libbcc.so.0:_ZN4llvm13SchedBoundary21getOtherResourceCountERj
libbcc.so.0:_ZN4llvm13SchedBoundary30getNextResourceCycleByInstanceEjj
libbcc.so.0:_ZN4llvm13SchedBoundary4initEPNS_13ScheduleDAGMIEPKNS_16TargetSchedModelEPNS_14SchedRemainderE
libbcc.so.0:_ZN4llvm13SchedBoundary5resetEv
libbcc.so.0:_ZN4llvm13SchedBoundary8bumpNodeEPNS_5SUnitE
libbcc.so.0:_ZN4llvm13SchedBoundary9bumpCycleEj
libbcc.so.0:_ZN4llvm13SchedBoundaryD1Ev
libbcc.so.0:_ZN4llvm13SchedBoundaryD2Ev
libbcc.so.0:_ZN4llvm13ScheduleDAGMI10initQueuesENS_8ArrayRefIPNS_5SUnitEEES4_
libbcc.so.0:_ZN4llvm13ScheduleDAGMI10startBlockEPNS_17MachineBasicBlockE
libbcc.so.0:_ZN4llvm13ScheduleDAGMI11enterRegionEPNS_17MachineBasicBlockENS_26MachineInstrBundleIteratorINS_12MachineInstrELb0EEES5_j
libbcc.so.0:_ZN4llvm13ScheduleDAGMI11finishBlockEv
libbcc.so.0:_ZN4llvm13ScheduleDAGMI11releasePredEPNS_5SUnitEPNS_4SDepE
libbcc.so.0:_ZN4llvm13ScheduleDAGMI11releaseSuccEPNS_5SUnitEPNS_4SDepE
libbcc.so.0:_ZN4llvm13ScheduleDAGMI12updateQueuesEPNS_5SUnitEb
libbcc.so.0:_ZN4llvm13ScheduleDAGMI14postprocessDAGEv
libbcc.so.0:_ZN4llvm13ScheduleDAGMI15checkSchedLimitEv
libbcc.so.0:_ZN4llvm13ScheduleDAGMI15moveInstructionEPNS_12MachineInstrENS_26MachineInstrBundleIteratorIS1_Lb0EEE
libbcc.so.0:_ZN4llvm13ScheduleDAGMI16placeDebugValuesEv
libbcc.so.0:_ZN4llvm13ScheduleDAGMI17releaseSuccessorsEPNS_5SUnitE
libbcc.so.0:_ZN4llvm13ScheduleDAGMI19releasePredecessorsEPNS_5SUnitE
libbcc.so.0:_ZN4llvm13ScheduleDAGMI21findRootsAndBiasEdgesERNS_15SmallVectorImplIPNS_5SUnitEEES5_
libbcc.so.0:_ZN4llvm13ScheduleDAGMI8scheduleEv
libbcc.so.0:_ZN4llvm13ScheduleDAGMI9viewGraphERKNS_5TwineES3_
libbcc.so.0:_ZN4llvm13ScheduleDAGMI9viewGraphEv
libbcc.so.0:_ZN4llvm13ScheduleDAGMID0Ev
libbcc.so.0:_ZN4llvm13ScheduleDAGMID1Ev
libbcc.so.0:_ZN4llvm13ScheduleDAGMID2Ev
libbcc.so.0:_ZN4llvm13ScopedPrinter15printBinaryImplENS_9StringRefES1_NS_8ArrayRefIhEEbj
libbcc.so.0:_ZN4llvm13SimpleDDGNodeC1EOS0_
libbcc.so.0:_ZN4llvm13SimpleDDGNodeC1ERKS0_
libbcc.so.0:_ZN4llvm13SimpleDDGNodeC1ERNS_11InstructionE
libbcc.so.0:_ZN4llvm13SimpleDDGNodeC2EOS0_
libbcc.so.0:_ZN4llvm13SimpleDDGNodeC2ERKS0_
libbcc.so.0:_ZN4llvm13SimpleDDGNodeC2ERNS_11InstructionE
libbcc.so.0:_ZN4llvm13SimpleDDGNodeD0Ev
libbcc.so.0:_ZN4llvm13SimpleDDGNodeD1Ev
libbcc.so.0:_ZN4llvm13SimpleDDGNodeD2Ev
libbcc.so.0:_ZN4llvm13StackLifetime14collectMarkersEv
libbcc.so.0:_ZN4llvm13StackLifetime22calculateLiveIntervalsEv
libbcc.so.0:_ZN4llvm13StackLifetime22calculateLocalLivenessEv
libbcc.so.0:_ZN4llvm13StackLifetime3runEv
libbcc.so.0:_ZN4llvm13StackLifetime5printERNS_11raw_ostreamE
libbcc.so.0:_ZN4llvm13StackLifetimeC1ERKNS_8FunctionENS_8ArrayRefIPKNS_10AllocaInstEEENS0_12LivenessTypeE
libbcc.so.0:_ZN4llvm13StackLifetimeC2ERKNS_8FunctionENS_8ArrayRefIPKNS_10AllocaInstEEENS0_12LivenessTypeE
libbcc.so.0:_ZN4llvm13StackMapOpersC1EPKNS_12MachineInstrE
libbcc.so.0:_ZN4llvm13StackMapOpersC2EPKNS_12MachineInstrE
libbcc.so.0:_ZN4llvm13StringMapImpl11RehashTableEj
libbcc.so.0:_ZN4llvm13StringMapImpl15LookupBucketForENS_9StringRefE
libbcc.so.0:_ZN4llvm13StringMapImpl4initEj
libbcc.so.0:_ZN4llvm13StringMapImpl9RemoveKeyENS_9StringRefE
libbcc.so.0:_ZN4llvm13StringMapImpl9RemoveKeyEPNS_18StringMapEntryBaseE
libbcc.so.0:_ZN4llvm13StringMapImplC1Ejj
libbcc.so.0:_ZN4llvm13StringMapImplC2Ejj
libbcc.so.0:_ZN4llvm13TargetMachine11setOptLevelENS_10CodeGenOpt5LevelE
libbcc.so.0:_ZN4llvm13TargetMachine20parseBinutilsVersionENS_9StringRefE
libbcc.so.0:_ZN4llvm13TargetMachineC1ERKNS_6TargetENS_9StringRefERKNS_6TripleES4_S4_RKNS_13TargetOptionsE
libbcc.so.0:_ZN4llvm13TargetMachineC2ERKNS_6TargetENS_9StringRefERKNS_6TripleES4_S4_RKNS_13TargetOptionsE
libbcc.so.0:_ZN4llvm13TargetMachineD0Ev
libbcc.so.0:_ZN4llvm13TargetMachineD1Ev
libbcc.so.0:_ZN4llvm13TargetMachineD2Ev
libbcc.so.0:_ZN4llvm13UnaryOperator6CreateENS_11Instruction8UnaryOpsEPNS_5ValueERKNS_5TwineEPNS_10BasicBlockE
libbcc.so.0:_ZN4llvm13UnaryOperator6CreateENS_11Instruction8UnaryOpsEPNS_5ValueERKNS_5TwineEPS1_
libbcc.so.0:_ZN4llvm13UnaryOperator8AssertOKEv
libbcc.so.0:_ZN4llvm13UnaryOperatorC1ENS_11Instruction8UnaryOpsEPNS_5ValueEPNS_4TypeERKNS_5TwineEPNS_10BasicBlockE
libbcc.so.0:_ZN4llvm13UnaryOperatorC1ENS_11Instruction8UnaryOpsEPNS_5ValueEPNS_4TypeERKNS_5TwineEPS1_
libbcc.so.0:_ZN4llvm13UnaryOperatorC2ENS_11Instruction8UnaryOpsEPNS_5ValueEPNS_4TypeERKNS_5TwineEPNS_10BasicBlockE
libbcc.so.0:_ZN4llvm13UnaryOperatorC2ENS_11Instruction8UnaryOpsEPNS_5ValueEPNS_4TypeERKNS_5TwineEPS1_
libbcc.so.0:_ZN4llvm13VPBlendRecipe7executeERNS_16VPTransformStateE
libbcc.so.0:_ZN4llvm13VPInstruction16setFastMathFlagsENS_13FastMathFlagsE
libbcc.so.0:_ZN4llvm13VPInstruction19generateInstructionERNS_16VPTransformStateEj
libbcc.so.0:_ZN4llvm13VPInstruction7executeERNS_16VPTransformStateE
libbcc.so.0:_ZN4llvm13VPRegionBlock17dropAllReferencesEPNS_7VPValueE
libbcc.so.0:_ZN4llvm13VPRegionBlock7executeEPNS_16VPTransformStateE
libbcc.so.0:_ZN4llvm13VPSlotTracker10assignSlotEPKNS_7VPValueE
libbcc.so.0:_ZN4llvm13VPSlotTracker11assignSlotsERKNS_5VPlanE
libbcc.so.0:_ZN4llvm13VPWidenRecipe7executeERNS_16VPTransformStateE
libbcc.so.0:_ZN4llvm13VPlanVerifier17verifyPlanIsValidERKNS_5VPlanE
libbcc.so.0:_ZN4llvm13ValueProfData13deserializeToERNS_15InstrProfRecordEPNS_15InstrProfSymtabE
libbcc.so.0:_ZN4llvm13ValueProfData13serializeFromERKNS_15InstrProfRecordE
libbcc.so.0:_ZN4llvm13ValueProfData14checkIntegrityEv
libbcc.so.0:_ZN4llvm13ValueProfData15swapBytesToHostENS_7support10endiannessE
libbcc.so.0:_ZN4llvm13ValueProfData16getValueProfDataEPKhS2_NS_7support10endiannessE
libbcc.so.0:_ZN4llvm13ValueProfData17swapBytesFromHostENS_7support10endiannessE
libbcc.so.0:_ZN4llvm13ValueProfData7getSizeERKNS_15InstrProfRecordE
libbcc.so.0:_ZN4llvm13WinEHFuncInfo17addIPToStateRangeEPKNS_10InvokeInstEPNS_8MCSymbolES5_
libbcc.so.0:_ZN4llvm13WinEHFuncInfoC1Ev
libbcc.so.0:_ZN4llvm13WinEHFuncInfoC2Ev
libbcc.so.0:_ZN4llvm13canReplaceRegENS_8RegisterES0_RNS_19MachineRegisterInfoE
libbcc.so.0:_ZN4llvm13collectCmpOpsEPNS_7CmpInstERNS_15SmallVectorImplIPNS_5ValueEEE
libbcc.so.0:_ZN4llvm13createGVNPassEb
libbcc.so.0:_ZN4llvm13createLAAPassEv
libbcc.so.0:_ZN4llvm13createLibcallERNS_16MachineIRBuilderENS_5RTLIB7LibcallERKNS_12CallLowering7ArgInfoENS_8ArrayRefIS5_EE
libbcc.so.0:_ZN4llvm13createLibcallERNS_16MachineIRBuilderEPKcRKNS_12CallLowering7ArgInfoENS_8ArrayRefIS5_EEj
libbcc.so.0:_ZN4llvm13dlangDemangleEPKc
libbcc.so.0:_ZN4llvm13emitMemCpyChkEPNS_5ValueES1_S1_S1_RNS_13IRBuilderBaseERKNS_10DataLayoutEPKNS_17TargetLibraryInfoE
libbcc.so.0:_ZN4llvm13emitVSNPrintfEPNS_5ValueES1_S1_S1_RNS_13IRBuilderBaseEPKNS_17TargetLibraryInfoE
libbcc.so.0:_ZN4llvm13findDbgValuesERNS_15SmallVectorImplIPNS_12DbgValueInstEEEPNS_5ValueE
libbcc.so.0:_ZN4llvm13getGCStrategyENS_9StringRefE
libbcc.so.0:_ZN4llvm13getInlineCostERNS_8CallBaseEPNS_8FunctionERKNS_12InlineParamsERNS_19TargetTransformInfoENS_12function_refIFRNS_15AssumptionCacheERS2_EEENS9_IFRKNS_17TargetLibraryInfoESC_EEENS9_IFRNS_18BlockFrequencyInfoESC_EEEPNS_18ProfileSummaryInfoEPNS_25OptimizationRemarkEmitterE
libbcc.so.0:_ZN4llvm13getInlineCostERNS_8CallBaseERKNS_12InlineParamsERNS_19TargetTransformInfoENS_12function_refIFRNS_15AssumptionCacheERNS_8FunctionEEEENS7_IFRKNS_17TargetLibraryInfoESB_EEENS7_IFRNS_18BlockFrequencyInfoESB_EEEPNS_18ProfileSummaryInfoEPNS_25OptimizationRemarkEmitterE
libbcc.so.0:_ZN4llvm13getLLTForTypeERNS_4TypeERKNS_10DataLayoutE
libbcc.so.0:_ZN4llvm13getMinMaxPredENS_19SelectPatternFlavorEb
libbcc.so.0:_ZN4llvm13getNumOfCallsERNS_8FunctionES1_
libbcc.so.0:_ZN4llvm13getObjectSizeEPKNS_5ValueERmRKNS_10DataLayoutEPKNS_17TargetLibraryInfoENS_14ObjectSizeOptsE
libbcc.so.0:_ZN4llvm13getSplatIndexENS_8ArrayRefIiEE
libbcc.so.0:_ZN4llvm13getSplatIndexERNS_12MachineInstrE
libbcc.so.0:_ZN4llvm13getSplatValueEPKNS_5ValueE
libbcc.so.0:_ZN4llvm13hasAssumptionERKNS_8CallBaseERKNS_21KnownAssumptionStringE
libbcc.so.0:_ZN4llvm13hasAssumptionERKNS_8FunctionERKNS_21KnownAssumptionStringE
libbcc.so.0:_ZN4llvm13impliesPoisonEPKNS_5ValueES2_
libbcc.so.0:_ZN4llvm13inlineCostStrB5cxx11ERKNS_10InlineCostE
libbcc.so.0:_ZN4llvm13isAllocLikeFnEPKNS_5ValueEPKNS_17TargetLibraryInfoE
libbcc.so.0:_ZN4llvm13isNoAliasCallEPKNS_5ValueE
libbcc.so.0:_ZN4llvm13isOneConstantENS_7SDValueE
libbcc.so.0:_ZN4llvm13isSpecialPassENS_9StringRefERKSt6vectorIS0_SaIS0_EE
libbcc.so.0:_ZN4llvm13jitLinkForORCENS_6object12OwningBinaryINS0_10ObjectFileEEERNS_11RuntimeDyld13MemoryManagerERNS_17JITSymbolResolverEbNS_15unique_functionIFNS_5ErrorERKS2_RNS4_16LoadedObjectInfoESt3mapINS_9StringRefENS_18JITEvaluatedSymbolESt4lessISG_ESaISt4pairIKSG_SH_EEEEEENS9_IFvS3_St10unique_ptrISD_St14default_deleteISD_EESA_EEE
libbcc.so.0:_ZN4llvm13line_iterator7advanceEv
libbcc.so.0:_ZN4llvm13line_iteratorC1ERKNS_12MemoryBufferEbc
libbcc.so.0:_ZN4llvm13line_iteratorC1ERKNS_15MemoryBufferRefEbc
libbcc.so.0:_ZN4llvm13line_iteratorC2ERKNS_12MemoryBufferEbc
libbcc.so.0:_ZN4llvm13line_iteratorC2ERKNS_15MemoryBufferRefEbc
libbcc.so.0:_ZN4llvm13llvm_shutdownEv
libbcc.so.0:_ZN4llvm13mustTriggerUBEPKNS_11InstructionERKNS_8SmallSetIPKNS_5ValueELj16ESt4lessIS6_EEE
libbcc.so.0:_ZN4llvm13parseAssemblyENS_15MemoryBufferRefERNS_12SMDiagnosticERNS_11LLVMContextEPNS_11SlotMappingENS_12function_refIFNS_8OptionalINSt7__cxx1112basic_stringIcSt11char_traitsIcESaIcEEEEENS_9StringRefEEEE
libbcc.so.0:_ZN4llvm13raw_fd_stream4readEPcm
libbcc.so.0:_ZN4llvm13raw_fd_stream7classofEPKNS_11raw_ostreamE
libbcc.so.0:_ZN4llvm13raw_fd_streamC1ENS_9StringRefERSt10error_code
libbcc.so.0:_ZN4llvm13raw_fd_streamC2ENS_9StringRefERSt10error_code
libbcc.so.0:_ZN4llvm13readWideAPIntENS_8ArrayRefImEEj
libbcc.so.0:_ZN4llvm13simplifyBinOpEjPNS_5ValueES1_NS_13FastMathFlagsERKNS_13SimplifyQueryE
libbcc.so.0:_ZN4llvm13simplifyBinOpEjPNS_5ValueES1_RKNS_13SimplifyQueryE
libbcc.so.0:_ZN4llvm13slpvectorizer7BoUpSLP11getTreeCostENS_8ArrayRefIPNS_5ValueEEE
libbcc.so.0:_ZN4llvm13slpvectorizer7BoUpSLP12getEntryCostEPKNS1_9TreeEntryENS_8ArrayRefIPNS_5ValueEEE
libbcc.so.0:_ZN4llvm13slpvectorizer7BoUpSLP13buildTree_recENS_8ArrayRefIPNS_5ValueEEEjRKNS1_8EdgeInfoE
libbcc.so.0:_ZN4llvm13slpvectorizer7BoUpSLP13scheduleBlockEPNS1_15BlockSchedulingE
libbcc.so.0:_ZN4llvm13slpvectorizer7BoUpSLP13vectorizeTreeENS_8ArrayRefIPNS_5ValueEEE
libbcc.so.0:_ZN4llvm13slpvectorizer7BoUpSLP13vectorizeTreeEPNS1_9TreeEntryE
libbcc.so.0:_ZN4llvm13slpvectorizer7BoUpSLP13vectorizeTreeERNS_9MapVectorIPNS_5ValueENS_11SmallVectorIPNS_11InstructionELj2EEENS_8DenseMapIS4_jNS_12DenseMapInfoIS4_vEENS_6detail12DenseMapPairIS4_jEEEESt6vectorISt4pairIS4_S8_ESaISI_EEEE
libbcc.so.0:_ZN4llvm13slpvectorizer7BoUpSLP13vectorizeTreeEv
libbcc.so.0:_ZN4llvm13slpvectorizer7BoUpSLP15BlockScheduling11buildBundleENS_8ArrayRefIPNS_5ValueEEE
libbcc.so.0:_ZN4llvm13slpvectorizer7BoUpSLP15BlockScheduling13resetScheduleEv
libbcc.so.0:_ZN4llvm13slpvectorizer7BoUpSLP15BlockScheduling16cancelSchedulingENS_8ArrayRefIPNS_5ValueEEES5_
libbcc.so.0:_ZN4llvm13slpvectorizer7BoUpSLP15BlockScheduling16initScheduleDataEPNS_11InstructionES4_PNS1_12ScheduleDataES6_
libbcc.so.0:_ZN4llvm13slpvectorizer7BoUpSLP15BlockScheduling21calculateDependenciesEPNS1_12ScheduleDataEbPS1_
libbcc.so.0:_ZN4llvm13slpvectorizer7BoUpSLP15BlockScheduling26allocateScheduleDataChunksEv
libbcc.so.0:_ZN4llvm13slpvectorizer7BoUpSLP17buildExternalUsesERKNS_9MapVectorIPNS_5ValueENS_11SmallVectorIPNS_11InstructionELj2EEENS_8DenseMapIS4_jNS_12DenseMapInfoIS4_vEENS_6detail12DenseMapPairIS4_jEEEESt6vectorISt4pairIS4_S8_ESaISI_EEEE
libbcc.so.0:_ZN4llvm13slpvectorizer7BoUpSLP17createBuildVectorENS_8ArrayRefIPNS_5ValueEEE
libbcc.so.0:_ZN4llvm13slpvectorizer7BoUpSLP17getReorderingDataERKNS1_9TreeEntryEb
libbcc.so.0:_ZN4llvm13slpvectorizer7BoUpSLP18canReorderOperandsEPNS1_9TreeEntryERNS_15SmallVectorImplISt4pairIjS3_EEENS_8ArrayRefIS3_EERNS4_IS3_EE
libbcc.so.0:_ZN4llvm13slpvectorizer7BoUpSLP18reorderBottomToTopEb
libbcc.so.0:_ZN4llvm13slpvectorizer7BoUpSLP18reorderTopToBottomEv
libbcc.so.0:_ZN4llvm13slpvectorizer7BoUpSLP20getVectorElementSizeEPNS_5ValueE
libbcc.so.0:_ZN4llvm13slpvectorizer7BoUpSLP21isGatherShuffledEntryEPKNS1_9TreeEntryERNS_15SmallVectorImplIiEERNS5_IS4_EE
libbcc.so.0:_ZN4llvm13slpvectorizer7BoUpSLP22optimizeGatherSequenceEv
libbcc.so.0:_ZN4llvm13slpvectorizer7BoUpSLP24computeMinimumValueSizesEv
libbcc.so.0:_ZN4llvm13slpvectorizer7BoUpSLP24findReusedOrderedScalarsERKNS1_9TreeEntryE
libbcc.so.0:_ZN4llvm13slpvectorizer7BoUpSLP25findPartiallyOrderedLoadsERKNS1_9TreeEntryE
libbcc.so.0:_ZN4llvm13slpvectorizer7BoUpSLP25setInsertPointAfterBundleEPKNS1_9TreeEntryE
libbcc.so.0:_ZN4llvm13slpvectorizer7BoUpSLP30reorderInputsAccordingToOpcodeENS_8ArrayRefIPNS_5ValueEEERNS_15SmallVectorImplIS4_EES8_RKNS_10DataLayoutERNS_15ScalarEvolutionERKS1_
libbcc.so.0:_ZN4llvm13slpvectorizer7BoUpSLP6gatherENS_8ArrayRefIPNS_5ValueEEE
libbcc.so.0:_ZN4llvm13slpvectorizer7BoUpSLP9buildTreeENS_8ArrayRefIPNS_5ValueEEE
libbcc.so.0:_ZN4llvm13slpvectorizer7BoUpSLP9buildTreeENS_8ArrayRefIPNS_5ValueEEERKNS_13SmallDenseSetIS4_Lj4ENS_12DenseMapInfoIS4_vEEEE
libbcc.so.0:_ZN4llvm13slpvectorizer7BoUpSLPD1Ev
libbcc.so.0:_ZN4llvm13slpvectorizer7BoUpSLPD2Ev
libbcc.so.0:_ZN4llvm13writeToOutputENS_9StringRefESt8functionIFNS_5ErrorERNS_11raw_ostreamEEE
libbcc.so.0:_ZN4llvm13write_integerERNS_11raw_ostreamEimNS_12IntegerStyleE
libbcc.so.0:_ZN4llvm13write_integerERNS_11raw_ostreamEjmNS_12IntegerStyleE
libbcc.so.0:_ZN4llvm13write_integerERNS_11raw_ostreamElmNS_12IntegerStyleE
libbcc.so.0:_ZN4llvm13write_integerERNS_11raw_ostreamEmmNS_12IntegerStyleE
libbcc.so.0:_ZN4llvm13write_integerERNS_11raw_ostreamExmNS_12IntegerStyleE
libbcc.so.0:_ZN4llvm13write_integerERNS_11raw_ostreamEymNS_12IntegerStyleE
libbcc.so.0:_ZN4llvm14AAInstanceInfo17createForPositionERKNS_10IRPositionERNS_10AttributorE
libbcc.so.0:_ZN4llvm14AAReachability17createForPositionERKNS_10IRPositionERNS_10AttributorE
libbcc.so.0:_ZN4llvm14ASanAccessInfoC1Ebbh
libbcc.so.0:_ZN4llvm14ASanAccessInfoC1Ei
libbcc.so.0:_ZN4llvm14ASanAccessInfoC2Ebbh
libbcc.so.0:_ZN4llvm14ASanAccessInfoC2Ei
libbcc.so.0:_ZN4llvm14AccelTableBase18computeBucketCountEv
libbcc.so.0:_ZN4llvm14AccelTableBase8finalizeEPNS_10AsmPrinterENS_9StringRefE
libbcc.so.0:_ZN4llvm14AntiDepBreakerD0Ev
libbcc.so.0:_ZN4llvm14AntiDepBreakerD1Ev
libbcc.so.0:_ZN4llvm14AntiDepBreakerD2Ev
libbcc.so.0:_ZN4llvm14AttributeFuncs16typeIncompatibleEPNS_4TypeENS0_19AttributeSafetyKindE
libbcc.so.0:_ZN4llvm14AttributeFuncs19areInlineCompatibleERKNS_8FunctionES3_
libbcc.so.0:_ZN4llvm14AttributeFuncs20areOutlineCompatibleERKNS_8FunctionES3_
libbcc.so.0:_ZN4llvm14AttributeFuncs23getUBImplyingAttributesEv
libbcc.so.0:_ZN4llvm14AttributeFuncs26mergeAttributesForInliningERNS_8FunctionERKS1_
libbcc.so.0:_ZN4llvm14AttributeFuncs27mergeAttributesForOutliningERNS_8FunctionERKS1_
libbcc.so.0:_ZN4llvm14AttributeFuncs29updateMinLegalVectorWidthAttrERNS_8FunctionEm
libbcc.so.0:_ZN4llvm14AttributorPass3runERNS_6ModuleERNS_15AnalysisManagerIS1_JEEE
libbcc.so.0:_ZN4llvm14AutoInitRemark9canHandleEPKNS_11InstructionE
libbcc.so.0:_ZN4llvm14BinaryOperator12CreateNSWNegEPNS_5ValueERKNS_5TwineEPNS_10BasicBlockE
libbcc.so.0:_ZN4llvm14BinaryOperator12CreateNSWNegEPNS_5ValueERKNS_5TwineEPNS_11InstructionE
libbcc.so.0:_ZN4llvm14BinaryOperator12CreateNUWNegEPNS_5ValueERKNS_5TwineEPNS_10BasicBlockE
libbcc.so.0:_ZN4llvm14BinaryOperator12CreateNUWNegEPNS_5ValueERKNS_5TwineEPNS_11InstructionE
libbcc.so.0:_ZN4llvm14BinaryOperator12swapOperandsEv
libbcc.so.0:_ZN4llvm14BinaryOperator6CreateENS_11Instruction9BinaryOpsEPNS_5ValueES4_RKNS_5TwineEPNS_10BasicBlockE
libbcc.so.0:_ZN4llvm14BinaryOperator6CreateENS_11Instruction9BinaryOpsEPNS_5ValueES4_RKNS_5TwineEPS1_
libbcc.so.0:_ZN4llvm14BinaryOperator8AssertOKEv
libbcc.so.0:_ZN4llvm14BinaryOperator9CreateNegEPNS_5ValueERKNS_5TwineEPNS_10BasicBlockE
libbcc.so.0:_ZN4llvm14BinaryOperator9CreateNegEPNS_5ValueERKNS_5TwineEPNS_11InstructionE
libbcc.so.0:_ZN4llvm14BinaryOperator9CreateNotEPNS_5ValueERKNS_5TwineEPNS_10BasicBlockE
libbcc.so.0:_ZN4llvm14BinaryOperator9CreateNotEPNS_5ValueERKNS_5TwineEPNS_11InstructionE
libbcc.so.0:_ZN4llvm14BinaryOperatorC1ENS_11Instruction9BinaryOpsEPNS_5ValueES4_PNS_4TypeERKNS_5TwineEPNS_10BasicBlockE
libbcc.so.0:_ZN4llvm14BinaryOperatorC1ENS_11Instruction9BinaryOpsEPNS_5ValueES4_PNS_4TypeERKNS_5TwineEPS1_
libbcc.so.0:_ZN4llvm14BinaryOperatorC2ENS_11Instruction9BinaryOpsEPNS_5ValueES4_PNS_4TypeERKNS_5TwineEPNS_10BasicBlockE
libbcc.so.0:_ZN4llvm14BinaryOperatorC2ENS_11Instruction9BinaryOpsEPNS_5ValueES4_PNS_4TypeERKNS_5TwineEPS1_
libbcc.so.0:_ZN4llvm14BlockFrequencydVENS_17BranchProbabilityE
libbcc.so.0:_ZN4llvm14BlockFrequencymIES0_
libbcc.so.0:_ZN4llvm14BlockFrequencymLENS_17BranchProbabilityE
libbcc.so.0:_ZN4llvm14BlockFrequencypLES0_
libbcc.so.0:_ZN4llvm14BlockFrequencyrSEj
libbcc.so.0:_ZN4llvm14BreakFalseDeps11processDefsEPNS_12MachineInstrE
libbcc.so.0:_ZN4llvm14BreakFalseDeps17processBasicBlockEPNS_17MachineBasicBlockE
libbcc.so.0:_ZN4llvm14BreakFalseDeps17processUndefReadsEPNS_17MachineBasicBlockE
libbcc.so.0:_ZN4llvm14BreakFalseDeps20runOnMachineFunctionERNS_15MachineFunctionE
libbcc.so.0:_ZN4llvm14BreakFalseDeps21shouldBreakDependenceEPNS_12MachineInstrEjj
libbcc.so.0:_ZN4llvm14BreakFalseDeps24pickBestRegisterForUndefEPNS_12MachineInstrEjj
libbcc.so.0:_ZN4llvm14CFGPrinterPass3runERNS_8FunctionERNS_15AnalysisManagerIS1_JEEE
libbcc.so.0:_ZN4llvm14CaptureTracker13shouldExploreEPKNS_3UseE
libbcc.so.0:_ZN4llvm14CaptureTracker23isDereferenceableOrNullEPNS_5ValueERKNS_10DataLayoutE
libbcc.so.0:_ZN4llvm14CaptureTrackerD0Ev
libbcc.so.0:_ZN4llvm14CaptureTrackerD1Ev
libbcc.so.0:_ZN4llvm14CaptureTrackerD2Ev
libbcc.so.0:_ZN4llvm14ConstantFolder6anchorEv
libbcc.so.0:_ZN4llvm14ConstantStruct18getTypeForElementsENS_8ArrayRefIPNS_8ConstantEEEb
libbcc.so.0:_ZN4llvm14ConstantStruct18getTypeForElementsERNS_11LLVMContextENS_8ArrayRefIPNS_8ConstantEEEb
libbcc.so.0:_ZN4llvm14ConstantStruct19destroyConstantImplEv
libbcc.so.0:_ZN4llvm14ConstantStruct23handleOperandChangeImplEPNS_5ValueES2_
libbcc.so.0:_ZN4llvm14ConstantStruct3getEPNS_10StructTypeENS_8ArrayRefIPNS_8ConstantEEE
libbcc.so.0:_ZN4llvm14ConstantStructC1EPNS_10StructTypeENS_8ArrayRefIPNS_8ConstantEEE
libbcc.so.0:_ZN4llvm14ConstantStructC2EPNS_10StructTypeENS_8ArrayRefIPNS_8ConstantEEE
libbcc.so.0:_ZN4llvm14ConstantVector19destroyConstantImplEv
libbcc.so.0:_ZN4llvm14ConstantVector23handleOperandChangeImplEPNS_5ValueES2_
libbcc.so.0:_ZN4llvm14ConstantVector3getENS_8ArrayRefIPNS_8ConstantEEE
libbcc.so.0:_ZN4llvm14ConstantVector7getImplENS_8ArrayRefIPNS_8ConstantEEE
libbcc.so.0:_ZN4llvm14ConstantVector8getSplatENS_12ElementCountEPNS_8ConstantE
libbcc.so.0:_ZN4llvm14ConstantVectorC1EPNS_10VectorTypeENS_8ArrayRefIPNS_8ConstantEEE
libbcc.so.0:_ZN4llvm14ConstantVectorC2EPNS_10VectorTypeENS_8ArrayRefIPNS_8ConstantEEE
libbcc.so.0:_ZN4llvm14DILexicalBlock7getImplERNS_11LLVMContextEPNS_8MetadataES4_jjNS3_11StorageTypeEb
libbcc.so.0:_ZN4llvm14DIObjCProperty7getImplERNS_11LLVMContextEPNS_8MDStringEPNS_8MetadataEjS4_S4_jS6_NS5_11StorageTypeEb
libbcc.so.0:_ZN4llvm14DIObjCPropertyC1ERNS_11LLVMContextENS_8Metadata11StorageTypeEjjNS_8ArrayRefIPS3_EE
libbcc.so.0:_ZN4llvm14DIObjCPropertyC2ERNS_11LLVMContextENS_8Metadata11StorageTypeEjjNS_8ArrayRefIPS3_EE
libbcc.so.0:_ZN4llvm14DOTGraphTraitsIPKNS_19DataDependenceGraphEE12getNodeLabelB5cxx11EPKNS_7DDGNodeES3_
libbcc.so.0:_ZN4llvm14DOTGraphTraitsIPKNS_19DataDependenceGraphEE12isNodeHiddenEPKNS_7DDGNodeES3_
libbcc.so.0:_ZN4llvm14DOTGraphTraitsIPKNS_19DataDependenceGraphEE17getEdgeAttributesB5cxx11EPKNS_7DDGNodeENS_15mapped_iteratorIN9__gnu_cxx17__normal_iteratorIPKPNS_7DDGEdgeESt6vectorISC_SaISC_EEEEPFS7_PKNS_6DGEdgeIS5_SB_EEES7_EES3_
libbcc.so.0:_ZN4llvm14DOTGraphTraitsIPKNS_19DataDependenceGraphEE18getSimpleNodeLabelB5cxx11EPKNS_7DDGNodeES3_
libbcc.so.0:_ZN4llvm14DOTGraphTraitsIPKNS_19DataDependenceGraphEE19getVerboseNodeLabelB5cxx11EPKNS_7DDGNodeES3_
libbcc.so.0:_ZN4llvm14DOTGraphTraitsIPKNS_19DataDependenceGraphEE23getSimpleEdgeAttributesB5cxx11EPKNS_7DDGNodeEPKNS_7DDGEdgeES3_
libbcc.so.0:_ZN4llvm14DOTGraphTraitsIPKNS_19DataDependenceGraphEE24getVerboseEdgeAttributesB5cxx11EPKNS_7DDGNodeEPKNS_7DDGEdgeES3_
libbcc.so.0:_ZN4llvm14DOTGraphTraitsIPN5polly13ScopDetectionEE12escapeStringB5cxx11ENS_9StringRefE
libbcc.so.0:_ZN4llvm14DOTGraphTraitsIPN5polly13ScopDetectionEE17getEdgeAttributesB5cxx11EPNS_10RegionNodeENS_14RNSuccIteratorINS_6FlatItIS6_EENS_10BasicBlockENS_6RegionEEES3_
libbcc.so.0:_ZN4llvm14DOTGraphTraitsIPN5polly13ScopDetectionEE18printRegionClusterES3_PKNS_6RegionERNS_11raw_ostreamEj
libbcc.so.0:_ZN4llvm14DOTGraphTraitsIPN5polly13ScopDetectionEE22addCustomGraphFeaturesES3_RNS_11GraphWriterIS3_EE
libbcc.so.0:_ZN4llvm14DOTGraphTraitsIPNS_10RegionNodeEE12getNodeLabelB5cxx11ES2_S2_
libbcc.so.0:_ZN4llvm14DOTGraphTraitsIPNS_11DOTFuncInfoEE12isNodeHiddenEPKNS_10BasicBlockEPKS1_
libbcc.so.0:_ZN4llvm14DOTGraphTraitsIPNS_11DOTFuncInfoEE30computeDeoptOrUnreachablePathsEPKNS_8FunctionE
libbcc.so.0:_ZN4llvm14DOTGraphTraitsIPNS_11ScheduleDAGEE12getNodeLabelB5cxx11EPKNS_5SUnitEPKS1_
libbcc.so.0:_ZN4llvm14DOTGraphTraitsIPNS_12SelectionDAGEE12getNodeLabelB5cxx11EPKNS_6SDNodeEPKS1_
libbcc.so.0:_ZN4llvm14DebugLocStream11ListBuilderD1Ev
libbcc.so.0:_ZN4llvm14DebugLocStream11ListBuilderD2Ev
libbcc.so.0:_ZN4llvm14DebugLocStream12finalizeListERNS_10AsmPrinterE
libbcc.so.0:_ZN4llvm14DebugLocStream13finalizeEntryEv
libbcc.so.0:_ZN4llvm14DeleteDeadPHIsEPNS_10BasicBlockEPKNS_17TargetLibraryInfoEPNS_16MemorySSAUpdaterE
libbcc.so.0:_ZN4llvm14DependenceInfo10Constraint11setDistanceEPKNS_4SCEVEPKNS_4LoopE
libbcc.so.0:_ZN4llvm14DependenceInfo10Constraint6setAnyEPNS_15ScalarEvolutionE
libbcc.so.0:_ZN4llvm14DependenceInfo10Constraint7setLineEPKNS_4SCEVES4_S4_PKNS_4LoopE
libbcc.so.0:_ZN4llvm14DependenceInfo10Constraint8setEmptyEv
libbcc.so.0:_ZN4llvm14DependenceInfo10Constraint8setPointEPKNS_4SCEVES4_PKNS_4LoopE
libbcc.so.0:_ZN4llvm14DependenceInfo10invalidateERNS_8FunctionERKNS_17PreservedAnalysesERNS_15AnalysisManagerIS1_JEE11InvalidatorE
libbcc.so.0:_ZN4llvm14DependenceInfo12classifyPairEPKNS_4SCEVEPKNS_4LoopES3_S6_RNS_14SmallBitVectorE
libbcc.so.0:_ZN4llvm14DependenceInfo13propagateLineERPKNS_4SCEVES4_RNS0_10ConstraintERb
libbcc.so.0:_ZN4llvm14DependenceInfo14checkSubscriptEPKNS_4SCEVEPKNS_4LoopERNS_14SmallBitVectorEb
libbcc.so.0:_ZN4llvm14DependenceInfo14propagatePointERPKNS_4SCEVES4_RNS0_10ConstraintE
libbcc.so.0:_ZN4llvm14DependenceInfo14tryDelinearizeEPNS_11InstructionES2_RNS_15SmallVectorImplINS0_9SubscriptEEE
libbcc.so.0:_ZN4llvm14DependenceInfo17checkDstSubscriptEPKNS_4SCEVEPKNS_4LoopERNS_14SmallBitVectorE
libbcc.so.0:_ZN4llvm14DependenceInfo17checkSrcSubscriptEPKNS_4SCEVEPKNS_4LoopERNS_14SmallBitVectorE
libbcc.so.0:_ZN4llvm14DependenceInfo17getSplitIterationERKNS_10DependenceEj
libbcc.so.0:_ZN4llvm14DependenceInfo17propagateDistanceERPKNS_4SCEVES4_RNS0_10ConstraintERb
libbcc.so.0:_ZN4llvm14DependenceInfo18unifySubscriptTypeENS_8ArrayRefIPNS0_9SubscriptEEE
libbcc.so.0:_ZN4llvm14DependenceInfo20intersectConstraintsEPNS0_10ConstraintEPKS1_
libbcc.so.0:_ZN4llvm14DependenceInfo22establishNestingLevelsEPKNS_11InstructionES3_
libbcc.so.0:_ZN4llvm14DependenceInfo23tryDelinearizeFixedSizeEPNS_11InstructionES2_PKNS_4SCEVES5_RNS_15SmallVectorImplIS5_EES8_
libbcc.so.0:_ZN4llvm14DependenceInfo24removeMatchingExtensionsEPNS0_9SubscriptE
libbcc.so.0:_ZN4llvm14DependenceInfo28tryDelinearizeParametricSizeEPNS_11InstructionES2_PKNS_4SCEVES5_RNS_15SmallVectorImplIS5_EES8_
libbcc.so.0:_ZN4llvm14DependenceInfo7dependsEPNS_11InstructionES2_b
libbcc.so.0:_ZN4llvm14DependenceInfo9propagateERPKNS_4SCEVES4_RNS_14SmallBitVectorERNS_15SmallVectorImplINS0_10ConstraintEEERb
libbcc.so.0:_ZN4llvm14DiagnosticInfo6anchorEv
libbcc.so.0:_ZN4llvm14DivergenceInfoC1ERNS_8FunctionERKNS_13DominatorTreeERKNS_17PostDominatorTreeERKNS_8LoopInfoERKNS_19TargetTransformInfoEb
libbcc.so.0:_ZN4llvm14DivergenceInfoC2ERNS_8FunctionERKNS_13DominatorTreeERKNS_17PostDominatorTreeERKNS_8LoopInfoERKNS_19TargetTransformInfoEb
libbcc.so.0:_ZN4llvm14DomTreeUpdater10getDomTreeEv
libbcc.so.0:_ZN4llvm14DomTreeUpdater11recalculateERNS_8FunctionE
libbcc.so.0:_ZN4llvm14DomTreeUpdater12applyUpdatesENS_8ArrayRefINS_3cfg6UpdateIPNS_10BasicBlockEEEEE
libbcc.so.0:_ZN4llvm14DomTreeUpdater14eraseDelBBNodeEPNS_10BasicBlockE
libbcc.so.0:_ZN4llvm14DomTreeUpdater14getPostDomTreeEv
libbcc.so.0:_ZN4llvm14DomTreeUpdater16callbackDeleteBBEPNS_10BasicBlockESt8functionIFvS2_EE
libbcc.so.0:_ZN4llvm14DomTreeUpdater16validateDeleteBBEPNS_10BasicBlockE
libbcc.so.0:_ZN4llvm14DomTreeUpdater17tryFlushDeletedBBEv
libbcc.so.0:_ZN4llvm14DomTreeUpdater19applyDomTreeUpdatesEv
libbcc.so.0:_ZN4llvm14DomTreeUpdater19forceFlushDeletedBBEv
libbcc.so.0:_ZN4llvm14DomTreeUpdater20dropOutOfDateUpdatesEv
libbcc.so.0:_ZN4llvm14DomTreeUpdater22applyUpdatesPermissiveENS_8ArrayRefINS_3cfg6UpdateIPNS_10BasicBlockEEEEE
libbcc.so.0:_ZN4llvm14DomTreeUpdater23applyPostDomTreeUpdatesEv
libbcc.so.0:_ZN4llvm14DomTreeUpdater5flushEv
libbcc.so.0:_ZN4llvm14DomTreeUpdater8deleteBBEPNS_10BasicBlockE
libbcc.so.0:_ZN4llvm14FlattenCFGPass3runERNS_8FunctionERNS_15AnalysisManagerIS1_JEEE
libbcc.so.0:_ZN4llvm14FoldingSetBase10InsertNodeEPNS0_4NodeEPvRKNS0_14FoldingSetInfoE
libbcc.so.0:_ZN4llvm14FoldingSetBase10RemoveNodeEPNS0_4NodeE
libbcc.so.0:_ZN4llvm14FoldingSetBase13GrowHashTableERKNS0_14FoldingSetInfoE
libbcc.so.0:_ZN4llvm14FoldingSetBase15GetOrInsertNodeEPNS0_4NodeERKNS0_14FoldingSetInfoE
libbcc.so.0:_ZN4llvm14FoldingSetBase15GrowBucketCountEjRKNS0_14FoldingSetInfoE
libbcc.so.0:_ZN4llvm14FoldingSetBase19FindNodeOrInsertPosERKNS_16FoldingSetNodeIDERPvRKNS0_14FoldingSetInfoE
libbcc.so.0:_ZN4llvm14FoldingSetBase5clearEv
libbcc.so.0:_ZN4llvm14FoldingSetBase7reserveEjRKNS0_14FoldingSetInfoE
libbcc.so.0:_ZN4llvm14FoldingSetBaseC1EOS0_
libbcc.so.0:_ZN4llvm14FoldingSetBaseC1Ej
libbcc.so.0:_ZN4llvm14FoldingSetBaseC2EOS0_
libbcc.so.0:_ZN4llvm14FoldingSetBaseC2Ej
libbcc.so.0:_ZN4llvm14FoldingSetBaseD1Ev
libbcc.so.0:_ZN4llvm14FoldingSetBaseD2Ev
libbcc.so.0:_ZN4llvm14FoldingSetBaseaSEOS0_
libbcc.so.0:_ZN4llvm14FullDependenceC1EPNS_11InstructionES2_bj
libbcc.so.0:_ZN4llvm14FullDependenceC2EPNS_11InstructionES2_bj
libbcc.so.0:_ZN4llvm14FuncletPadInst4initEPNS_5ValueENS_8ArrayRefIS2_EERKNS_5TwineE
libbcc.so.0:_ZN4llvm14FuncletPadInstC1ENS_11Instruction13FuncletPadOpsEPNS_5ValueENS_8ArrayRefIS4_EEjRKNS_5TwineEPNS_10BasicBlockE
libbcc.so.0:_ZN4llvm14FuncletPadInstC1ENS_11Instruction13FuncletPadOpsEPNS_5ValueENS_8ArrayRefIS4_EEjRKNS_5TwineEPS1_
libbcc.so.0:_ZN4llvm14FuncletPadInstC1ERKS0_
libbcc.so.0:_ZN4llvm14FuncletPadInstC2ENS_11Instruction13FuncletPadOpsEPNS_5ValueENS_8ArrayRefIS4_EEjRKNS_5TwineEPNS_10BasicBlockE
libbcc.so.0:_ZN4llvm14FuncletPadInstC2ENS_11Instruction13FuncletPadOpsEPNS_5ValueENS_8ArrayRefIS4_EEjRKNS_5TwineEPS1_
libbcc.so.0:_ZN4llvm14FuncletPadInstC2ERKS0_
libbcc.so.0:_ZN4llvm14GCFunctionInfoC1ERKNS_8FunctionERNS_10GCStrategyE
libbcc.so.0:_ZN4llvm14GCFunctionInfoC2ERKNS_8FunctionERNS_10GCStrategyE
libbcc.so.0:_ZN4llvm14GCFunctionInfoD1Ev
libbcc.so.0:_ZN4llvm14GCFunctionInfoD2Ev
libbcc.so.0:_ZN4llvm14GISelKnownBits12getKnownBitsENS_8RegisterE
libbcc.so.0:_ZN4llvm14GISelKnownBits12getKnownBitsENS_8RegisterERKNS_5APIntEj
libbcc.so.0:_ZN4llvm14GISelKnownBits12getKnownBitsERNS_12MachineInstrE
libbcc.so.0:_ZN4llvm14GISelKnownBits12getKnownOnesENS_8RegisterE
libbcc.so.0:_ZN4llvm14GISelKnownBits13signBitIsZeroENS_8RegisterE
libbcc.so.0:_ZN4llvm14GISelKnownBits14getKnownZeroesENS_8RegisterE
libbcc.so.0:_ZN4llvm14GISelKnownBits18computeNumSignBitsENS_8RegisterERKNS_5APIntEj
libbcc.so.0:_ZN4llvm14GISelKnownBits18computeNumSignBitsENS_8RegisterEj
libbcc.so.0:_ZN4llvm14GISelKnownBits19computeKnownBitsMinENS_8RegisterES1_RNS_9KnownBitsERKNS_5APIntEj
libbcc.so.0:_ZN4llvm14GISelKnownBits20computeKnownBitsImplENS_8RegisterERNS_9KnownBitsERKNS_5APIntEj
libbcc.so.0:_ZN4llvm14GISelKnownBits21computeKnownAlignmentENS_8RegisterEj
libbcc.so.0:_ZN4llvm14GISelKnownBits21computeNumSignBitsMinENS_8RegisterES1_RKNS_5APIntEj
libbcc.so.0:_ZN4llvm14GISelKnownBitsC1ERNS_15MachineFunctionEj
libbcc.so.0:_ZN4llvm14GISelKnownBitsC2ERNS_15MachineFunctionEj
libbcc.so.0:_ZN4llvm14GVMaterializerD0Ev
libbcc.so.0:_ZN4llvm14GVMaterializerD1Ev
libbcc.so.0:_ZN4llvm14GVMaterializerD2Ev
libbcc.so.0:_ZN4llvm14GetIfConditionEPNS_10BasicBlockERS1_S2_
libbcc.so.0:_ZN4llvm14GetShadowBytesERKNS_15SmallVectorImplINS_28ASanStackVariableDescriptionEEERKNS_20ASanStackFrameLayoutE
libbcc.so.0:_ZN4llvm14GlobalVariable12addDebugInfoEPNS_26DIGlobalVariableExpressionE
libbcc.so.0:_ZN4llvm14GlobalVariable14setInitializerEPNS_8ConstantE
libbcc.so.0:_ZN4llvm14GlobalVariable15eraseFromParentEv
libbcc.so.0:_ZN4llvm14GlobalVariable16removeFromParentEv
libbcc.so.0:_ZN4llvm14GlobalVariable17dropAllReferencesEv
libbcc.so.0:_ZN4llvm14GlobalVariable18copyAttributesFromEPKS0_
libbcc.so.0:_ZN4llvm14GlobalVariableC1EPNS_4TypeEbNS_11GlobalValue12LinkageTypesEPNS_8ConstantERKNS_5TwineENS3_15ThreadLocalModeEjb
libbcc.so.0:_ZN4llvm14GlobalVariableC1ERNS_6ModuleEPNS_4TypeEbNS_11GlobalValue12LinkageTypesEPNS_8ConstantERKNS_5TwineEPS0_NS5_15ThreadLocalModeENS_8OptionalIjEEb
libbcc.so.0:_ZN4llvm14GlobalVariableC2EPNS_4TypeEbNS_11GlobalValue12LinkageTypesEPNS_8ConstantERKNS_5TwineENS3_15ThreadLocalModeEjb
libbcc.so.0:_ZN4llvm14GlobalVariableC2ERNS_6ModuleEPNS_4TypeEbNS_11GlobalValue12LinkageTypesEPNS_8ConstantERKNS_5TwineEPS0_NS5_15ThreadLocalModeENS_8OptionalIjEEb
libbcc.so.0:_ZN4llvm14HelloWorldPass3runERNS_8FunctionERNS_15AnalysisManagerIS1_JEEE
libbcc.so.0:_ZN4llvm14IROutlinerPass3runERNS_6ModuleERNS_15AnalysisManagerIS1_JEEE
libbcc.so.0:_ZN4llvm14IndirectBrInst12growOperandsEv
libbcc.so.0:_ZN4llvm14IndirectBrInst14addDestinationEPNS_10BasicBlockE
libbcc.so.0:_ZN4llvm14IndirectBrInst17removeDestinationEj
libbcc.so.0:_ZN4llvm14IndirectBrInst4initEPNS_5ValueEj
libbcc.so.0:_ZN4llvm14IndirectBrInstC1EPNS_5ValueEjPNS_10BasicBlockE
libbcc.so.0:_ZN4llvm14IndirectBrInstC1EPNS_5ValueEjPNS_11InstructionE
libbcc.so.0:_ZN4llvm14IndirectBrInstC1ERKS0_
libbcc.so.0:_ZN4llvm14IndirectBrInstC2EPNS_5ValueEjPNS_10BasicBlockE
libbcc.so.0:_ZN4llvm14IndirectBrInstC2EPNS_5ValueEjPNS_11InstructionE
libbcc.so.0:_ZN4llvm14IndirectBrInstC2ERKS0_
libbcc.so.0:_ZN4llvm14InlineFunctionERNS_8CallBaseERNS_18InlineFunctionInfoEPNS_9AAResultsEbPNS_8FunctionE
libbcc.so.0:_ZN4llvm14InstrProfiling10emitVNodesEv
libbcc.so.0:_ZN4llvm14InstrProfiling10lowerCoverEPNS_18InstrProfCoverInstE
libbcc.so.0:_ZN4llvm14InstrProfiling12emitNameDataEv
libbcc.so.0:_ZN4llvm14InstrProfiling14lowerIncrementEPNS_22InstrProfIncrementInstE
libbcc.so.0:_ZN4llvm14InstrProfiling15emitRuntimeHookEv
libbcc.so.0:_ZN4llvm14InstrProfiling15lowerIntrinsicsEPNS_8FunctionE
libbcc.so.0:_ZN4llvm14InstrProfiling16emitRegistrationEv
libbcc.so.0:_ZN4llvm14InstrProfiling17getCounterAddressEPNS_17InstrProfInstBaseE
libbcc.so.0:_ZN4llvm14InstrProfiling17lowerCoverageDataEPNS_14GlobalVariableE
libbcc.so.0:_ZN4llvm14InstrProfiling18emitInitializationEv
libbcc.so.0:_ZN4llvm14InstrProfiling20createRegionCountersEPNS_17InstrProfInstBaseENS_9StringRefENS_11GlobalValue12LinkageTypesE
libbcc.so.0:_ZN4llvm14InstrProfiling21lowerValueProfileInstEPNS_25InstrProfValueProfileInstE
libbcc.so.0:_ZN4llvm14InstrProfiling24promoteCounterLoadStoresEPNS_8FunctionE
libbcc.so.0:_ZN4llvm14InstrProfiling25computeNumValueSiteCountsEPNS_25InstrProfValueProfileInstE
libbcc.so.0:_ZN4llvm14InstrProfiling25getOrCreateRegionCountersEPNS_17InstrProfInstBaseE
libbcc.so.0:_ZN4llvm14InstrProfiling3runERNS_6ModuleERNS_15AnalysisManagerIS1_JEEE
libbcc.so.0:_ZN4llvm14InstrProfiling3runERNS_6ModuleESt8functionIFRKNS_17TargetLibraryInfoERNS_8FunctionEEE
libbcc.so.0:_ZN4llvm14InstrProfiling8emitUsesEv
libbcc.so.0:_ZN4llvm14JITSymbolFlags11fromSummaryEPNS_18GlobalValueSummaryE
libbcc.so.0:_ZN4llvm14JITSymbolFlags15fromGlobalValueERKNS_11GlobalValueE
libbcc.so.0:_ZN4llvm14JITSymbolFlags16fromObjectSymbolERKNS_6object9SymbolRefE
libbcc.so.0:_ZN4llvm14LandingPadInst12growOperandsEj
libbcc.so.0:_ZN4llvm14LandingPadInst4initEjRKNS_5TwineE
libbcc.so.0:_ZN4llvm14LandingPadInst6CreateEPNS_4TypeEjRKNS_5TwineEPNS_10BasicBlockE
libbcc.so.0:_ZN4llvm14LandingPadInst6CreateEPNS_4TypeEjRKNS_5TwineEPNS_11InstructionE
libbcc.so.0:_ZN4llvm14LandingPadInst9addClauseEPNS_8ConstantE
libbcc.so.0:_ZN4llvm14LandingPadInstC1EPNS_4TypeEjRKNS_5TwineEPNS_10BasicBlockE
libbcc.so.0:_ZN4llvm14LandingPadInstC1EPNS_4TypeEjRKNS_5TwineEPNS_11InstructionE
libbcc.so.0:_ZN4llvm14LandingPadInstC1ERKS0_
libbcc.so.0:_ZN4llvm14LandingPadInstC2EPNS_4TypeEjRKNS_5TwineEPNS_10BasicBlockE
libbcc.so.0:_ZN4llvm14LandingPadInstC2EPNS_4TypeEjRKNS_5TwineEPNS_11InstructionE
libbcc.so.0:_ZN4llvm14LandingPadInstC2ERKS0_
libbcc.so.0:_ZN4llvm14LoopAccessInfo11analyzeLoopEPNS_9AAResultsEPNS_8LoopInfoEPKNS_17TargetLibraryInfoEPNS_13DominatorTreeE
libbcc.so.0:_ZN4llvm14LoopAccessInfo14canAnalyzeLoopEv
libbcc.so.0:_ZN4llvm14LoopAccessInfo14recordAnalysisENS_9StringRefEPNS_11InstructionE
libbcc.so.0:_ZN4llvm14LoopAccessInfo20collectStridedAccessEPNS_5ValueE
libbcc.so.0:_ZN4llvm14LoopAccessInfo21blockNeedsPredicationEPNS_10BasicBlockEPNS_4LoopEPNS_13DominatorTreeE
libbcc.so.0:_ZN4llvm14LoopAccessInfo26emitUnsafeDependenceRemarkEv
libbcc.so.0:_ZN4llvm14LoopAccessInfoC1EPNS_4LoopEPNS_15ScalarEvolutionEPKNS_17TargetLibraryInfoEPNS_9AAResultsEPNS_13DominatorTreeEPNS_8LoopInfoE
libbcc.so.0:_ZN4llvm14LoopAccessInfoC2EPNS_4LoopEPNS_15ScalarEvolutionEPKNS_17TargetLibraryInfoEPNS_9AAResultsEPNS_13DominatorTreeEPNS_8LoopInfoE
libbcc.so.0:_ZN4llvm14LoopRerollPass3runERNS_4LoopERNS_15AnalysisManagerIS1_JRNS_27LoopStandardAnalysisResultsEEEES5_RNS_10LPMUpdaterE
libbcc.so.0:_ZN4llvm14LoopRotatePass3runERNS_4LoopERNS_15AnalysisManagerIS1_JRNS_27LoopStandardAnalysisResultsEEEES5_RNS_10LPMUpdaterE
libbcc.so.0:_ZN4llvm14LoopRotatePassC1Ebb
libbcc.so.0:_ZN4llvm14LoopRotatePassC2Ebb
libbcc.so.0:_ZN4llvm14LoopSafetyInfo10copyColorsEPNS_10BasicBlockES2_
libbcc.so.0:_ZN4llvm14LoopSafetyInfo18computeBlockColorsEPKNS_4LoopE
libbcc.so.0:_ZN4llvm14LoopUnrollPass13printPipelineERNS_11raw_ostreamENS_12function_refIFNS_9StringRefES4_EEE
libbcc.so.0:_ZN4llvm14LoopUnrollPass3runERNS_8FunctionERNS_15AnalysisManagerIS1_JEEE
libbcc.so.0:_ZN4llvm14LoopVersioning11addPHINodesERKNS_15SmallVectorImplIPNS_11InstructionEEE
libbcc.so.0:_ZN4llvm14LoopVersioning11versionLoopERKNS_15SmallVectorImplIPNS_11InstructionEEE
libbcc.so.0:_ZN4llvm14LoopVersioning22prepareNoAliasMetadataEv
libbcc.so.0:_ZN4llvm14LoopVersioning23annotateInstWithNoAliasEPNS_11InstructionEPKS1_
libbcc.so.0:_ZN4llvm14LoopVersioning23annotateLoopWithNoAliasEv
libbcc.so.0:_ZN4llvm14LoopVersioningC1ERKNS_14LoopAccessInfoENS_8ArrayRefISt4pairIPKNS_23RuntimeCheckingPtrGroupES8_EEEPNS_4LoopEPNS_8LoopInfoEPNS_13DominatorTreeEPNS_15ScalarEvolutionE
libbcc.so.0:_ZN4llvm14LoopVersioningC2ERKNS_14LoopAccessInfoENS_8ArrayRefISt4pairIPKNS_23RuntimeCheckingPtrGroupES8_EEEPNS_4LoopEPNS_8LoopInfoEPNS_13DominatorTreeEPNS_15ScalarEvolutionE
libbcc.so.0:_ZN4llvm14MCConstantExpr6createElRNS_9MCContextEbj
libbcc.so.0:_ZN4llvm14MCDisassembler13setSymbolizerESt10unique_ptrINS_12MCSymbolizerESt14default_deleteIS2_EE
libbcc.so.0:_ZN4llvm14MCDisassemblerD0Ev
libbcc.so.0:_ZN4llvm14MCDisassemblerD1Ev
libbcc.so.0:_ZN4llvm14MCDisassemblerD2Ev
libbcc.so.0:_ZN4llvm14MCDwarfLineStr11emitSectionEPNS_10MCStreamerE
libbcc.so.0:_ZN4llvm14MCDwarfLineStr16getFinalizedDataEv
libbcc.so.0:_ZN4llvm14MCDwarfLineStr7emitRefEPNS_10MCStreamerENS_9StringRefE
libbcc.so.0:_ZN4llvm14MCDwarfLineStrC1ERNS_9MCContextE
libbcc.so.0:_ZN4llvm14MCDwarfLineStrC2ERNS_9MCContextE
libbcc.so.0:_ZN4llvm14MCGenDwarfInfo4EmitEPNS_10MCStreamerE
libbcc.so.0:_ZN4llvm14MCObjectWriterD0Ev
libbcc.so.0:_ZN4llvm14MCObjectWriterD1Ev
libbcc.so.0:_ZN4llvm14MCObjectWriterD2Ev
libbcc.so.0:_ZN4llvm14MCSectionMachO21ParseSectionSpecifierENS_9StringRefERS1_S2_RjRbS3_
libbcc.so.0:_ZN4llvm14MCSectionMachOC1ENS_9StringRefES1_jjNS_11SectionKindEPNS_8MCSymbolE
libbcc.so.0:_ZN4llvm14MCSectionMachOC2ENS_9StringRefES1_jjNS_11SectionKindEPNS_8MCSymbolE
libbcc.so.0:_ZN4llvm14MCSectionXCOFFD1Ev
libbcc.so.0:_ZN4llvm14MCSectionXCOFFD2Ev
libbcc.so.0:_ZN4llvm14MCWasmStreamer10finishImplEv
libbcc.so.0:_ZN4llvm14MCWasmStreamer11emitELFSizeEPNS_8MCSymbolEPKNS_6MCExprE
libbcc.so.0:_ZN4llvm14MCWasmStreamer12emitZerofillEPNS_9MCSectionEPNS_8MCSymbolEmjNS_5SMLocE
libbcc.so.0:_ZN4llvm14MCWasmStreamer13changeSectionEPNS_9MCSectionEPKNS_6MCExprE
libbcc.so.0:_ZN4llvm14MCWasmStreamer13emitThumbFuncEPNS_8MCSymbolE
libbcc.so.0:_ZN4llvm14MCWasmStreamer13mergeFragmentEPNS_14MCDataFragmentES2_
libbcc.so.0:_ZN4llvm14MCWasmStreamer14emitInstToDataERKNS_6MCInstERKNS_15MCSubtargetInfoE
libbcc.so.0:_ZN4llvm14MCWasmStreamer14emitLabelAtPosEPNS_8MCSymbolENS_5SMLocEPNS_10MCFragmentEm
libbcc.so.0:_ZN4llvm14MCWasmStreamer14emitSymbolDescEPNS_8MCSymbolEj
libbcc.so.0:_ZN4llvm14MCWasmStreamer14emitTBSSSymbolEPNS_9MCSectionEPNS_8MCSymbolEmj
libbcc.so.0:_ZN4llvm14MCWasmStreamer16emitCommonSymbolEPNS_8MCSymbolEmj
libbcc.so.0:_ZN4llvm14MCWasmStreamer17emitAssemblerFlagENS_15MCAssemblerFlagE
libbcc.so.0:_ZN4llvm14MCWasmStreamer17emitWeakReferenceEPNS_8MCSymbolEPKS1_
libbcc.so.0:_ZN4llvm14MCWasmStreamer18emitInstToFragmentERKNS_6MCInstERKNS_15MCSubtargetInfoE
libbcc.so.0:_ZN4llvm14MCWasmStreamer19emitSymbolAttributeEPNS_8MCSymbolENS_12MCSymbolAttrE
libbcc.so.0:_ZN4llvm14MCWasmStreamer21emitLocalCommonSymbolEPNS_8MCSymbolEmj
libbcc.so.0:_ZN4llvm14MCWasmStreamer21fixSymbolsInTLSFixupsEPKNS_6MCExprE
libbcc.so.0:_ZN4llvm14MCWasmStreamer9emitIdentENS_9StringRefE
libbcc.so.0:_ZN4llvm14MCWasmStreamer9emitLabelEPNS_8MCSymbolENS_5SMLocE
libbcc.so.0:_ZN4llvm14MCWasmStreamerD0Ev
libbcc.so.0:_ZN4llvm14MCWasmStreamerD1Ev
libbcc.so.0:_ZN4llvm14MCWasmStreamerD2Ev
libbcc.so.0:_ZN4llvm14MachineOperand10ChangeToESEPKcj
libbcc.so.0:_ZN4llvm14MachineOperand10ChangeToGAEPKNS_11GlobalValueElj
libbcc.so.0:_ZN4llvm14MachineOperand11printSymbolERNS_11raw_ostreamERNS_8MCSymbolE
libbcc.so.0:_ZN4llvm14MachineOperand12substPhysRegENS_10MCRegisterERKNS_18TargetRegisterInfoE
libbcc.so.0:_ZN4llvm14MachineOperand12substVirtRegENS_8RegisterEjRKNS_18TargetRegisterInfoE
libbcc.so.0:_ZN4llvm14MachineOperand14printSubRegIdxERNS_11raw_ostreamEmPKNS_18TargetRegisterInfoE
libbcc.so.0:_ZN4llvm14MachineOperand14setIsRenamableEb
libbcc.so.0:_ZN4llvm14MachineOperand16ChangeToMCSymbolEPNS_8MCSymbolEj
libbcc.so.0:_ZN4llvm14MachineOperand16ChangeToRegisterENS_8RegisterEbbbbbb
libbcc.so.0:_ZN4llvm14MachineOperand16printTargetFlagsERNS_11raw_ostreamERKS0_
libbcc.so.0:_ZN4llvm14MachineOperand17ChangeToImmediateElj
libbcc.so.0:_ZN4llvm14MachineOperand17printIRSlotNumberERNS_11raw_ostreamEi
libbcc.so.0:_ZN4llvm14MachineOperand17removeRegFromUsesEv
libbcc.so.0:_ZN4llvm14MachineOperand18ChangeToFrameIndexEij
libbcc.so.0:_ZN4llvm14MachineOperand18printOperandOffsetERNS_11raw_ostreamEl
libbcc.so.0:_ZN4llvm14MachineOperand19ChangeToFPImmediateEPKNS_10ConstantFPEj
libbcc.so.0:_ZN4llvm14MachineOperand19ChangeToTargetIndexEjlj
libbcc.so.0:_ZN4llvm14MachineOperand25printStackObjectReferenceERNS_11raw_ostreamEjbNS_9StringRefE
libbcc.so.0:_ZN4llvm14MachineOperand6setRegENS_8RegisterE
libbcc.so.0:_ZN4llvm14MachineOperand8setIsDefEb
libbcc.so.0:_ZN4llvm14MemoryLocation10getForDestEPKNS_12MemIntrinsicE
libbcc.so.0:_ZN4llvm14MemoryLocation10getForDestEPKNS_15AnyMemIntrinsicE
libbcc.so.0:_ZN4llvm14MemoryLocation10getForDestEPKNS_18AtomicMemIntrinsicE
libbcc.so.0:_ZN4llvm14MemoryLocation10getForDestEPKNS_8CallBaseERKNS_17TargetLibraryInfoE
libbcc.so.0:_ZN4llvm14MemoryLocation12getForSourceEPKNS_15MemTransferInstE
libbcc.so.0:_ZN4llvm14MemoryLocation12getForSourceEPKNS_18AnyMemTransferInstE
libbcc.so.0:_ZN4llvm14MemoryLocation12getForSourceEPKNS_21AtomicMemTransferInstE
libbcc.so.0:_ZN4llvm14MemoryLocation14getForArgumentEPKNS_8CallBaseEjPKNS_17TargetLibraryInfoE
libbcc.so.0:_ZN4llvm14MemoryLocation3getEPKNS_13AtomicRMWInstE
libbcc.so.0:_ZN4llvm14MemoryLocation3getEPKNS_17AtomicCmpXchgInstE
libbcc.so.0:_ZN4llvm14MemoryLocation3getEPKNS_8LoadInstE
libbcc.so.0:_ZN4llvm14MemoryLocation3getEPKNS_9StoreInstE
libbcc.so.0:_ZN4llvm14MemoryLocation3getEPKNS_9VAArgInstE
libbcc.so.0:_ZN4llvm14MemoryLocation9getOrNoneEPKNS_11InstructionE
libbcc.so.0:_ZN4llvm14MemoryOpRemark10visitStoreERKNS_9StoreInstE
libbcc.so.0:_ZN4llvm14MemoryOpRemark12visitUnknownERKNS_11InstructionE
libbcc.so.0:_ZN4llvm14MemoryOpRemark13visitVariableEPKNS_5ValueERNS_15SmallVectorImplINS0_12VariableInfoEEE
libbcc.so.0:_ZN4llvm14MemoryOpRemark16visitSizeOperandEPNS_5ValueERNS_28DiagnosticInfoIROptimizationE
libbcc.so.0:_ZN4llvm14MemoryOpRemark17visitKnownLibCallERKNS_8CallInstENS_7LibFuncERNS_28DiagnosticInfoIROptimizationE
libbcc.so.0:_ZN4llvm14MemoryOpRemark18visitIntrinsicCallERKNS_13IntrinsicInstE
libbcc.so.0:_ZN4llvm14MemoryOpRemark5visitEPKNS_11InstructionE
libbcc.so.0:_ZN4llvm14MemoryOpRemark8visitPtrEPNS_5ValueEbRNS_28DiagnosticInfoIROptimizationE
libbcc.so.0:_ZN4llvm14MemoryOpRemark9canHandleEPKNS_11InstructionERKNS_17TargetLibraryInfoE
libbcc.so.0:_ZN4llvm14MemoryOpRemark9visitCallERKNS_8CallInstE
libbcc.so.0:_ZN4llvm14MemoryOpRemarkD0Ev
libbcc.so.0:_ZN4llvm14MemoryOpRemarkD1Ev
libbcc.so.0:_ZN4llvm14MemoryOpRemarkD2Ev
libbcc.so.0:_ZN4llvm14MergeICmpsPass3runERNS_8FunctionERNS_15AnalysisManagerIS1_JEEE
libbcc.so.0:_ZN4llvm14MetadataLoader12setStripTBAAEb
libbcc.so.0:_ZN4llvm14MetadataLoader13parseMetadataEb
libbcc.so.0:_ZN4llvm14MetadataLoader15isStrippingTBAAEv
libbcc.so.0:_ZN4llvm14MetadataLoader18MetadataLoaderImpl13parseMetadataEb
libbcc.so.0:_ZN4llvm14MetadataLoader18MetadataLoaderImpl18parseMetadataKindsEv
libbcc.so.0:_ZN4llvm14MetadataLoader18MetadataLoaderImpl19lazyLoadOneMDStringEj
libbcc.so.0:_ZN4llvm14MetadataLoader18MetadataLoaderImpl20parseMetadataStringsENS_8ArrayRefImEENS_9StringRefENS_12function_refIFvS4_EEE
libbcc.so.0:_ZN4llvm14MetadataLoader18MetadataLoaderImpl23parseMetadataAttachmentERNS_8FunctionENS_8ArrayRefIPNS_11InstructionEEE
libbcc.so.0:_ZN4llvm14MetadataLoader18MetadataLoaderImpl23parseMetadataKindRecordERNS_15SmallVectorImplImEE
libbcc.so.0:_ZN4llvm14MetadataLoader18MetadataLoaderImpl25loadGlobalDeclAttachmentsEv
libbcc.so.0:_ZN4llvm14MetadataLoader18MetadataLoaderImpl27lazyLoadModuleMetadataBlockEv
libbcc.so.0:_ZN4llvm14MetadataLoader18MetadataLoaderImpl27parseGlobalObjectAttachmentERNS_12GlobalObjectENS_8ArrayRefImEE
libbcc.so.0:_ZN4llvm14MetadataLoader18parseMetadataKindsEv
libbcc.so.0:_ZN4llvm14MetadataLoader22upgradeDebugIntrinsicsERNS_8FunctionE
libbcc.so.0:_ZN4llvm14MetadataLoader23getMetadataFwdRefOrLoadEj
libbcc.so.0:_ZN4llvm14MetadataLoader23parseMetadataAttachmentERNS_8FunctionENS_8ArrayRefIPNS_11InstructionEEE
libbcc.so.0:_ZN4llvm14MetadataLoader27lookupSubprogramForFunctionEPNS_8FunctionE
libbcc.so.0:_ZN4llvm14MetadataLoader8shrinkToEj
libbcc.so.0:_ZN4llvm14MetadataLoaderC1EOS0_
libbcc.so.0:_ZN4llvm14MetadataLoaderC1ERNS_15BitstreamCursorERNS_6ModuleERNS_22BitcodeReaderValueListEbSt8functionIFPNS_4TypeEjEE
libbcc.so.0:_ZN4llvm14MetadataLoaderC2EOS0_
libbcc.so.0:_ZN4llvm14MetadataLoaderC2ERNS_15BitstreamCursorERNS_6ModuleERNS_22BitcodeReaderValueListEbSt8functionIFPNS_4TypeEjEE
libbcc.so.0:_ZN4llvm14MetadataLoaderD1Ev
libbcc.so.0:_ZN4llvm14MetadataLoaderD2Ev
libbcc.so.0:_ZN4llvm14MetadataLoaderaSEOS0_
libbcc.so.0:_ZN4llvm14ModuloSchedule5printERNS_11raw_ostreamE
libbcc.so.0:_ZN4llvm14PassNameParserC1ERNS_2cl6OptionE
libbcc.so.0:_ZN4llvm14PassNameParserC2ERNS_2cl6OptionE
libbcc.so.0:_ZN4llvm14PassNameParserD0Ev
libbcc.so.0:_ZN4llvm14PassNameParserD1Ev
libbcc.so.0:_ZN4llvm14PassNameParserD2Ev
libbcc.so.0:_ZN4llvm14PiBlockDDGNodeC1EOS0_
libbcc.so.0:_ZN4llvm14PiBlockDDGNodeC1ERKNS_11SmallVectorIPNS_7DDGNodeELj4EEE
libbcc.so.0:_ZN4llvm14PiBlockDDGNodeC1ERKS0_
libbcc.so.0:_ZN4llvm14PiBlockDDGNodeC2EOS0_
libbcc.so.0:_ZN4llvm14PiBlockDDGNodeC2ERKNS_11SmallVectorIPNS_7DDGNodeELj4EEE
libbcc.so.0:_ZN4llvm14PiBlockDDGNodeC2ERKS0_
libbcc.so.0:_ZN4llvm14PiBlockDDGNodeD0Ev
libbcc.so.0:_ZN4llvm14PiBlockDDGNodeD1Ev
libbcc.so.0:_ZN4llvm14PiBlockDDGNodeD2Ev
libbcc.so.0:_ZN4llvm14ProfileSummary20getDetailedSummaryMDERNS_11LLVMContextE
libbcc.so.0:_ZN4llvm14ProfileSummary5getMDERNS_11LLVMContextEbb
libbcc.so.0:_ZN4llvm14ProfileSummary9getFromMDEPNS_8MetadataE
libbcc.so.0:_ZN4llvm14RecordStreamer10markGlobalERKNS_8MCSymbolENS_12MCSymbolAttrE
libbcc.so.0:_ZN4llvm14RecordStreamer11markDefinedERKNS_8MCSymbolE
libbcc.so.0:_ZN4llvm14RecordStreamer12emitZerofillEPNS_9MCSectionEPNS_8MCSymbolEmjNS_5SMLocE
libbcc.so.0:_ZN4llvm14RecordStreamer13symverAliasesEv
libbcc.so.0:_ZN4llvm14RecordStreamer14emitAssignmentEPNS_8MCSymbolEPKNS_6MCExprE
libbcc.so.0:_ZN4llvm14RecordStreamer14getSymbolStateEPKNS_8MCSymbolE
libbcc.so.0:_ZN4llvm14RecordStreamer15emitInstructionERKNS_6MCInstERKNS_15MCSubtargetInfoE
libbcc.so.0:_ZN4llvm14RecordStreamer15visitUsedSymbolERKNS_8MCSymbolE
libbcc.so.0:_ZN4llvm14RecordStreamer16emitCommonSymbolEPNS_8MCSymbolEmj
libbcc.so.0:_ZN4llvm14RecordStreamer19emitSymbolAttributeEPNS_8MCSymbolENS_12MCSymbolAttrE
libbcc.so.0:_ZN4llvm14RecordStreamer21flushSymverDirectivesEv
libbcc.so.0:_ZN4llvm14RecordStreamer22emitELFSymverDirectiveEPKNS_8MCSymbolENS_9StringRefEb
libbcc.so.0:_ZN4llvm14RecordStreamer3endEv
libbcc.so.0:_ZN4llvm14RecordStreamer5beginEv
libbcc.so.0:_ZN4llvm14RecordStreamer8markUsedERKNS_8MCSymbolE
libbcc.so.0:_ZN4llvm14RecordStreamer9emitLabelEPNS_8MCSymbolENS_5SMLocE
libbcc.so.0:_ZN4llvm14RecordStreamerC1ERNS_9MCContextERKNS_6ModuleE
libbcc.so.0:_ZN4llvm14RecordStreamerC2ERNS_9MCContextERKNS_6ModuleE
libbcc.so.0:_ZN4llvm14RegionInfoPass13releaseMemoryEv
libbcc.so.0:_ZN4llvm14RegionInfoPass13runOnFunctionERNS_8FunctionE
libbcc.so.0:_ZN4llvm14RegionInfoPassC1Ev
libbcc.so.0:_ZN4llvm14RegionInfoPassC2Ev
libbcc.so.0:_ZN4llvm14RegionInfoPassD0Ev
libbcc.so.0:_ZN4llvm14RegionInfoPassD1Ev
libbcc.so.0:_ZN4llvm14RegionInfoPassD2Ev
libbcc.so.0:_ZN4llvm14RegionPressure10openBottomENS_26MachineInstrBundleIteratorIKNS_12MachineInstrELb0EEE
libbcc.so.0:_ZN4llvm14RegionPressure5resetEv
libbcc.so.0:_ZN4llvm14RegionPressure7openTopENS_26MachineInstrBundleIteratorIKNS_12MachineInstrELb0EEE
libbcc.so.0:_ZN4llvm14RegisterAGBaseC1ENS_9StringRefEPKvS3_b
libbcc.so.0:_ZN4llvm14RegisterAGBaseC2ENS_9StringRefEPKvS3_b
libbcc.so.0:_ZN4llvm14RuntimeDyldELF10loadObjectERKNS_6object10ObjectFileE
libbcc.so.0:_ZN4llvm14RuntimeDyldELF10setMipsABIERKNS_6object10ObjectFileE
libbcc.so.0:_ZN4llvm14RuntimeDyldELF12finalizeLoadERKNS_6object10ObjectFileERSt3mapINS1_10SectionRefEjSt4lessIS6_ESaISt4pairIKS6_jEEE
libbcc.so.0:_ZN4llvm14RuntimeDyldELF15getGOTEntrySizeEv
libbcc.so.0:_ZN4llvm14RuntimeDyldELF16registerEHFramesEv
libbcc.so.0:_ZN4llvm14RuntimeDyldELF17resolveRelocationERKNS_12SectionEntryEmmjlmj
libbcc.so.0:_ZN4llvm14RuntimeDyldELF17resolveRelocationERKNS_15RelocationEntryEm
libbcc.so.0:_ZN4llvm14RuntimeDyldELF18allocateGOTEntriesEj
libbcc.so.0:_ZN4llvm14RuntimeDyldELF18computeGOTOffsetREEmmj
libbcc.so.0:_ZN4llvm14RuntimeDyldELF19findOPDEntrySectionERKNS_6object17ELFObjectFileBaseERSt3mapINS1_10SectionRefEjSt4lessIS6_ESaISt4pairIKS6_jEEERNS_18RelocationValueRefE
libbcc.so.0:_ZN4llvm14RuntimeDyldELF19findOrAllocGOTEntryERKNS_18RelocationValueRefEj
libbcc.so.0:_ZN4llvm14RuntimeDyldELF19findPPC64TOCSectionERKNS_6object17ELFObjectFileBaseERSt3mapINS1_10SectionRefEjSt4lessIS6_ESaISt4pairIKS6_jEEERNS_18RelocationValueRefE
libbcc.so.0:_ZN4llvm14RuntimeDyldELF20processRelocationRefEjNS_6object16content_iteratorINS1_13RelocationRefEEERKNS1_10ObjectFileERSt3mapINS1_10SectionRefEjSt4lessIS9_ESaISt4pairIKS9_jEEERS8_INS_18RelocationValueRefEmSA_ISI_ESaISC_IKSI_mEEE
libbcc.so.0:_ZN4llvm14RuntimeDyldELF20resolveAArch64BranchEjRKNS_18RelocationValueRefENS_6object16content_iteratorINS4_13RelocationRefEEERSt3mapIS1_mSt4lessIS1_ESaISt4pairIS2_mEEE
libbcc.so.0:_ZN4llvm14RuntimeDyldELF20resolveARMRelocationERKNS_12SectionEntryEmjji
libbcc.so.0:_ZN4llvm14RuntimeDyldELF20resolveBPFRelocationERKNS_12SectionEntryEmmjl
libbcc.so.0:_ZN4llvm14RuntimeDyldELF20resolveX86RelocationERKNS_12SectionEntryEmjji
libbcc.so.0:_ZN4llvm14RuntimeDyldELF22resolvePPC32RelocationERKNS_12SectionEntryEmmjl
libbcc.so.0:_ZN4llvm14RuntimeDyldELF22resolvePPC64RelocationERKNS_12SectionEntryEmmjl
libbcc.so.0:_ZN4llvm14RuntimeDyldELF23processSimpleRelocationEjmjNS_18RelocationValueRefE
libbcc.so.0:_ZN4llvm14RuntimeDyldELF23resolveX86_64RelocationERKNS_12SectionEntryEmmjlm
libbcc.so.0:_ZN4llvm14RuntimeDyldELF24resolveAArch64RelocationERKNS_12SectionEntryEmmjl
libbcc.so.0:_ZN4llvm14RuntimeDyldELF24resolveSystemZRelocationERKNS_12SectionEntryEmmjl
libbcc.so.0:_ZN4llvm14RuntimeDyldELF25resolveAArch64ShortBranchEjNS_6object16content_iteratorINS1_13RelocationRefEEERKNS_18RelocationValueRefE
libbcc.so.0:_ZN4llvm14RuntimeDyldELF26processX86_64TLSRelocationEjmmNS_18RelocationValueRefElRKNS_6object13RelocationRefE
libbcc.so.0:_ZN4llvm14RuntimeDyldELF26resolveGOTOffsetRelocationEjmmj
libbcc.so.0:_ZN4llvm14RuntimeDyldELF31processX86_64GOTTPOFFRelocationEjmNS_18RelocationValueRefEl
libbcc.so.0:_ZN4llvm14RuntimeDyldELF6createENS_6Triple8ArchTypeERNS_11RuntimeDyld13MemoryManagerERNS_17JITSymbolResolverE
libbcc.so.0:_ZN4llvm14RuntimeDyldELFC1ERNS_11RuntimeDyld13MemoryManagerERNS_17JITSymbolResolverE
libbcc.so.0:_ZN4llvm14RuntimeDyldELFC2ERNS_11RuntimeDyld13MemoryManagerERNS_17JITSymbolResolverE
libbcc.so.0:_ZN4llvm14RuntimeDyldELFD0Ev
libbcc.so.0:_ZN4llvm14RuntimeDyldELFD1Ev
libbcc.so.0:_ZN4llvm14RuntimeDyldELFD2Ev
libbcc.so.0:_ZN4llvm14SCEVAddRecExpr19evaluateAtIterationENS_8ArrayRefIPKNS_4SCEVEEES4_RNS_15ScalarEvolutionE
libbcc.so.0:_ZN4llvm14SSAUpdaterBulk11AddVariableENS_9StringRefEPNS_4TypeE
libbcc.so.0:_ZN4llvm14SSAUpdaterBulk14RewriteAllUsesEPNS_13DominatorTreeEPNS_15SmallVectorImplIPNS_7PHINodeEEE
libbcc.so.0:_ZN4llvm14SSAUpdaterBulk14computeValueAtEPNS_10BasicBlockERNS0_11RewriteInfoEPNS_13DominatorTreeE
libbcc.so.0:_ZN4llvm14SSAUpdaterBulk17AddAvailableValueEjPNS_10BasicBlockEPNS_5ValueE
libbcc.so.0:_ZN4llvm14SSAUpdaterBulk6AddUseEjPNS_3UseE
libbcc.so.0:_ZN4llvm14ScalarizerPass3runERNS_8FunctionERNS_15AnalysisManagerIS1_JEEE
libbcc.so.0:_ZN4llvm14SchedDFSResult12scheduleTreeEj
libbcc.so.0:_ZN4llvm14SchedDFSResult7computeENS_8ArrayRefINS_5SUnitEEE
libbcc.so.0:_ZN4llvm14SchedRemainder4initEPNS_13ScheduleDAGMIEPKNS_16TargetSchedModelE
libbcc.so.0:_ZN4llvm14SpillPlacement12addPrefSpillENS_8ArrayRefIjEEb
libbcc.so.0:_ZN4llvm14SpillPlacement12setThresholdERKNS_14BlockFrequencyE
libbcc.so.0:_ZN4llvm14SpillPlacement13releaseMemoryEv
libbcc.so.0:_ZN4llvm14SpillPlacement14addConstraintsENS_8ArrayRefINS0_15BlockConstraintEEE
libbcc.so.0:_ZN4llvm14SpillPlacement17scanActiveBundlesEv
libbcc.so.0:_ZN4llvm14SpillPlacement20runOnMachineFunctionERNS_15MachineFunctionE
libbcc.so.0:_ZN4llvm14SpillPlacement6finishEv
libbcc.so.0:_ZN4llvm14SpillPlacement6updateEj
libbcc.so.0:_ZN4llvm14SpillPlacement7iterateEv
libbcc.so.0:_ZN4llvm14SpillPlacement7prepareERNS_9BitVectorE
libbcc.so.0:_ZN4llvm14SpillPlacement8activateEj
libbcc.so.0:_ZN4llvm14SpillPlacement8addLinksENS_8ArrayRefIjEE
libbcc.so.0:_ZN4llvm14StackProtector12CreateFailBBEv
libbcc.so.0:_ZN4llvm14StackProtector13runOnFunctionERNS_8FunctionE
libbcc.so.0:_ZN4llvm14StackProtector15HasAddressTakenEPKNS_11InstructionENS_8TypeSizeE
libbcc.so.0:_ZN4llvm14StackProtector21InsertStackProtectorsEv
libbcc.so.0:_ZN4llvm14StackProtector22RequiresStackProtectorEv
libbcc.so.0:_ZN4llvm14StackProtectorC1Ev
libbcc.so.0:_ZN4llvm14StackProtectorC2Ev
libbcc.so.0:_ZN4llvm14StrInStrNoCaseENS_9StringRefES0_
libbcc.so.0:_ZN4llvm14StripDebugInfoERNS_6ModuleE
libbcc.so.0:_ZN4llvm14SymbolRewriter16RewriteMapParser10parseEntryERNS_4yaml6StreamERNS2_12KeyValueNodeEPNSt7__cxx114listISt10unique_ptrINS0_17RewriteDescriptorESt14default_deleteISA_EESaISD_EEE
libbcc.so.0:_ZN4llvm14SymbolRewriter16RewriteMapParser30parseRewriteFunctionDescriptorERNS_4yaml6StreamEPNS2_10ScalarNodeEPNS2_11MappingNodeEPNSt7__cxx114listISt10unique_ptrINS0_17RewriteDescriptorESt14default_deleteISC_EESaISF_EEE
libbcc.so.0:_ZN4llvm14SymbolRewriter16RewriteMapParser33parseRewriteGlobalAliasDescriptorERNS_4yaml6StreamEPNS2_10ScalarNodeEPNS2_11MappingNodeEPNSt7__cxx114listISt10unique_ptrINS0_17RewriteDescriptorESt14default_deleteISC_EESaISF_EEE
libbcc.so.0:_ZN4llvm14SymbolRewriter16RewriteMapParser36parseRewriteGlobalVariableDescriptorERNS_4yaml6StreamEPNS2_10ScalarNodeEPNS2_11MappingNodeEPNSt7__cxx114listISt10unique_ptrINS0_17RewriteDescriptorESt14default_deleteISC_EESaISF_EEE
libbcc.so.0:_ZN4llvm14SymbolRewriter16RewriteMapParser5parseERKNSt7__cxx1112basic_stringIcSt11char_traitsIcESaIcEEEPNS2_4listISt10unique_ptrINS0_17RewriteDescriptorESt14default_deleteISC_EESaISF_EEE
libbcc.so.0:_ZN4llvm14SymbolRewriter16RewriteMapParser5parseERSt10unique_ptrINS_12MemoryBufferESt14default_deleteIS3_EEPNSt7__cxx114listIS2_INS0_17RewriteDescriptorES4_ISA_EESaISC_EEE
libbcc.so.0:_ZN4llvm14TailDuplicator10isSimpleBBEPNS_17MachineBasicBlockE
libbcc.so.0:_ZN4llvm14TailDuplicator10processPHIEPNS_12MachineInstrEPNS_17MachineBasicBlockES4_RNS_8DenseMapINS_8RegisterENS_15TargetInstrInfo13RegSubRegPairENS_12DenseMapInfoIS6_vEENS_6detail12DenseMapPairIS6_S8_EEEERNS_15SmallVectorImplISt4pairIS6_S8_EEERKNS_8DenseSetIS6_SA_EEb
libbcc.so.0:_ZN4llvm14TailDuplicator12appendCopiesEPNS_17MachineBasicBlockERNS_15SmallVectorImplISt4pairINS_8RegisterENS_15TargetInstrInfo13RegSubRegPairEEEERNS3_IPNS_12MachineInstrEEE
libbcc.so.0:_ZN4llvm14TailDuplicator13tailDuplicateEbPNS_17MachineBasicBlockES2_RNS_15SmallVectorImplIS2_EERNS3_IPNS_12MachineInstrEEEPS4_
libbcc.so.0:_ZN4llvm14TailDuplicator15removeDeadBlockEPNS_17MachineBasicBlockEPNS_12function_refIFvS2_EEE
libbcc.so.0:_ZN4llvm14TailDuplicator16canTailDuplicateEPNS_17MachineBasicBlockES2_
libbcc.so.0:_ZN4llvm14TailDuplicator17addSSAUpdateEntryENS_8RegisterES1_PNS_17MachineBasicBlockE
libbcc.so.0:_ZN4llvm14TailDuplicator17duplicateSimpleBBEPNS_17MachineBasicBlockERNS_15SmallVectorImplIS2_EERKNS_8DenseSetINS_8RegisterENS_12DenseMapInfoIS7_vEEEERNS3_IPNS_12MachineInstrEEE
libbcc.so.0:_ZN4llvm14TailDuplicator19shouldTailDuplicateEbRNS_17MachineBasicBlockE
libbcc.so.0:_ZN4llvm14TailDuplicator19tailDuplicateBlocksEv
libbcc.so.0:_ZN4llvm14TailDuplicator20duplicateInstructionEPNS_12MachineInstrEPNS_17MachineBasicBlockES4_RNS_8DenseMapINS_8RegisterENS_15TargetInstrInfo13RegSubRegPairENS_12DenseMapInfoIS6_vEENS_6detail12DenseMapPairIS6_S8_EEEERKNS_8DenseSetIS6_SA_EE
libbcc.so.0:_ZN4llvm14TailDuplicator20updateSuccessorsPHIsEPNS_17MachineBasicBlockEbRNS_15SmallVectorImplIS2_EERNS_14SmallSetVectorIS2_Lj8EEE
libbcc.so.0:_ZN4llvm14TailDuplicator22tailDuplicateAndUpdateEbPNS_17MachineBasicBlockES2_PNS_15SmallVectorImplIS2_EEPNS_12function_refIFvS2_EEES5_
libbcc.so.0:_ZN4llvm14TailDuplicator24canCompletelyDuplicateBBERNS_17MachineBasicBlockE
libbcc.so.0:_ZN4llvm14TailDuplicator6initMFERNS_15MachineFunctionEbPKNS_28MachineBranchProbabilityInfoEPNS_11MBFIWrapperEPNS_18ProfileSummaryInfoEbj
libbcc.so.0:_ZN4llvm14TargetLowering15DAGCombinerInfo13AddToWorklistEPNS_6SDNodeE
libbcc.so.0:_ZN4llvm14TargetLowering15DAGCombinerInfo23CommitTargetLoweringOptERKNS0_17TargetLoweringOptE
libbcc.so.0:_ZN4llvm14TargetLowering15DAGCombinerInfo28recursivelyDeleteUnusedNodesEPNS_6SDNodeE
libbcc.so.0:_ZN4llvm14TargetLowering15DAGCombinerInfo9CombineToEPNS_6SDNodeENS_7SDValueES4_b
libbcc.so.0:_ZN4llvm14TargetLowering15DAGCombinerInfo9CombineToEPNS_6SDNodeENS_7SDValueEb
libbcc.so.0:_ZN4llvm14TargetLowering15DAGCombinerInfo9CombineToEPNS_6SDNodeENS_8ArrayRefINS_7SDValueEEEb
libbcc.so.0:_ZN4llvm14TargetLoweringC1ERKNS_13TargetMachineE
libbcc.so.0:_ZN4llvm14TargetLoweringC2ERKNS_13TargetMachineE
libbcc.so.0:_ZN4llvm14TargetRegistry12lookupTargetERKNSt7__cxx1112basic_stringIcSt11char_traitsIcESaIcEEERNS_6TripleERS6_
libbcc.so.0:_ZN4llvm14TargetRegistry12lookupTargetERKNSt7__cxx1112basic_stringIcSt11char_traitsIcESaIcEEERS6_
libbcc.so.0:_ZN4llvm14TargetRegistry14RegisterTargetERNS_6TargetEPKcS4_S4_PFbNS_6Triple8ArchTypeEEb
libbcc.so.0:_ZN4llvm14TargetRegistry32printRegisteredTargetsForVersionERNS_11raw_ostreamE
libbcc.so.0:_ZN4llvm14TargetRegistry7targetsEv
libbcc.so.0:_ZN4llvm14ToolOutputFile16CleanupInstallerC1ENS_9StringRefE
libbcc.so.0:_ZN4llvm14ToolOutputFile16CleanupInstallerC2ENS_9StringRefE
libbcc.so.0:_ZN4llvm14ToolOutputFile16CleanupInstallerD1Ev
libbcc.so.0:_ZN4llvm14ToolOutputFile16CleanupInstallerD2Ev
libbcc.so.0:_ZN4llvm14ToolOutputFileC1ENS_9StringRefERSt10error_codeNS_3sys2fs9OpenFlagsE
libbcc.so.0:_ZN4llvm14ToolOutputFileC1ENS_9StringRefEi
libbcc.so.0:_ZN4llvm14ToolOutputFileC2ENS_9StringRefERSt10error_codeNS_3sys2fs9OpenFlagsE
libbcc.so.0:_ZN4llvm14ToolOutputFileC2ENS_9StringRefEi
libbcc.so.0:_ZN4llvm14VPCmpIntrinsic7isVPCmpEj
libbcc.so.0:_ZN4llvm14VirtRegAuxInfo16weightCalcHelperERNS_12LiveIntervalEPNS_9SlotIndexES4_
libbcc.so.0:_ZN4llvm14VirtRegAuxInfo18isRematerializableERKNS_12LiveIntervalERKNS_13LiveIntervalsERKNS_10VirtRegMapERKNS_15TargetInstrInfoE
libbcc.so.0:_ZN4llvm14VirtRegAuxInfo24isLiveAtStatepointVarArgERNS_12LiveIntervalE
libbcc.so.0:_ZN4llvm14VirtRegAuxInfo27calculateSpillWeightAndHintERNS_12LiveIntervalE
libbcc.so.0:_ZN4llvm14VirtRegAuxInfo29calculateSpillWeightsAndHintsEv
libbcc.so.0:_ZN4llvm14VirtRegAuxInfo8copyHintEPKNS_12MachineInstrEjRKNS_18TargetRegisterInfoERKNS_19MachineRegisterInfoE
libbcc.so.0:_ZN4llvm14addAssumptionsERNS_8CallBaseERKNS_8DenseSetINS_9StringRefENS_12DenseMapInfoIS3_vEEEE
libbcc.so.0:_ZN4llvm14addAssumptionsERNS_8FunctionERKNS_8DenseSetINS_9StringRefENS_12DenseMapInfoIS3_vEEEE
libbcc.so.0:_ZN4llvm14buffer_ostream6anchorEv
libbcc.so.0:_ZN4llvm14checkForCyclesEPKNS_12SelectionDAGEb
libbcc.so.0:_ZN4llvm14checkForCyclesEPKNS_6SDNodeEPKNS_12SelectionDAGEb
libbcc.so.0:_ZN4llvm14computeLiveInsERNS_12LivePhysRegsERKNS_17MachineBasicBlockE
libbcc.so.0:_ZN4llvm14createCFIFixupEv
libbcc.so.0:_ZN4llvm14createLICMPassEjjb
libbcc.so.0:_ZN4llvm14createLICMPassEv
libbcc.so.0:_ZN4llvm14createMinMaxOpERNS_13IRBuilderBaseENS_9RecurKindEPNS_5ValueES4_
libbcc.so.0:_ZN4llvm14createSCCPPassEv
libbcc.so.0:_ZN4llvm14createSROAPassEv
libbcc.so.0:_ZN4llvm14deleteConstantEPNS_8ConstantE
libbcc.so.0:_ZN4llvm14deleteDeadLoopEPNS_4LoopEPNS_13DominatorTreeEPNS_15ScalarEvolutionEPNS_8LoopInfoEPNS_9MemorySSAE
libbcc.so.0:_ZN4llvm14dropDebugUsersERNS_11InstructionE
libbcc.so.0:_ZN4llvm14finalizeBundleERNS_17MachineBasicBlockENS_14ilist_iteratorINS_12ilist_detail12node_optionsINS_12MachineInstrELb1ELb1EvEELb0ELb0EEE
libbcc.so.0:_ZN4llvm14finalizeBundleERNS_17MachineBasicBlockENS_14ilist_iteratorINS_12ilist_detail12node_optionsINS_12MachineInstrELb1ELb1EvEELb0ELb0EEES7_
libbcc.so.0:_ZN4llvm14getAssumptionsERKNS_8CallBaseE
libbcc.so.0:_ZN4llvm14getAssumptionsERKNS_8FunctionE
libbcc.so.0:_ZN4llvm14getICmpTrueValERKNS_14TargetLoweringEbb
libbcc.so.0:_ZN4llvm14getMinMaxLimitENS_19SelectPatternFlavorEj
libbcc.so.0:_ZN4llvm14getOptBisectorEv
libbcc.so.0:_ZN4llvm14getPGOFuncNameB5cxx11ENS_9StringRefENS_11GlobalValue12LinkageTypesES0_m
libbcc.so.0:_ZN4llvm14getPGOFuncNameB5cxx11ERKNS_8FunctionEbm
libbcc.so.0:_ZN4llvm14getRandomBytesEPvm
libbcc.so.0:_ZN4llvm14getSLEB128SizeEl
libbcc.so.0:_ZN4llvm14getULEB128SizeEm
libbcc.so.0:_ZN4llvm14getVectorSplatERKNS_12MachineInstrERKNS_19MachineRegisterInfoE
libbcc.so.0:_ZN4llvm14identify_magicENS_9StringRefE
libbcc.so.0:_ZN4llvm14identify_magicERKNS_5TwineERNS_10file_magicE
libbcc.so.0:_ZN4llvm14isAllocationFnEPKNS_5ValueENS_12function_refIFRKNS_17TargetLibraryInfoERNS_8FunctionEEEE
libbcc.so.0:_ZN4llvm14isAllocationFnEPKNS_5ValueEPKNS_17TargetLibraryInfoE
libbcc.so.0:_ZN4llvm14isConstTrueValERKNS_14TargetLoweringElbb
libbcc.so.0:_ZN4llvm14isCriticalEdgeEPKNS_11InstructionEPKNS_10BasicBlockEb
libbcc.so.0:_ZN4llvm14isCriticalEdgeEPKNS_11InstructionEjb
libbcc.so.0:_ZN4llvm14isEscapeSourceEPKNS_5ValueE
libbcc.so.0:_ZN4llvm14isIRPGOFlagSetEPKNS_6ModuleE
libbcc.so.0:_ZN4llvm14isInlineViableERNS_8FunctionE
libbcc.so.0:_ZN4llvm14isKnownNonZeroEPKNS_5ValueERKNS_10DataLayoutEjPNS_15AssumptionCacheEPKNS_11InstructionEPKNS_13DominatorTreeEb
libbcc.so.0:_ZN4llvm14isMustProgressEPKNS_4LoopE
libbcc.so.0:_ZN4llvm14isNullConstantENS_7SDValueE
libbcc.so.0:_ZN4llvm14lowertypetests13BitSetBuilder5buildEv
libbcc.so.0:_ZN4llvm14lowertypetests16ByteArrayBuilder8allocateERKSt3setImSt4lessImESaImEEmRmRh
libbcc.so.0:_ZN4llvm14lowertypetests19GlobalLayoutBuilder11addFragmentERKSt3setImSt4lessImESaImEE
libbcc.so.0:_ZN4llvm14lowertypetests20isJumpTableCanonicalEPNS_8FunctionE
libbcc.so.0:_ZN4llvm14printLowerCaseENS_9StringRefERNS_11raw_ostreamE
libbcc.so.0:_ZN4llvm14raw_fd_ostream10tryLockForERKNS_8DurationE
libbcc.so.0:_ZN4llvm14raw_fd_ostream10write_implEPKcm
libbcc.so.0:_ZN4llvm14raw_fd_ostream11pwrite_implEPKcmm
libbcc.so.0:_ZN4llvm14raw_fd_ostream4lockEv
libbcc.so.0:_ZN4llvm14raw_fd_ostream4seekEm
libbcc.so.0:_ZN4llvm14raw_fd_ostream5closeEv
libbcc.so.0:_ZN4llvm14raw_fd_ostream6anchorEv
libbcc.so.0:_ZN4llvm14raw_fd_ostreamC1ENS_9StringRefERSt10error_code
libbcc.so.0:_ZN4llvm14raw_fd_ostreamC1ENS_9StringRefERSt10error_codeNS_3sys2fs10FileAccessE
libbcc.so.0:_ZN4llvm14raw_fd_ostreamC1ENS_9StringRefERSt10error_codeNS_3sys2fs19CreationDispositionE
libbcc.so.0:_ZN4llvm14raw_fd_ostreamC1ENS_9StringRefERSt10error_codeNS_3sys2fs19CreationDispositionENS5_10FileAccessENS5_9OpenFlagsE
libbcc.so.0:_ZN4llvm14raw_fd_ostreamC1ENS_9StringRefERSt10error_codeNS_3sys2fs9OpenFlagsE
libbcc.so.0:_ZN4llvm14raw_fd_ostreamC1EibbNS_11raw_ostream11OStreamKindE
libbcc.so.0:_ZN4llvm14raw_fd_ostreamC2ENS_9StringRefERSt10error_code
libbcc.so.0:_ZN4llvm14raw_fd_ostreamC2ENS_9StringRefERSt10error_codeNS_3sys2fs10FileAccessE
libbcc.so.0:_ZN4llvm14raw_fd_ostreamC2ENS_9StringRefERSt10error_codeNS_3sys2fs19CreationDispositionE
libbcc.so.0:_ZN4llvm14raw_fd_ostreamC2ENS_9StringRefERSt10error_codeNS_3sys2fs19CreationDispositionENS5_10FileAccessENS5_9OpenFlagsE
libbcc.so.0:_ZN4llvm14raw_fd_ostreamC2ENS_9StringRefERSt10error_codeNS_3sys2fs9OpenFlagsE
libbcc.so.0:_ZN4llvm14raw_fd_ostreamC2EibbNS_11raw_ostream11OStreamKindE
libbcc.so.0:_ZN4llvm14raw_fd_ostreamD0Ev
libbcc.so.0:_ZN4llvm14raw_fd_ostreamD1Ev
libbcc.so.0:_ZN4llvm14raw_fd_ostreamD2Ev
libbcc.so.0:_ZN4llvm14sampleprofutil13callsiteIsHotEPKNS_10sampleprof15FunctionSamplesEPNS_18ProfileSummaryInfoEb
libbcc.so.0:_ZN4llvm14sampleprofutil21SampleCoverageTracker15markSamplesUsedEPKNS_10sampleprof15FunctionSamplesEjjm
libbcc.so.0:_ZN4llvm14sampleprofutil29createFSDiscriminatorVariableEPNS_6ModuleE
libbcc.so.0:_ZN4llvm14simplifyOrInstEPNS_5ValueES1_RKNS_13SimplifyQueryE
libbcc.so.0:_ZN4llvm14stripDebugInfoERNS_8FunctionE
libbcc.so.0:_ZN4llvm14tryPromoteCallERNS_8CallBaseE
libbcc.so.0:_ZN4llvm14updatePhiNodesEPNS_10BasicBlockES1_S1_PNS_7PHINodeE
libbcc.so.0:_ZN4llvm14verifyFunctionERKNS_8FunctionEPNS_11raw_ostreamE
libbcc.so.0:_ZN4llvm15AAValueSimplify17createForPositionERKNS_10IRPositionERNS_10AttributorE
libbcc.so.0:_ZN4llvm15AliasSetTracker10addPointerENS_14MemoryLocationENS_8AliasSet13AccessLatticeE
libbcc.so.0:_ZN4llvm15AliasSetTracker10addUnknownEPNS_11InstructionE
libbcc.so.0:_ZN4llvm15AliasSetTracker11deleteValueEPNS_5ValueE
libbcc.so.0:_ZN4llvm15AliasSetTracker13ASTCallbackVH19allUsesReplacedWithEPNS_5ValueE
libbcc.so.0:_ZN4llvm15AliasSetTracker13ASTCallbackVH7deletedEv
libbcc.so.0:_ZN4llvm15AliasSetTracker13ASTCallbackVHC1EPNS_5ValueEPS0_
libbcc.so.0:_ZN4llvm15AliasSetTracker13ASTCallbackVHC2EPNS_5ValueEPS0_
libbcc.so.0:_ZN4llvm15AliasSetTracker13ASTCallbackVHaSEPNS_5ValueE
libbcc.so.0:_ZN4llvm15AliasSetTracker14getAliasSetForERKNS_14MemoryLocationE
libbcc.so.0:_ZN4llvm15AliasSetTracker14removeAliasSetEPNS_8AliasSetE
libbcc.so.0:_ZN4llvm15AliasSetTracker17mergeAllAliasSetsEv
libbcc.so.0:_ZN4llvm15AliasSetTracker24mergeAliasSetsForPointerEPKNS_5ValueENS_12LocationSizeERKNS_9AAMDNodesERb
libbcc.so.0:_ZN4llvm15AliasSetTracker26findAliasSetForUnknownInstEPNS_11InstructionE
libbcc.so.0:_ZN4llvm15AliasSetTracker3addEPNS_11InstructionE
libbcc.so.0:_ZN4llvm15AliasSetTracker3addEPNS_13AnyMemSetInstE
libbcc.so.0:_ZN4llvm15AliasSetTracker3addEPNS_18AnyMemTransferInstE
libbcc.so.0:_ZN4llvm15AliasSetTracker3addEPNS_5ValueENS_12LocationSizeERKNS_9AAMDNodesE
libbcc.so.0:_ZN4llvm15AliasSetTracker3addEPNS_8LoadInstE
libbcc.so.0:_ZN4llvm15AliasSetTracker3addEPNS_9StoreInstE
libbcc.so.0:_ZN4llvm15AliasSetTracker3addEPNS_9VAArgInstE
libbcc.so.0:_ZN4llvm15AliasSetTracker3addERKS0_
libbcc.so.0:_ZN4llvm15AliasSetTracker3addERNS_10BasicBlockE
libbcc.so.0:_ZN4llvm15AliasSetTracker5clearEv
libbcc.so.0:_ZN4llvm15AliasSetTracker9copyValueEPNS_5ValueES2_
libbcc.so.0:_ZN4llvm15AssumptionCache12scanFunctionEv
libbcc.so.0:_ZN4llvm15AssumptionCache18registerAssumptionEPNS_10AssumeInstE
libbcc.so.0:_ZN4llvm15AssumptionCache20unregisterAssumptionEPNS_10AssumeInstE
libbcc.so.0:_ZN4llvm15AssumptionCache20updateAffectedValuesEPNS_10AssumeInstE
libbcc.so.0:_ZN4llvm15AssumptionCache23AffectedValueCallbackVH19allUsesReplacedWithEPNS_5ValueE
libbcc.so.0:_ZN4llvm15AssumptionCache23AffectedValueCallbackVH7deletedEv
libbcc.so.0:_ZN4llvm15AssumptionCache25getOrInsertAffectedValuesEPNS_5ValueE
libbcc.so.0:_ZN4llvm15AssumptionCache29transferAffectedValuesInCacheEPNS_5ValueES2_
libbcc.so.0:_ZN4llvm15BaseIndexOffset15computeAliasingEPKNS_6SDNodeENS_8OptionalIlEES3_S5_RKNS_12SelectionDAGERb
libbcc.so.0:_ZN4llvm15BaseIndexOffset5matchEPKNS_6SDNodeERKNS_12SelectionDAGE
libbcc.so.0:_ZN4llvm15BinaryStreamRefC1ENS_8ArrayRefIhEENS_7support10endiannessE
libbcc.so.0:_ZN4llvm15BinaryStreamRefC1ENS_9StringRefENS_7support10endiannessE
libbcc.so.0:_ZN4llvm15BinaryStreamRefC1ERNS_12BinaryStreamE
libbcc.so.0:_ZN4llvm15BinaryStreamRefC1ERNS_12BinaryStreamEmNS_8OptionalImEE
libbcc.so.0:_ZN4llvm15BinaryStreamRefC2ENS_8ArrayRefIhEENS_7support10endiannessE
libbcc.so.0:_ZN4llvm15BinaryStreamRefC2ENS_9StringRefENS_7support10endiannessE
libbcc.so.0:_ZN4llvm15BinaryStreamRefC2ERNS_12BinaryStreamE
libbcc.so.0:_ZN4llvm15BinaryStreamRefC2ERNS_12BinaryStreamEmNS_8OptionalImEE
libbcc.so.0:_ZN4llvm15BitstreamCursor10readRecordEjRNS_15SmallVectorImplImEEPNS_9StringRefE
libbcc.so.0:_ZN4llvm15BitstreamCursor10skipRecordEj
libbcc.so.0:_ZN4llvm15BitstreamCursor13EnterSubBlockEjPj
libbcc.so.0:_ZN4llvm15BitstreamCursor16ReadAbbrevRecordEv
libbcc.so.0:_ZN4llvm15BitstreamCursor18ReadBlockInfoBlockEb
libbcc.so.0:_ZN4llvm15CatchReturnInst4initEPNS_5ValueEPNS_10BasicBlockE
libbcc.so.0:_ZN4llvm15CatchReturnInstC1EPNS_5ValueEPNS_10BasicBlockEPNS_11InstructionE
libbcc.so.0:_ZN4llvm15CatchReturnInstC1EPNS_5ValueEPNS_10BasicBlockES4_
libbcc.so.0:_ZN4llvm15CatchReturnInstC1ERKS0_
libbcc.so.0:_ZN4llvm15CatchReturnInstC2EPNS_5ValueEPNS_10BasicBlockEPNS_11InstructionE
libbcc.so.0:_ZN4llvm15CatchReturnInstC2EPNS_5ValueEPNS_10BasicBlockES4_
libbcc.so.0:_ZN4llvm15CatchReturnInstC2ERKS0_
libbcc.so.0:_ZN4llvm15CatchSwitchInst10addHandlerEPNS_10BasicBlockE
libbcc.so.0:_ZN4llvm15CatchSwitchInst12growOperandsEj
libbcc.so.0:_ZN4llvm15CatchSwitchInst13removeHandlerENS_15mapped_iteratorIPNS_3UseEPFPNS_10BasicBlockEPNS_5ValueEES5_EE
libbcc.so.0:_ZN4llvm15CatchSwitchInst4initEPNS_5ValueEPNS_10BasicBlockEj
libbcc.so.0:_ZN4llvm15CatchSwitchInstC1EPNS_5ValueEPNS_10BasicBlockEjRKNS_5TwineEPNS_11InstructionE
libbcc.so.0:_ZN4llvm15CatchSwitchInstC1EPNS_5ValueEPNS_10BasicBlockEjRKNS_5TwineES4_
libbcc.so.0:_ZN4llvm15CatchSwitchInstC1ERKS0_
libbcc.so.0:_ZN4llvm15CatchSwitchInstC2EPNS_5ValueEPNS_10BasicBlockEjRKNS_5TwineEPNS_11InstructionE
libbcc.so.0:_ZN4llvm15CatchSwitchInstC2EPNS_5ValueEPNS_10BasicBlockEjRKNS_5TwineES4_
libbcc.so.0:_ZN4llvm15CatchSwitchInstC2ERKS0_
libbcc.so.0:_ZN4llvm15CloneBasicBlockEPKNS_10BasicBlockERNS_8ValueMapIPKNS_5ValueENS_14WeakTrackingVHENS_14ValueMapConfigIS6_NS_3sys10SmartMutexILb0EEEEEEERKNS_5TwineEPNS_8FunctionEPNS_14ClonedCodeInfoEPNS_15DebugInfoFinderE
libbcc.so.0:_ZN4llvm15CodeGenCoverage10setCoveredEm
libbcc.so.0:_ZN4llvm15CodeGenCoverage5parseERNS_12MemoryBufferENS_9StringRefE
libbcc.so.0:_ZN4llvm15CodeGenCoverage5resetEv
libbcc.so.0:_ZN4llvm15CodeGenCoverageC1Ev
libbcc.so.0:_ZN4llvm15CodeGenCoverageC2Ev
libbcc.so.0:_ZN4llvm15CodeViewContext11recordCVLocERNS_9MCContextEPKNS_8MCSymbolEjjjjbb
libbcc.so.0:_ZN4llvm15CodeViewContext12addLineEntryERKNS_7MCCVLocE
libbcc.so.0:_ZN4llvm15CodeViewContext12emitDefRangeERNS_16MCObjectStreamerENS_8ArrayRefISt4pairIPKNS_8MCSymbolES7_EEENS_9StringRefE
libbcc.so.0:_ZN4llvm15CodeViewContext13getLineExtentEj
libbcc.so.0:_ZN4llvm15CodeViewContext14encodeDefRangeERNS_11MCAsmLayoutERNS_20MCCVDefRangeFragmentE
libbcc.so.0:_ZN4llvm15CodeViewContext15emitStringTableERNS_16MCObjectStreamerE
libbcc.so.0:_ZN4llvm15CodeViewContext16addToStringTableENS_9StringRefE
libbcc.so.0:_ZN4llvm15CodeViewContext16recordFunctionIdEj
libbcc.so.0:_ZN4llvm15CodeViewContext17emitFileChecksumsERNS_16MCObjectStreamerE
libbcc.so.0:_ZN4llvm15CodeViewContext17getCVFunctionInfoEj
libbcc.so.0:_ZN4llvm15CodeViewContext17getLinesForExtentEmm
libbcc.so.0:_ZN4llvm15CodeViewContext20getStringTableOffsetENS_9StringRefE
libbcc.so.0:_ZN4llvm15CodeViewContext21encodeInlineLineTableERNS_11MCAsmLayoutERNS_27MCCVInlineLineTableFragmentE
libbcc.so.0:_ZN4llvm15CodeViewContext22emitFileChecksumOffsetERNS_16MCObjectStreamerEj
libbcc.so.0:_ZN4llvm15CodeViewContext22getFunctionLineEntriesEj
libbcc.so.0:_ZN4llvm15CodeViewContext22getStringTableFragmentEv
libbcc.so.0:_ZN4llvm15CodeViewContext23recordInlinedCallSiteIdEjjjjj
libbcc.so.0:_ZN4llvm15CodeViewContext24emitLineTableForFunctionERNS_16MCObjectStreamerEjPKNS_8MCSymbolES5_
libbcc.so.0:_ZN4llvm15CodeViewContext30emitInlineLineTableForFunctionERNS_16MCObjectStreamerEjjjPKNS_8MCSymbolES5_
libbcc.so.0:_ZN4llvm15CodeViewContext7addFileERNS_10MCStreamerEjNS_9StringRefENS_8ArrayRefIhEEh
libbcc.so.0:_ZN4llvm15CodeViewContextC1Ev
libbcc.so.0:_ZN4llvm15CodeViewContextC2Ev
libbcc.so.0:_ZN4llvm15CodeViewContextD1Ev
libbcc.so.0:_ZN4llvm15CodeViewContextD2Ev
libbcc.so.0:_ZN4llvm15ComputeValueVTsERKNS_14TargetLoweringERKNS_10DataLayoutEPNS_4TypeERNS_15SmallVectorImplINS_3EVTEEEPNS8_ImEEm
libbcc.so.0:_ZN4llvm15ComputeValueVTsERKNS_14TargetLoweringERKNS_10DataLayoutEPNS_4TypeERNS_15SmallVectorImplINS_3EVTEEEPSA_PNS8_ImEEm
libbcc.so.0:_ZN4llvm15ContextTrieNode14setCallSiteLocERKNS_10sampleprof12LineLocationE
libbcc.so.0:_ZN4llvm15ContextTrieNode15addFunctionSizeEj
libbcc.so.0:_ZN4llvm15ContextTrieNode15getChildContextERKNS_10sampleprof12LineLocationENS_9StringRefE
libbcc.so.0:_ZN4llvm15ContextTrieNode16setParentContextEPS0_
libbcc.so.0:_ZN4llvm15ContextTrieNode18getAllChildContextEv
libbcc.so.0:_ZN4llvm15ContextTrieNode18removeChildContextERKNS_10sampleprof12LineLocationENS_9StringRefE
libbcc.so.0:_ZN4llvm15ContextTrieNode18setFunctionSamplesEPNS_10sampleprof15FunctionSamplesE
libbcc.so.0:_ZN4llvm15ContextTrieNode22getHottestChildContextERKNS_10sampleprof12LineLocationE
libbcc.so.0:_ZN4llvm15ContextTrieNode23getOrCreateChildContextERKNS_10sampleprof12LineLocationENS_9StringRefEb
libbcc.so.0:_ZN4llvm15ContextTrieNode8dumpNodeEv
libbcc.so.0:_ZN4llvm15ContextTrieNode8dumpTreeEv
libbcc.so.0:_ZN4llvm15CrossDSOCFIPass3runERNS_6ModuleERNS_15AnalysisManagerIS1_JEEE
libbcc.so.0:_ZN4llvm15DICompositeType10getODRTypeERNS_11LLVMContextERNS_8MDStringEjPS3_PNS_8MetadataEjS7_S7_mjmNS_6DINode7DIFlagsES7_jS7_S7_S7_S7_S7_S7_S7_S7_
libbcc.so.0:_ZN4llvm15DICompositeType12buildODRTypeERNS_11LLVMContextERNS_8MDStringEjPS3_PNS_8MetadataEjS7_S7_mjmNS_6DINode7DIFlagsES7_jS7_S7_S7_S7_S7_S7_S7_S7_
libbcc.so.0:_ZN4llvm15DICompositeType18getODRTypeIfExistsERNS_11LLVMContextERNS_8MDStringE
libbcc.so.0:_ZN4llvm15DICompositeType7getImplERNS_11LLVMContextEjPNS_8MDStringEPNS_8MetadataEjS6_S6_mjmNS_6DINode7DIFlagsES6_jS6_S6_S4_S6_S6_S6_S6_S6_S6_NS5_11StorageTypeEb
libbcc.so.0:_ZN4llvm15DILocalVariable7getImplERNS_11LLVMContextEPNS_8MetadataEPNS_8MDStringES4_jS4_jNS_6DINode7DIFlagsEjS4_NS3_11StorageTypeEb
libbcc.so.0:_ZN4llvm15DebugInfoFinder11processTypeEPNS_6DITypeE
libbcc.so.0:_ZN4llvm15DebugInfoFinder12processScopeEPNS_7DIScopeE
libbcc.so.0:_ZN4llvm15DebugInfoFinder13addSubprogramEPNS_12DISubprogramE
libbcc.so.0:_ZN4llvm15DebugInfoFinder13processModuleERKNS_6ModuleE
libbcc.so.0:_ZN4llvm15DebugInfoFinder14addCompileUnitEPNS_13DICompileUnitE
libbcc.so.0:_ZN4llvm15DebugInfoFinder15processLocationERKNS_6ModuleEPKNS_10DILocationE
libbcc.so.0:_ZN4llvm15DebugInfoFinder15processVariableERKNS_6ModuleERKNS_20DbgVariableIntrinsicE
libbcc.so.0:_ZN4llvm15DebugInfoFinder17addGlobalVariableEPNS_26DIGlobalVariableExpressionE
libbcc.so.0:_ZN4llvm15DebugInfoFinder17processSubprogramEPNS_12DISubprogramE
libbcc.so.0:_ZN4llvm15DebugInfoFinder18processCompileUnitEPNS_13DICompileUnitE
libbcc.so.0:_ZN4llvm15DebugInfoFinder18processInstructionERKNS_6ModuleERKNS_11InstructionE
libbcc.so.0:_ZN4llvm15DebugInfoFinder5resetEv
libbcc.so.0:_ZN4llvm15DebugInfoFinder7addTypeEPNS_6DITypeE
libbcc.so.0:_ZN4llvm15DebugInfoFinder8addScopeEPNS_7DIScopeE
libbcc.so.0:_ZN4llvm15DeleteDeadBlockEPNS_10BasicBlockEPNS_14DomTreeUpdaterEb
libbcc.so.0:_ZN4llvm15DivRemPairsPass3runERNS_8FunctionERNS_15AnalysisManagerIS1_JEEE
libbcc.so.0:_ZN4llvm15DwarfExpression10addOpPieceEjj
libbcc.so.0:_ZN4llvm15DwarfExpression10emitConstuEm
libbcc.so.0:_ZN4llvm15DwarfExpression11setLocationERKNS_15MachineLocationEPKNS_12DIExpressionE
libbcc.so.0:_ZN4llvm15DwarfExpression13addConstantFPERKNS_7APFloatERKNS_10AsmPrinterE
libbcc.so.0:_ZN4llvm15DwarfExpression13addExpressionEONS_18DIExpressionCursorE
libbcc.so.0:_ZN4llvm15DwarfExpression13addExpressionEONS_18DIExpressionCursorENS_12function_refIFbjRS1_EEE
libbcc.so.0:_ZN4llvm15DwarfExpression13addMachineRegERKNS_18TargetRegisterInfoENS_8RegisterEj
libbcc.so.0:_ZN4llvm15DwarfExpression13addStackValueEv
libbcc.so.0:_ZN4llvm15DwarfExpression14emitLegacySExtEj
libbcc.so.0:_ZN4llvm15DwarfExpression14emitLegacyZExtEj
libbcc.so.0:_ZN4llvm15DwarfExpression15addWasmLocationEjm
libbcc.so.0:_ZN4llvm15DwarfExpression15maskSubRegisterEv
libbcc.so.0:_ZN4llvm15DwarfExpression16cancelEntryValueEv
libbcc.so.0:_ZN4llvm15DwarfExpression17addFragmentOffsetEPKNS_12DIExpressionE
libbcc.so.0:_ZN4llvm15DwarfExpression17addSignedConstantEl
libbcc.so.0:_ZN4llvm15DwarfExpression18finalizeEntryValueEv
libbcc.so.0:_ZN4llvm15DwarfExpression18setEntryValueFlagsERKNS_15MachineLocationE
libbcc.so.0:_ZN4llvm15DwarfExpression19addUnsignedConstantERKNS_5APIntE
libbcc.so.0:_ZN4llvm15DwarfExpression19addUnsignedConstantEm
libbcc.so.0:_ZN4llvm15DwarfExpression19getOrCreateBaseTypeEjNS_5dwarf8TypeKindE
libbcc.so.0:_ZN4llvm15DwarfExpression23addMachineRegExpressionERKNS_18TargetRegisterInfoERNS_18DIExpressionCursorENS_8RegisterEj
libbcc.so.0:_ZN4llvm15DwarfExpression25beginEntryValueExpressionERNS_18DIExpressionCursorE
libbcc.so.0:_ZN4llvm15DwarfExpression6addAndEj
libbcc.so.0:_ZN4llvm15DwarfExpression6addRegEiPKc
libbcc.so.0:_ZN4llvm15DwarfExpression6addShrEj
libbcc.so.0:_ZN4llvm15DwarfExpression7addBRegEii
libbcc.so.0:_ZN4llvm15DwarfExpression8addFBRegEi
libbcc.so.0:_ZN4llvm15DwarfExpression8finalizeEv
libbcc.so.0:_ZN4llvm15DwarfStringPool12getEntryImplERNS_10AsmPrinterENS_9StringRefE
libbcc.so.0:_ZN4llvm15DwarfStringPool15getIndexedEntryERNS_10AsmPrinterENS_9StringRefE
libbcc.so.0:_ZN4llvm15DwarfStringPool28emitStringOffsetsTableHeaderERNS_10AsmPrinterEPNS_9MCSectionEPNS_8MCSymbolE
libbcc.so.0:_ZN4llvm15DwarfStringPool4emitERNS_10AsmPrinterEPNS_9MCSectionES4_b
libbcc.so.0:_ZN4llvm15DwarfStringPool8getEntryERNS_10AsmPrinterENS_9StringRefE
libbcc.so.0:_ZN4llvm15DwarfStringPoolC1ERNS_20BumpPtrAllocatorImplINS_15MallocAllocatorELm4096ELm4096ELm128EEERNS_10AsmPrinterENS_9StringRefE
libbcc.so.0:_ZN4llvm15DwarfStringPoolC2ERNS_20BumpPtrAllocatorImplINS_15MallocAllocatorELm4096ELm4096ELm128EEERNS_10AsmPrinterENS_9StringRefE
libbcc.so.0:_ZN4llvm15ExecutionEngine10addArchiveENS_6object12OwningBinaryINS1_7ArchiveEEE
libbcc.so.0:_ZN4llvm15ExecutionEngine11emitGlobalsEv
libbcc.so.0:_ZN4llvm15ExecutionEngine12removeModuleEPNS_6ModuleE
libbcc.so.0:_ZN4llvm15ExecutionEngine13addObjectFileENS_6object12OwningBinaryINS1_10ObjectFileEEE
libbcc.so.0:_ZN4llvm15ExecutionEngine13addObjectFileESt10unique_ptrINS_6object10ObjectFileESt14default_deleteIS3_EE
libbcc.so.0:_ZN4llvm15ExecutionEngine14getMangledNameB5cxx11EPKNS_11GlobalValueE
libbcc.so.0:_ZN4llvm15ExecutionEngine14getMemoryForGVEPKNS_14GlobalVariableE
libbcc.so.0:_ZN4llvm15ExecutionEngine16InitializeMemoryEPKNS_8ConstantEPv
libbcc.so.0:_ZN4llvm15ExecutionEngine16addGlobalMappingENS_9StringRefEm
libbcc.so.0:_ZN4llvm15ExecutionEngine16addGlobalMappingEPKNS_11GlobalValueEPv
libbcc.so.0:_ZN4llvm15ExecutionEngine16getConstantValueEPKNS_8ConstantE
libbcc.so.0:_ZN4llvm15ExecutionEngine17FindFunctionNamedENS_9StringRefE
libbcc.so.0:_ZN4llvm15ExecutionEngine17runFunctionAsMainEPNS_8FunctionERKSt6vectorINSt7__cxx1112basic_stringIcSt11char_traitsIcESaIcEEESaIS9_EEPKPKc
libbcc.so.0:_ZN4llvm15ExecutionEngine18StoreValueToMemoryERKNS_12GenericValueEPS1_PNS_4TypeE
libbcc.so.0:_ZN4llvm15ExecutionEngine18emitGlobalVariableEPKNS_14GlobalVariableE
libbcc.so.0:_ZN4llvm15ExecutionEngine18getPointerToGlobalEPKNS_11GlobalValueE
libbcc.so.0:_ZN4llvm15ExecutionEngine19LoadValueFromMemoryERNS_12GenericValueEPS1_PNS_4TypeE
libbcc.so.0:_ZN4llvm15ExecutionEngine19updateGlobalMappingENS_9StringRefEm
libbcc.so.0:_ZN4llvm15ExecutionEngine19updateGlobalMappingEPKNS_11GlobalValueEPv
libbcc.so.0:_ZN4llvm15ExecutionEngine22clearAllGlobalMappingsEv
libbcc.so.0:_ZN4llvm15ExecutionEngine23FindGlobalVariableNamedENS_9StringRefEb
libbcc.so.0:_ZN4llvm15ExecutionEngine23getGlobalValueAtAddressEPv
libbcc.so.0:_ZN4llvm15ExecutionEngine29clearGlobalMappingsFromModuleEPNS_6ModuleE
libbcc.so.0:_ZN4llvm15ExecutionEngine29getAddressToGlobalIfAvailableENS_9StringRefE
libbcc.so.0:_ZN4llvm15ExecutionEngine29getPointerToGlobalIfAvailableENS_9StringRefE
libbcc.so.0:_ZN4llvm15ExecutionEngine29getPointerToGlobalIfAvailableEPKNS_11GlobalValueE
libbcc.so.0:_ZN4llvm15ExecutionEngine32runStaticConstructorsDestructorsERNS_6ModuleEb
libbcc.so.0:_ZN4llvm15ExecutionEngine32runStaticConstructorsDestructorsEb
libbcc.so.0:_ZN4llvm15ExecutionEngine4InitESt10unique_ptrINS_6ModuleESt14default_deleteIS2_EE
libbcc.so.0:_ZN4llvm15ExecutionEngineC2ENS_10DataLayoutESt10unique_ptrINS_6ModuleESt14default_deleteIS3_EE
libbcc.so.0:_ZN4llvm15ExecutionEngineC2ESt10unique_ptrINS_6ModuleESt14default_deleteIS2_EE
libbcc.so.0:_ZN4llvm15ExecutionEngineD0Ev
libbcc.so.0:_ZN4llvm15ExecutionEngineD1Ev
libbcc.so.0:_ZN4llvm15ExecutionEngineD2Ev
libbcc.so.0:_ZN4llvm15ExtractTypeInfoEPNS_5ValueE
libbcc.so.0:_ZN4llvm15FindDbgAddrUsesEPNS_5ValueE
libbcc.so.0:_ZN4llvm15FixedVectorType3getEPNS_4TypeEj
libbcc.so.0:_ZN4llvm15FlushFPConstantEPNS_8ConstantEPKNS_11InstructionEb
libbcc.so.0:_ZN4llvm15GISelAddressing12instMayAliasERKNS_12MachineInstrES3_RNS_19MachineRegisterInfoEPNS_9AAResultsE
libbcc.so.0:_ZN4llvm15GISelAddressing14getPointerInfoENS_8RegisterERNS_19MachineRegisterInfoE
libbcc.so.0:_ZN4llvm15GISelAddressing24aliasIsKnownForLoadStoreERKNS_12MachineInstrES3_RbRNS_19MachineRegisterInfoE
libbcc.so.0:_ZN4llvm15GetStringLengthEPKNS_5ValueEj
libbcc.so.0:_ZN4llvm15GlobalSplitPass3runERNS_6ModuleERNS_15AnalysisManagerIS1_JEEE
libbcc.so.0:_ZN4llvm15GlobalsAAResult10invalidateERNS_6ModuleERKNS_17PreservedAnalysesERNS_15AnalysisManagerIS1_JEE11InvalidatorE
libbcc.so.0:_ZN4llvm15GlobalsAAResult13analyzeModuleERNS_6ModuleESt8functionIFRKNS_17TargetLibraryInfoERNS_8FunctionEEERNS_9CallGraphE
libbcc.so.0:_ZN4llvm15GlobalsAAResult13getModRefInfoEPKNS_8CallBaseERKNS_14MemoryLocationERNS_11AAQueryInfoE
libbcc.so.0:_ZN4llvm15GlobalsAAResult14AnalyzeGlobalsERNS_6ModuleE
libbcc.so.0:_ZN4llvm15GlobalsAAResult15getFunctionInfoEPKNS_8FunctionE
libbcc.so.0:_ZN4llvm15GlobalsAAResult16AnalyzeCallGraphERNS_9CallGraphERNS_6ModuleE
libbcc.so.0:_ZN4llvm15GlobalsAAResult17getModRefBehaviorEPKNS_8FunctionE
libbcc.so.0:_ZN4llvm15GlobalsAAResult20AnalyzeUsesOfPointerEPNS_5ValueEPNS_15SmallPtrSetImplIPNS_8FunctionEEES7_PNS_11GlobalValueE
libbcc.so.0:_ZN4llvm15GlobalsAAResult20CollectSCCMembershipERNS_9CallGraphE
libbcc.so.0:_ZN4llvm15GlobalsAAResult22DeletionCallbackHandle7deletedEv
libbcc.so.0:_ZN4llvm15GlobalsAAResult24getModRefInfoForArgumentEPKNS_8CallBaseEPKNS_11GlobalValueERNS_11AAQueryInfoE
libbcc.so.0:_ZN4llvm15GlobalsAAResult26isNonEscapingGlobalNoAliasEPKNS_11GlobalValueEPKNS_5ValueE
libbcc.so.0:_ZN4llvm15GlobalsAAResult27AnalyzeIndirectGlobalMemoryEPNS_14GlobalVariableE
libbcc.so.0:_ZN4llvm15GlobalsAAResult5aliasERKNS_14MemoryLocationES3_RNS_11AAQueryInfoE
libbcc.so.0:_ZN4llvm15GlobalsAAResultC1EOS0_
libbcc.so.0:_ZN4llvm15GlobalsAAResultC1ERKNS_10DataLayoutESt8functionIFRKNS_17TargetLibraryInfoERNS_8FunctionEEE
libbcc.so.0:_ZN4llvm15GlobalsAAResultC2EOS0_
libbcc.so.0:_ZN4llvm15GlobalsAAResultC2ERKNS_10DataLayoutESt8functionIFRKNS_17TargetLibraryInfoERNS_8FunctionEEE
libbcc.so.0:_ZN4llvm15GlobalsAAResultD1Ev
libbcc.so.0:_ZN4llvm15GlobalsAAResultD2Ev
libbcc.so.0:_ZN4llvm15IRBuilderFolderD0Ev
libbcc.so.0:_ZN4llvm15IRBuilderFolderD1Ev
libbcc.so.0:_ZN4llvm15IRBuilderFolderD2Ev
libbcc.so.0:_ZN4llvm15IVUsersAnalysis3runERNS_4LoopERNS_15AnalysisManagerIS1_JRNS_27LoopStandardAnalysisResultsEEEES5_
libbcc.so.0:_ZN4llvm15InsertValueInst4initEPNS_5ValueES2_NS_8ArrayRefIjEERKNS_5TwineE
libbcc.so.0:_ZN4llvm15InsertValueInstC1ERKS0_
libbcc.so.0:_ZN4llvm15InsertValueInstC2ERKS0_
libbcc.so.0:_ZN4llvm15InstCombinePass3runERNS_8FunctionERNS_15AnalysisManagerIS1_JEEE
libbcc.so.0:_ZN4llvm15InstCombinePassC1Ej
libbcc.so.0:_ZN4llvm15InstCombinePassC1Ev
libbcc.so.0:_ZN4llvm15InstCombinePassC2Ej
libbcc.so.0:_ZN4llvm15InstCombinePassC2Ev
libbcc.so.0:_ZN4llvm15InstrProfReader16accumulateCountsERNS_17CountSumOrPercentEb
libbcc.so.0:_ZN4llvm15InstrProfReader6createERKNS_5TwineEPKNS_19InstrProfCorrelatorE
libbcc.so.0:_ZN4llvm15InstrProfReader6createESt10unique_ptrINS_12MemoryBufferESt14default_deleteIS2_EEPKNS_19InstrProfCorrelatorE
libbcc.so.0:_ZN4llvm15InstrProfRecord10remapValueEmjPNS_15InstrProfSymtabE
libbcc.so.0:_ZN4llvm15InstrProfRecord12addValueDataEjjP18InstrProfValueDatajPNS_15InstrProfSymtabE
libbcc.so.0:_ZN4llvm15InstrProfRecord18mergeValueProfDataEjRS0_mNS_12function_refIFvNS_15instrprof_errorEEEE
libbcc.so.0:_ZN4llvm15InstrProfRecord18scaleValueProfDataEjmmNS_12function_refIFvNS_15instrprof_errorEEEE
libbcc.so.0:_ZN4llvm15InstrProfRecord20overlapValueProfDataEjRS0_RNS_12OverlapStatsES3_
libbcc.so.0:_ZN4llvm15InstrProfRecord5mergeERS0_mNS_12function_refIFvNS_15instrprof_errorEEEE
libbcc.so.0:_ZN4llvm15InstrProfRecord5scaleEmmNS_12function_refIFvNS_15instrprof_errorEEEE
libbcc.so.0:_ZN4llvm15InstrProfRecord7overlapERS0_RNS_12OverlapStatsES3_m
libbcc.so.0:_ZN4llvm15InstrProfSymtab26getFunctionHashFromAddressEm
libbcc.so.0:_ZN4llvm15InstrProfSymtab6createERNS_6ModuleEb
libbcc.so.0:_ZN4llvm15InternalizePass11checkComdatERNS_11GlobalValueERNS_8DenseMapIPKNS_6ComdatENS0_10ComdatInfoENS_12DenseMapInfoIS6_vEENS_6detail12DenseMapPairIS6_S7_EEEE
libbcc.so.0:_ZN4llvm15InternalizePass16maybeInternalizeERNS_11GlobalValueERNS_8DenseMapIPKNS_6ComdatENS0_10ComdatInfoENS_12DenseMapInfoIS6_vEENS_6detail12DenseMapPairIS6_S7_EEEE
libbcc.so.0:_ZN4llvm15InternalizePass16shouldPreserveGVERKNS_11GlobalValueE
libbcc.so.0:_ZN4llvm15InternalizePass17internalizeModuleERNS_6ModuleEPNS_9CallGraphE
libbcc.so.0:_ZN4llvm15InternalizePass3runERNS_6ModuleERNS_15AnalysisManagerIS1_JEEE
libbcc.so.0:_ZN4llvm15InternalizePassC1Ev
libbcc.so.0:_ZN4llvm15InternalizePassC2Ev
libbcc.so.0:_ZN4llvm15IntervalMapImpl10distributeEjjjPKjPjjb
libbcc.so.0:_ZN4llvm15IntervalMapImpl4Path11replaceRootEPvjSt4pairIjjE
libbcc.so.0:_ZN4llvm15IntervalMapImpl4Path8moveLeftEj
libbcc.so.0:_ZN4llvm15IntervalMapImpl4Path9moveRightEj
libbcc.so.0:_ZN4llvm15LLVMContextImpl14setOptPassGateERNS_11OptPassGateE
libbcc.so.0:_ZN4llvm15LLVMContextImpl17getOpaquePointersEv
libbcc.so.0:_ZN4llvm15LLVMContextImpl17setOpaquePointersEb
libbcc.so.0:_ZN4llvm15LLVMContextImpl20getOrInsertBundleTagENS_9StringRefE
libbcc.so.0:_ZN4llvm15LLVMContextImpl22getOrInsertSyncScopeIDENS_9StringRefE
libbcc.so.0:_ZN4llvm15LLVMContextImpl22hasOpaquePointersValueEv
libbcc.so.0:_ZN4llvm15LLVMContextImpl31dropTriviallyDeadConstantArraysEv
libbcc.so.0:_ZN4llvm15LLVMContextImplC1ERNS_11LLVMContextE
libbcc.so.0:_ZN4llvm15LLVMContextImplC2ERNS_11LLVMContextE
libbcc.so.0:_ZN4llvm15LLVMContextImplD1Ev
libbcc.so.0:_ZN4llvm15LLVMContextImplD2Ev
libbcc.so.0:_ZN4llvm15LayoutAlignElem3getENS_13AlignTypeEnumENS_5AlignES2_j
libbcc.so.0:_ZN4llvm15LegalizerHelper10bitcastDstERNS_12MachineInstrENS_3LLTEj
libbcc.so.0:_ZN4llvm15LegalizerHelper10bitcastSrcERNS_12MachineInstrENS_3LLTEj
libbcc.so.0:_ZN4llvm15LegalizerHelper10lowerBswapERNS_12MachineInstrE
libbcc.so.0:_ZN4llvm15LegalizerHelper10lowerFPOWIERNS_12MachineInstrE
libbcc.so.0:_ZN4llvm15LegalizerHelper10lowerStoreERNS_6GStoreE
libbcc.so.0:_ZN4llvm15LegalizerHelper11insertPartsENS_8RegisterENS_3LLTES2_NS_8ArrayRefIS1_EES2_S4_
libbcc.so.0:_ZN4llvm15LegalizerHelper11lowerDIVREMERNS_12MachineInstrE
libbcc.so.0:_ZN4llvm15LegalizerHelper11lowerFFloorERNS_12MachineInstrE
libbcc.so.0:_ZN4llvm15LegalizerHelper11lowerFPTOSIERNS_12MachineInstrE
libbcc.so.0:_ZN4llvm15LegalizerHelper11lowerFPTOUIERNS_12MachineInstrE
libbcc.so.0:_ZN4llvm15LegalizerHelper11lowerInsertERNS_12MachineInstrE
libbcc.so.0:_ZN4llvm15LegalizerHelper11lowerMemcpyERNS_12MachineInstrENS_8RegisterES3_mmNS_5AlignES4_b
libbcc.so.0:_ZN4llvm15LegalizerHelper11lowerMemsetERNS_12MachineInstrENS_8RegisterES3_mNS_5AlignEb
libbcc.so.0:_ZN4llvm15LegalizerHelper11lowerMinMaxERNS_12MachineInstrE
libbcc.so.0:_ZN4llvm15LegalizerHelper11lowerRotateERNS_12MachineInstrE
libbcc.so.0:_ZN4llvm15LegalizerHelper11lowerSITOFPERNS_12MachineInstrE
libbcc.so.0:_ZN4llvm15LegalizerHelper11lowerSelectERNS_12MachineInstrE
libbcc.so.0:_ZN4llvm15LegalizerHelper11lowerShlSatERNS_12MachineInstrE
libbcc.so.0:_ZN4llvm15LegalizerHelper11lowerUITOFPERNS_12MachineInstrE
libbcc.so.0:_ZN4llvm15LegalizerHelper11widenScalarERNS_12MachineInstrEjNS_3LLTE
libbcc.so.0:_ZN4llvm15LegalizerHelper12changeOpcodeERNS_12MachineInstrEj
libbcc.so.0:_ZN4llvm15LegalizerHelper12extractPartsENS_8RegisterENS_3LLTES2_RS2_RNS_15SmallVectorImplIS1_EES6_
libbcc.so.0:_ZN4llvm15LegalizerHelper12extractPartsENS_8RegisterENS_3LLTEiRNS_15SmallVectorImplIS1_EE
libbcc.so.0:_ZN4llvm15LegalizerHelper12lowerBitcastERNS_12MachineInstrE
libbcc.so.0:_ZN4llvm15LegalizerHelper12lowerExtractERNS_12MachineInstrE
libbcc.so.0:_ZN4llvm15LegalizerHelper12lowerFPTRUNCERNS_12MachineInstrE
libbcc.so.0:_ZN4llvm15LegalizerHelper12lowerMemmoveERNS_12MachineInstrENS_8RegisterES3_mNS_5AlignES4_b
libbcc.so.0:_ZN4llvm15LegalizerHelper12narrowScalarERNS_12MachineInstrEjNS_3LLTE
libbcc.so.0:_ZN4llvm15LegalizerHelper13lowerBitCountERNS_12MachineInstrE
libbcc.so.0:_ZN4llvm15LegalizerHelper14coerceToScalarENS_8RegisterE
libbcc.so.0:_ZN4llvm15LegalizerHelper14extractGCDTypeERNS_15SmallVectorImplINS_8RegisterEEENS_3LLTES2_
libbcc.so.0:_ZN4llvm15LegalizerHelper14extractGCDTypeERNS_15SmallVectorImplINS_8RegisterEEENS_3LLTES5_S2_
libbcc.so.0:_ZN4llvm15LegalizerHelper14lowerFCopySignERNS_12MachineInstrE
libbcc.so.0:_ZN4llvm15LegalizerHelper14widenScalarDstERNS_12MachineInstrENS_3LLTEjj
libbcc.so.0:_ZN4llvm15LegalizerHelper14widenScalarSrcERNS_12MachineInstrENS_3LLTEjj
libbcc.so.0:_ZN4llvm15LegalizerHelper15lowerBitreverseERNS_12MachineInstrE
libbcc.so.0:_ZN4llvm15LegalizerHelper15narrowScalarDstERNS_12MachineInstrENS_3LLTEjj
libbcc.so.0:_ZN4llvm15LegalizerHelper15narrowScalarExtERNS_12MachineInstrEjNS_3LLTE
libbcc.so.0:_ZN4llvm15LegalizerHelper15narrowScalarMulERNS_12MachineInstrENS_3LLTE
libbcc.so.0:_ZN4llvm15LegalizerHelper15narrowScalarSrcERNS_12MachineInstrENS_3LLTEj
libbcc.so.0:_ZN4llvm15LegalizerHelper15widenScalarMuloERNS_12MachineInstrEjNS_3LLTE
libbcc.so.0:_ZN4llvm15LegalizerHelper16appendVectorEltsERNS_15SmallVectorImplINS_8RegisterEEES2_
libbcc.so.0:_ZN4llvm15LegalizerHelper16lowerAbsToAddXorERNS_12MachineInstrE
libbcc.so.0:_ZN4llvm15LegalizerHelper16lowerAbsToMaxNegERNS_12MachineInstrE
libbcc.so.0:_ZN4llvm15LegalizerHelper16lowerFunnelShiftERNS_12MachineInstrE
libbcc.so.0:_ZN4llvm15LegalizerHelper16lowerMergeValuesERNS_12MachineInstrE
libbcc.so.0:_ZN4llvm15LegalizerHelper16lowerSADDO_SSUBOERNS_12MachineInstrE
libbcc.so.0:_ZN4llvm15LegalizerHelper16lowerSMULH_UMULHERNS_12MachineInstrE
libbcc.so.0:_ZN4llvm15LegalizerHelper16narrowScalarCTLZERNS_12MachineInstrEjNS_3LLTE
libbcc.so.0:_ZN4llvm15LegalizerHelper16narrowScalarCTTZERNS_12MachineInstrEjNS_3LLTE
libbcc.so.0:_ZN4llvm15LegalizerHelper17legalizeInstrStepERNS_12MachineInstrERNS_20LostDebugLocObserverE
libbcc.so.0:_ZN4llvm15LegalizerHelper17lowerMemCpyFamilyERNS_12MachineInstrEj
libbcc.so.0:_ZN4llvm15LegalizerHelper17lowerMemcpyInlineERNS_12MachineInstrE
libbcc.so.0:_ZN4llvm15LegalizerHelper17lowerMemcpyInlineERNS_12MachineInstrENS_8RegisterES3_mNS_5AlignES4_b
libbcc.so.0:_ZN4llvm15LegalizerHelper17multiplyRegistersERNS_15SmallVectorImplINS_8RegisterEEENS_8ArrayRefIS2_EES6_NS_3LLTE
libbcc.so.0:_ZN4llvm15LegalizerHelper17narrowScalarBasicERNS_12MachineInstrEjNS_3LLTE
libbcc.so.0:_ZN4llvm15LegalizerHelper17narrowScalarCTPOPERNS_12MachineInstrEjNS_3LLTE
libbcc.so.0:_ZN4llvm15LegalizerHelper17narrowScalarFPTOIERNS_12MachineInstrEjNS_3LLTE
libbcc.so.0:_ZN4llvm15LegalizerHelper17narrowScalarShiftERNS_12MachineInstrEjNS_3LLTE
libbcc.so.0:_ZN4llvm15LegalizerHelper17widenScalarInsertERNS_12MachineInstrEjNS_3LLTE
libbcc.so.0:_ZN4llvm15LegalizerHelper18extractVectorPartsENS_8RegisterEjRNS_15SmallVectorImplIS1_EE
libbcc.so.0:_ZN4llvm15LegalizerHelper18lowerDynStackAllocERNS_12MachineInstrE
libbcc.so.0:_ZN4llvm15LegalizerHelper18lowerFMinNumMaxNumERNS_12MachineInstrE
libbcc.so.0:_ZN4llvm15LegalizerHelper18lowerShuffleVectorERNS_12MachineInstrE
libbcc.so.0:_ZN4llvm15LegalizerHelper18lowerUnmergeValuesERNS_12MachineInstrE
libbcc.so.0:_ZN4llvm15LegalizerHelper18moreElementsVectorERNS_12MachineInstrEjNS_3LLTE
libbcc.so.0:_ZN4llvm15LegalizerHelper18narrowScalarAddSubERNS_12MachineInstrEjNS_3LLTE
libbcc.so.0:_ZN4llvm15LegalizerHelper18narrowScalarInsertERNS_12MachineInstrEjNS_3LLTE
libbcc.so.0:_ZN4llvm15LegalizerHelper18narrowScalarSelectERNS_12MachineInstrEjNS_3LLTE
libbcc.so.0:_ZN4llvm15LegalizerHelper18widenScalarExtractERNS_12MachineInstrEjNS_3LLTE
libbcc.so.0:_ZN4llvm15LegalizerHelper19buildLCMMergePiecesENS_3LLTES1_S1_RNS_15SmallVectorImplINS_8RegisterEEEj
libbcc.so.0:_ZN4llvm15LegalizerHelper19fewerElementsVectorERNS_12MachineInstrEjNS_3LLTE
libbcc.so.0:_ZN4llvm15LegalizerHelper19lowerIntrinsicRoundERNS_12MachineInstrE
libbcc.so.0:_ZN4llvm15LegalizerHelper19lowerU64ToF32BitOpsERNS_12MachineInstrE
libbcc.so.0:_ZN4llvm15LegalizerHelper19narrowScalarExtractERNS_12MachineInstrEjNS_3LLTE
libbcc.so.0:_ZN4llvm15LegalizerHelper20createStackTemporaryENS_8TypeSizeENS_5AlignERNS_18MachinePointerInfoE
libbcc.so.0:_ZN4llvm15LegalizerHelper20lowerVectorReductionERNS_12MachineInstrE
libbcc.so.0:_ZN4llvm15LegalizerHelper20mergeMixedSubvectorsENS_8RegisterENS_8ArrayRefIS1_EE
libbcc.so.0:_ZN4llvm15LegalizerHelper20reduceLoadStoreWidthERNS_10GLoadStoreEjNS_3LLTE
libbcc.so.0:_ZN4llvm15LegalizerHelper21moreElementsVectorDstERNS_12MachineInstrENS_3LLTEj
libbcc.so.0:_ZN4llvm15LegalizerHelper21moreElementsVectorPhiERNS_12MachineInstrEjNS_3LLTE
libbcc.so.0:_ZN4llvm15LegalizerHelper21moreElementsVectorSrcERNS_12MachineInstrENS_3LLTEj
libbcc.so.0:_ZN4llvm15LegalizerHelper22bitcastInsertVectorEltERNS_12MachineInstrEjNS_3LLTE
libbcc.so.0:_ZN4llvm15LegalizerHelper22fewerElementsVectorPhiERNS_19GenericMachineInstrEj
libbcc.so.0:_ZN4llvm15LegalizerHelper22lowerAddSubSatToMinMaxERNS_12MachineInstrE
libbcc.so.0:_ZN4llvm15LegalizerHelper22lowerReadWriteRegisterERNS_12MachineInstrE
libbcc.so.0:_ZN4llvm15LegalizerHelper22tryNarrowPow2ReductionERNS_12MachineInstrENS_8RegisterENS_3LLTES4_j
libbcc.so.0:_ZN4llvm15LegalizerHelper22widenScalarMergeValuesERNS_12MachineInstrEjNS_3LLTE
libbcc.so.0:_ZN4llvm15LegalizerHelper23bitcastExtractVectorEltERNS_12MachineInstrEjNS_3LLTE
libbcc.so.0:_ZN4llvm15LegalizerHelper23getVectorElementPointerENS_8RegisterENS_3LLTES1_
libbcc.so.0:_ZN4llvm15LegalizerHelper23lowerFPTRUNC_F64_TO_F16ERNS_12MachineInstrE
libbcc.so.0:_ZN4llvm15LegalizerHelper23widenScalarAddSubShlSatERNS_12MachineInstrEjNS_3LLTE
libbcc.so.0:_ZN4llvm15LegalizerHelper24buildWidenedRemergeToDstENS_8RegisterENS_3LLTENS_8ArrayRefIS1_EE
libbcc.so.0:_ZN4llvm15LegalizerHelper24fewerElementsVectorMergeERNS_12MachineInstrEjNS_3LLTE
libbcc.so.0:_ZN4llvm15LegalizerHelper24lowerAddSubSatToAddoSuboERNS_12MachineInstrE
libbcc.so.0:_ZN4llvm15LegalizerHelper24lowerFunnelShiftAsShiftsERNS_12MachineInstrE
libbcc.so.0:_ZN4llvm15LegalizerHelper24widenScalarUnmergeValuesERNS_12MachineInstrEjNS_3LLTE
libbcc.so.0:_ZN4llvm15LegalizerHelper25moreElementsVectorShuffleERNS_12MachineInstrEjNS_3LLTE
libbcc.so.0:_ZN4llvm15LegalizerHelper25widenScalarAddSubOverflowERNS_12MachineInstrEjNS_3LLTE
libbcc.so.0:_ZN4llvm15LegalizerHelper26fewerElementsVectorShuffleERNS_12MachineInstrEjNS_3LLTE
libbcc.so.0:_ZN4llvm15LegalizerHelper27lowerExtractInsertVectorEltERNS_12MachineInstrE
libbcc.so.0:_ZN4llvm15LegalizerHelper27lowerFunnelShiftWithInverseERNS_12MachineInstrE
libbcc.so.0:_ZN4llvm15LegalizerHelper27narrowScalarShiftByConstantERNS_12MachineInstrERKNS_5APIntENS_3LLTES6_
libbcc.so.0:_ZN4llvm15LegalizerHelper28lowerRotateWithReverseRotateERNS_12MachineInstrE
libbcc.so.0:_ZN4llvm15LegalizerHelper29fewerElementsVectorReductionsERNS_12MachineInstrEjNS_3LLTE
libbcc.so.0:_ZN4llvm15LegalizerHelper31fewerElementsVectorMultiEltTypeERNS_19GenericMachineInstrEjSt16initializer_listIjE
libbcc.so.0:_ZN4llvm15LegalizerHelper32fewerElementsVectorUnmergeValuesERNS_12MachineInstrEjNS_3LLTE
libbcc.so.0:_ZN4llvm15LegalizerHelper41fewerElementsVectorExtractInsertVectorEltERNS_12MachineInstrEjNS_3LLTE
libbcc.so.0:_ZN4llvm15LegalizerHelper5lowerERNS_12MachineInstrEjNS_3LLTE
libbcc.so.0:_ZN4llvm15LegalizerHelper7bitcastERNS_12MachineInstrEjNS_3LLTE
libbcc.so.0:_ZN4llvm15LegalizerHelper7libcallERNS_12MachineInstrERNS_20LostDebugLocObserverE
libbcc.so.0:_ZN4llvm15LegalizerHelper9lowerFMadERNS_12MachineInstrE
libbcc.so.0:_ZN4llvm15LegalizerHelper9lowerLoadERNS_8GAnyLoadE
libbcc.so.0:_ZN4llvm15LegalizerHelperC1ERNS_15MachineFunctionERKNS_13LegalizerInfoERNS_19GISelChangeObserverERNS_16MachineIRBuilderE
libbcc.so.0:_ZN4llvm15LegalizerHelperC1ERNS_15MachineFunctionERNS_19GISelChangeObserverERNS_16MachineIRBuilderE
libbcc.so.0:_ZN4llvm15LegalizerHelperC2ERNS_15MachineFunctionERKNS_13LegalizerInfoERNS_19GISelChangeObserverERNS_16MachineIRBuilderE
libbcc.so.0:_ZN4llvm15LegalizerHelperC2ERNS_15MachineFunctionERNS_19GISelChangeObserverERNS_16MachineIRBuilderE
libbcc.so.0:_ZN4llvm15LockFileManager12readLockFileB5cxx11ENS_9StringRefE
libbcc.so.0:_ZN4llvm15LockFileManager13waitForUnlockEj
libbcc.so.0:_ZN4llvm15LockFileManager20unsafeRemoveLockFileEv
libbcc.so.0:_ZN4llvm15LockFileManager21processStillExecutingENS_9StringRefEi
libbcc.so.0:_ZN4llvm15LockFileManagerC1ENS_9StringRefE
libbcc.so.0:_ZN4llvm15LockFileManagerC2ENS_9StringRefE
libbcc.so.0:_ZN4llvm15LockFileManagerD1Ev
libbcc.so.0:_ZN4llvm15LockFileManagerD2Ev
libbcc.so.0:_ZN4llvm15LoopFlattenPass3runERNS_8LoopNestERNS_15AnalysisManagerINS_4LoopEJRNS_27LoopStandardAnalysisResultsEEEES6_RNS_10LPMUpdaterE
libbcc.so.0:_ZN4llvm15LoopPrinterPass3runERNS_8FunctionERNS_15AnalysisManagerIS1_JEEE
libbcc.so.0:_ZN4llvm15LowerAtomicPass3runERNS_8FunctionERNS_15AnalysisManagerIS1_JEEE
libbcc.so.0:_ZN4llvm15LowerDbgDeclareERNS_8FunctionE
libbcc.so.0:_ZN4llvm15LowerInvokePass3runERNS_8FunctionERNS_15AnalysisManagerIS1_JEEE
libbcc.so.0:_ZN4llvm15LowerSwitchPass3runERNS_8FunctionERNS_15AnalysisManagerIS1_JEEE
libbcc.so.0:_ZN4llvm15MCAsmInfoDarwinC1Ev
libbcc.so.0:_ZN4llvm15MCAsmInfoDarwinC2Ev
libbcc.so.0:_ZN4llvm15MCDwarfLineAddr4EmitEPNS_10MCStreamerENS_22MCDwarfLineTableParamsElm
libbcc.so.0:_ZN4llvm15MCDwarfLineAddr6EncodeERNS_9MCContextENS_22MCDwarfLineTableParamsElmRNS_11raw_ostreamE
libbcc.so.0:_ZN4llvm15MCSPIRVStreamer14emitInstToDataERKNS_6MCInstERKNS_15MCSubtargetInfoE
libbcc.so.0:_ZN4llvm15MCSubtargetInfo13ToggleFeatureENS_9StringRefE
libbcc.so.0:_ZN4llvm15MCSubtargetInfo13ToggleFeatureERKNS_13FeatureBitsetE
libbcc.so.0:_ZN4llvm15MCSubtargetInfo13ToggleFeatureEm
libbcc.so.0:_ZN4llvm15MCSubtargetInfo16ApplyFeatureFlagENS_9StringRefE
libbcc.so.0:_ZN4llvm15MCSubtargetInfo18setDefaultFeaturesENS_9StringRefES1_S1_
libbcc.so.0:_ZN4llvm15MCSubtargetInfo19InitMCProcessorInfoENS_9StringRefES1_S1_
libbcc.so.0:_ZN4llvm15MCSubtargetInfo26SetFeatureBitsTransitivelyERKNS_13FeatureBitsetE
libbcc.so.0:_ZN4llvm15MCSubtargetInfo28ClearFeatureBitsTransitivelyERKNS_13FeatureBitsetE
libbcc.so.0:_ZN4llvm15MCSubtargetInfoC1ERKNS_6TripleENS_9StringRefES4_S4_NS_8ArrayRefINS_18SubtargetFeatureKVEEENS5_INS_18SubtargetSubTypeKVEEEPKNS_19MCWriteProcResEntryEPKNS_19MCWriteLatencyEntryEPKNS_18MCReadAdvanceEntryEPKNS_10InstrStageEPKjSN_
libbcc.so.0:_ZN4llvm15MCSubtargetInfoC2ERKNS_6TripleENS_9StringRefES4_S4_NS_8ArrayRefINS_18SubtargetFeatureKVEEENS5_INS_18SubtargetSubTypeKVEEEPKNS_19MCWriteProcResEntryEPKNS_19MCWriteLatencyEntryEPKNS_18MCReadAdvanceEntryEPKNS_10InstrStageEPKjSN_
libbcc.so.0:_ZN4llvm15MCSymbolRefExpr18getVariantKindNameENS0_11VariantKindE
libbcc.so.0:_ZN4llvm15MCSymbolRefExpr21getVariantKindForNameENS_9StringRefE
libbcc.so.0:_ZN4llvm15MCSymbolRefExpr6createENS_9StringRefENS0_11VariantKindERNS_9MCContextE
libbcc.so.0:_ZN4llvm15MCSymbolRefExpr6createEPKNS_8MCSymbolENS0_11VariantKindERNS_9MCContextENS_5SMLocE
libbcc.so.0:_ZN4llvm15MCSymbolRefExprC1EPKNS_8MCSymbolENS0_11VariantKindEPKNS_9MCAsmInfoENS_5SMLocE
libbcc.so.0:_ZN4llvm15MCSymbolRefExprC2EPKNS_8MCSymbolENS0_11VariantKindEPKNS_9MCAsmInfoENS_5SMLocE
libbcc.so.0:_ZN4llvm15MCTargetOptionsC1Ev
libbcc.so.0:_ZN4llvm15MCTargetOptionsC2Ev
libbcc.so.0:_ZN4llvm15MCXCOFFStreamer12emitZerofillEPNS_9MCSectionEPNS_8MCSymbolEmjNS_5SMLocE
libbcc.so.0:_ZN4llvm15MCXCOFFStreamer14emitInstToDataERKNS_6MCInstERKNS_15MCSubtargetInfoE
libbcc.so.0:_ZN4llvm15MCXCOFFStreamer16emitCommonSymbolEPNS_8MCSymbolEmj
libbcc.so.0:_ZN4llvm15MCXCOFFStreamer19emitSymbolAttributeEPNS_8MCSymbolENS_12MCSymbolAttrE
libbcc.so.0:_ZN4llvm15MCXCOFFStreamer26emitXCOFFLocalCommonSymbolEPNS_8MCSymbolEmS2_j
libbcc.so.0:_ZN4llvm15MCXCOFFStreamer36emitXCOFFSymbolLinkageWithVisibilityEPNS_8MCSymbolENS_12MCSymbolAttrES3_
libbcc.so.0:_ZN4llvm15MCXCOFFStreamerC1ERNS_9MCContextESt10unique_ptrINS_12MCAsmBackendESt14default_deleteIS4_EES3_INS_14MCObjectWriterES5_IS8_EES3_INS_13MCCodeEmitterES5_ISB_EE
libbcc.so.0:_ZN4llvm15MCXCOFFStreamerC2ERNS_9MCContextESt10unique_ptrINS_12MCAsmBackendESt14default_deleteIS4_EES3_INS_14MCObjectWriterES5_IS8_EES3_INS_13MCCodeEmitterES5_ISB_EE
libbcc.so.0:_ZN4llvm15MachineFunction10addCleanupEPNS_17MachineBasicBlockE
libbcc.so.0:_ZN4llvm15MachineFunction12addFrameInstERKNS_16MCCFIInstructionE
libbcc.so.0:_ZN4llvm15MachineFunction12getTypeIDForEPKNS_11GlobalValueE
libbcc.so.0:_ZN4llvm15MachineFunction13addLandingPadEPNS_17MachineBasicBlockE
libbcc.so.0:_ZN4llvm15MachineFunction13handleRemovalERNS_12MachineInstrE
libbcc.so.0:_ZN4llvm15MachineFunction14RenumberBlocksEPNS_17MachineBasicBlockE
libbcc.so.0:_ZN4llvm15MachineFunction14getFilterIDForERSt6vectorIjSaIjEE
libbcc.so.0:_ZN4llvm15MachineFunction14salvageCopySSAERNS_12MachineInstrERNS_8DenseMapINS_8RegisterESt4pairIjjENS_12DenseMapInfoIS4_vEENS_6detail12DenseMapPairIS4_S6_EEEE
libbcc.so.0:_ZN4llvm15MachineFunction15allocateRegMaskEv
libbcc.so.0:_ZN4llvm15MachineFunction15getCallSiteInfoEPKNS_12MachineInstrE
libbcc.so.0:_ZN4llvm15MachineFunction15handleInsertionERNS_12MachineInstrE
libbcc.so.0:_ZN4llvm15MachineFunction15tidyLandingPadsEPNS_8DenseMapIPNS_8MCSymbolEmNS_12DenseMapInfoIS3_vEENS_6detail12DenseMapPairIS3_mEEEEb
libbcc.so.0:_ZN4llvm15MachineFunction16addCatchTypeInfoEPNS_17MachineBasicBlockENS_8ArrayRefIPKNS_11GlobalValueEEE
libbcc.so.0:_ZN4llvm15MachineFunction16copyCallSiteInfoEPKNS_12MachineInstrES3_
libbcc.so.0:_ZN4llvm15MachineFunction16moveCallSiteInfoEPKNS_12MachineInstrES3_
libbcc.so.0:_ZN4llvm15MachineFunction17CloneMachineInstrEPKNS_12MachineInstrE
libbcc.so.0:_ZN4llvm15MachineFunction17addFilterTypeInfoEPNS_17MachineBasicBlockENS_8ArrayRefIPKNS_11GlobalValueEEE
libbcc.so.0:_ZN4llvm15MachineFunction17createMIExtraInfoENS_8ArrayRefIPNS_17MachineMemOperandEEEPNS_8MCSymbolES6_PNS_6MDNodeE
libbcc.so.0:_ZN4llvm15MachineFunction17eraseCallSiteInfoEPKNS_12MachineInstrE
libbcc.so.0:_ZN4llvm15MachineFunction18CreateMachineInstrERKNS_11MCInstrDescENS_8DebugLocEb
libbcc.so.0:_ZN4llvm15MachineFunction18deleteMachineInstrEPNS_12MachineInstrE
libbcc.so.0:_ZN4llvm15MachineFunction18salvageCopySSAImplERNS_12MachineInstrE
libbcc.so.0:_ZN4llvm15MachineFunction19allocateShuffleMaskENS_8ArrayRefIiEE
libbcc.so.0:_ZN4llvm15MachineFunction20getMachineMemOperandENS_18MachinePointerInfoENS_17MachineMemOperand5FlagsENS_3LLTENS_5AlignERKNS_9AAMDNodesEPKNS_6MDNodeEhNS_14AtomicOrderingESC_
libbcc.so.0:_ZN4llvm15MachineFunction20getMachineMemOperandENS_18MachinePointerInfoENS_17MachineMemOperand5FlagsEmNS_5AlignERKNS_9AAMDNodesEPKNS_6MDNodeEhNS_14AtomicOrderingESB_
libbcc.so.0:_ZN4llvm15MachineFunction20getMachineMemOperandEPKNS_17MachineMemOperandENS1_5FlagsE
libbcc.so.0:_ZN4llvm15MachineFunction20getMachineMemOperandEPKNS_17MachineMemOperandERKNS_18MachinePointerInfoENS_3LLTE
libbcc.so.0:_ZN4llvm15MachineFunction20getMachineMemOperandEPKNS_17MachineMemOperandERKNS_18MachinePointerInfoEm
libbcc.so.0:_ZN4llvm15MachineFunction20getMachineMemOperandEPKNS_17MachineMemOperandERKNS_9AAMDNodesE
libbcc.so.0:_ZN4llvm15MachineFunction20getMachineMemOperandEPKNS_17MachineMemOperandElNS_3LLTE
libbcc.so.0:_ZN4llvm15MachineFunction21setCallSiteLandingPadEPNS_8MCSymbolENS_8ArrayRefIjEE
libbcc.so.0:_ZN4llvm15MachineFunction22assignBeginEndSectionsEv
libbcc.so.0:_ZN4llvm15MachineFunction22finalizeDebugInstrRefsEv
libbcc.so.0:_ZN4llvm15MachineFunction23CreateMachineBasicBlockEPKNS_10BasicBlockE
libbcc.so.0:_ZN4llvm15MachineFunction23cloneMachineInstrBundleERNS_17MachineBasicBlockENS_26MachineInstrBundleIteratorINS_12MachineInstrELb0EEERKS4_
libbcc.so.0:_ZN4llvm15MachineFunction23deleteMachineBasicBlockEPNS_17MachineBasicBlockE
libbcc.so.0:_ZN4llvm15MachineFunction24createExternalSymbolNameENS_9StringRefE
libbcc.so.0:_ZN4llvm15MachineFunction24getOrCreateJumpTableInfoEj
libbcc.so.0:_ZN4llvm15MachineFunction25getOrCreateLandingPadInfoEPNS_17MachineBasicBlockE
libbcc.so.0:_ZN4llvm15MachineFunction26makeDebugValueSubstitutionESt4pairIjjES2_j
libbcc.so.0:_ZN4llvm15MachineFunction27setDebugInstrNumberingCountEj
libbcc.so.0:_ZN4llvm15MachineFunction28substituteDebugValuesForInstERKNS_12MachineInstrERS1_j
libbcc.so.0:_ZN4llvm15MachineFunction4initEv
libbcc.so.0:_ZN4llvm15MachineFunction5clearEv
libbcc.so.0:_ZN4llvm15MachineFunction8Delegate6anchorEv
libbcc.so.0:_ZN4llvm15MachineFunction9addInvokeEPNS_17MachineBasicBlockEPNS_8MCSymbolES4_
libbcc.so.0:_ZN4llvm15MachineFunction9addLiveInENS_10MCRegisterEPKNS_19TargetRegisterClassE
libbcc.so.0:_ZN4llvm15MachineFunctionC1ERNS_8FunctionERKNS_17LLVMTargetMachineERKNS_19TargetSubtargetInfoEjRNS_17MachineModuleInfoE
libbcc.so.0:_ZN4llvm15MachineFunctionC2ERNS_8FunctionERKNS_17LLVMTargetMachineERKNS_19TargetSubtargetInfoEjRNS_17MachineModuleInfoE
libbcc.so.0:_ZN4llvm15MachineFunctionD1Ev
libbcc.so.0:_ZN4llvm15MachineFunctionD2Ev
libbcc.so.0:_ZN4llvm15MachineLoopInfo20runOnMachineFunctionERNS_15MachineFunctionE
libbcc.so.0:_ZN4llvm15MachineLoopInfo9calculateERNS_20MachineDominatorTreeE
libbcc.so.0:_ZN4llvm15MachineLoopInfoC1Ev
libbcc.so.0:_ZN4llvm15MachineLoopInfoC2Ev
libbcc.so.0:_ZN4llvm15MemProfilerPass3runERNS_8FunctionERNS_15AnalysisManagerIS1_JEEE
libbcc.so.0:_ZN4llvm15MemProfilerPassC1Ev
libbcc.so.0:_ZN4llvm15MemProfilerPassC2Ev
libbcc.so.0:_ZN4llvm15MemoryBufferRefC1ERKNS_12MemoryBufferE
libbcc.so.0:_ZN4llvm15MemoryBufferRefC2ERKNS_12MemoryBufferE
libbcc.so.0:_ZN4llvm15MemorySSAWalkerC2EPNS_9MemorySSAE
libbcc.so.0:_ZN4llvm15MetaRenamerPass3runERNS_6ModuleERNS_15AnalysisManagerIS1_JEEE
libbcc.so.0:_ZN4llvm15MetadataAsValue11getIfExistsERNS_11LLVMContextEPNS_8MetadataE
libbcc.so.0:_ZN4llvm15MetadataAsValue21handleChangedMetadataEPNS_8MetadataE
libbcc.so.0:_ZN4llvm15MetadataAsValue3getERNS_11LLVMContextEPNS_8MetadataE
libbcc.so.0:_ZN4llvm15MetadataAsValue5trackEv
libbcc.so.0:_ZN4llvm15MetadataAsValue7untrackEv
libbcc.so.0:_ZN4llvm15MetadataAsValueC1EPNS_4TypeEPNS_8MetadataE
libbcc.so.0:_ZN4llvm15MetadataAsValueC2EPNS_4TypeEPNS_8MetadataE
libbcc.so.0:_ZN4llvm15MetadataAsValueD1Ev
libbcc.so.0:_ZN4llvm15MetadataAsValueD2Ev
libbcc.so.0:_ZN4llvm15PGOMemOPSizeOpt3runERNS_8FunctionERNS_15AnalysisManagerIS1_JEEE
libbcc.so.0:_ZN4llvm15PatchPointOpersC1EPKNS_12MachineInstrE
libbcc.so.0:_ZN4llvm15PatchPointOpersC2EPKNS_12MachineInstrE
libbcc.so.0:_ZN4llvm15PrintModulePass3runERNS_6ModuleERNS_15AnalysisManagerIS1_JEEE
libbcc.so.0:_ZN4llvm15PrintModulePassC1ERNS_11raw_ostreamERKNSt7__cxx1112basic_stringIcSt11char_traitsIcESaIcEEEb
libbcc.so.0:_ZN4llvm15PrintModulePassC1Ev
libbcc.so.0:_ZN4llvm15PrintModulePassC2ERNS_11raw_ostreamERKNSt7__cxx1112basic_stringIcSt11char_traitsIcESaIcEEEb
libbcc.so.0:_ZN4llvm15PrintModulePassC2Ev
libbcc.so.0:_ZN4llvm15PrintStatisticsERNS_11raw_ostreamE
libbcc.so.0:_ZN4llvm15PrintStatisticsEv
libbcc.so.0:_ZN4llvm15PromoteMemToRegENS_8ArrayRefIPNS_10AllocaInstEEERNS_13DominatorTreeEPNS_15AssumptionCacheE
libbcc.so.0:_ZN4llvm15ReassociatePass11OptimizeAddEPNS_11InstructionERNS_15SmallVectorImplINS_11reassociate10ValueEntryEEE
libbcc.so.0:_ZN4llvm15ReassociatePass11OptimizeMulEPNS_14BinaryOperatorERNS_15SmallVectorImplINS_11reassociate10ValueEntryEEE
libbcc.so.0:_ZN4llvm15ReassociatePass11OptimizeXorEPNS_11InstructionERNS_15SmallVectorImplINS_11reassociate10ValueEntryEEE
libbcc.so.0:_ZN4llvm15ReassociatePass12BuildPairMapERNS_25ReversePostOrderTraversalIPNS_8FunctionENS_11GraphTraitsIS3_EEEE
libbcc.so.0:_ZN4llvm15ReassociatePass12BuildRankMapERNS_8FunctionERNS_25ReversePostOrderTraversalIPS1_NS_11GraphTraitsIS4_EEEE
libbcc.so.0:_ZN4llvm15ReassociatePass12OptimizeInstEPNS_11InstructionE
libbcc.so.0:_ZN4llvm15ReassociatePass14CombineXorOpndEPNS_11InstructionEPNS_11reassociate7XorOpndERNS_5APIntERPNS_5ValueE
libbcc.so.0:_ZN4llvm15ReassociatePass14CombineXorOpndEPNS_11InstructionEPNS_11reassociate7XorOpndES5_RNS_5APIntERPNS_5ValueE
libbcc.so.0:_ZN4llvm15ReassociatePass15RewriteExprTreeEPNS_14BinaryOperatorERNS_15SmallVectorImplINS_11reassociate10ValueEntryEEE
libbcc.so.0:_ZN4llvm15ReassociatePass18OptimizeExpressionEPNS_14BinaryOperatorERNS_15SmallVectorImplINS_11reassociate10ValueEntryEEE
libbcc.so.0:_ZN4llvm15ReassociatePass20canonicalizeOperandsEPNS_11InstructionE
libbcc.so.0:_ZN4llvm15ReassociatePass21ReassociateExpressionEPNS_14BinaryOperatorE
libbcc.so.0:_ZN4llvm15ReassociatePass23buildMinimalMultiplyDAGERNS_13IRBuilderBaseERNS_15SmallVectorImplINS_11reassociate6FactorEEE
libbcc.so.0:_ZN4llvm15ReassociatePass25RecursivelyEraseDeadInstsEPNS_11InstructionERNS_9SetVectorINS_11AssertingVHIS1_EESt5dequeIS5_SaIS5_EENS_8DenseSetIS5_NS_12DenseMapInfoIS5_vEEEEEE
libbcc.so.0:_ZN4llvm15ReassociatePass26RemoveFactorFromExpressionEPNS_5ValueES2_
libbcc.so.0:_ZN4llvm15ReassociatePass26canonicalizeNegFPConstantsEPNS_11InstructionE
libbcc.so.0:_ZN4llvm15ReassociatePass31canonicalizeNegFPConstantsForOpEPNS_11InstructionES2_PNS_5ValueE
libbcc.so.0:_ZN4llvm15ReassociatePass3runERNS_8FunctionERNS_15AnalysisManagerIS1_JEEE
libbcc.so.0:_ZN4llvm15ReassociatePass7getRankEPNS_5ValueE
libbcc.so.0:_ZN4llvm15ReassociatePass9EraseInstEPNS_11InstructionE
libbcc.so.0:_ZN4llvm15RegAllocScoring20runOnMachineFunctionERNS_15MachineFunctionE
libbcc.so.0:_ZN4llvm15ResetStatisticsEv
libbcc.so.0:_ZN4llvm15ResourceManager14clearResourcesEv
libbcc.so.0:_ZN4llvm15ResourceManager16reserveResourcesEPKNS_11MCInstrDescE
libbcc.so.0:_ZN4llvm15ResourceManager16reserveResourcesERKNS_12MachineInstrE
libbcc.so.0:_ZN4llvm15ResourceManager23initProcResourceVectorsERKNS_12MCSchedModelERNS_15SmallVectorImplImEE
libbcc.so.0:_ZN4llvm15RuntimeDyldCOFF10loadObjectERKNS_6object10ObjectFileE
libbcc.so.0:_ZN4llvm15RuntimeDyldCOFF15getSymbolOffsetERKNS_6object9SymbolRefE
libbcc.so.0:_ZN4llvm15RuntimeDyldCOFF18getDLLImportOffsetEjRSt3mapINS_18RelocationValueRefEmSt4lessIS2_ESaISt4pairIKS2_mEEENS_9StringRefEb
libbcc.so.0:_ZN4llvm15RuntimeDyldCOFF6createENS_6Triple8ArchTypeERNS_11RuntimeDyld13MemoryManagerERNS_17JITSymbolResolverE
libbcc.so.0:_ZN4llvm15RuntimeDyldImpl11emitSectionERKNS_6object10ObjectFileERKNS1_10SectionRefEb
libbcc.so.0:_ZN4llvm15RuntimeDyldImpl13finalizeAsyncESt10unique_ptrIS0_St14default_deleteIS0_EENS_15unique_functionIFvNS_6object12OwningBinaryINS6_10ObjectFileEEES1_INS_11RuntimeDyld16LoadedObjectInfoES2_ISB_EENS_5ErrorEEEES9_SD_
libbcc.so.0:_ZN4llvm15RuntimeDyldImpl14computeGOTSizeERKNS_6object10ObjectFileE
libbcc.so.0:_ZN4llvm15RuntimeDyldImpl14loadObjectImplERKNS_6object10ObjectFileE
libbcc.so.0:_ZN4llvm15RuntimeDyldImpl16registerEHFramesEv
libbcc.so.0:_ZN4llvm15RuntimeDyldImpl17emitCommonSymbolsERKNS_6object10ObjectFileERSt6vectorINS1_9SymbolRefESaIS6_EEmj
libbcc.so.0:_ZN4llvm15RuntimeDyldImpl17findOrEmitSectionERKNS_6object10ObjectFileERKNS1_10SectionRefEbRSt3mapIS5_jSt4lessIS5_ESaISt4pairIS6_jEEE
libbcc.so.0:_ZN4llvm15RuntimeDyldImpl17getJITSymbolFlagsERKNS_6object9SymbolRefE
libbcc.so.0:_ZN4llvm15RuntimeDyldImpl17mapSectionAddressEPKvm
libbcc.so.0:_ZN4llvm15RuntimeDyldImpl18createStubFunctionEPhj
libbcc.so.0:_ZN4llvm15RuntimeDyldImpl18deregisterEHFramesEv
libbcc.so.0:_ZN4llvm15RuntimeDyldImpl18resolveRelocationsEv
libbcc.so.0:_ZN4llvm15RuntimeDyldImpl21computeTotalAllocSizeERKNS_6object10ObjectFileERmRjS5_S6_S5_S6_
libbcc.so.0:_ZN4llvm15RuntimeDyldImpl21resolveRelocationListERKNS_11SmallVectorINS_15RelocationEntryELj64EEEm
libbcc.so.0:_ZN4llvm15RuntimeDyldImpl22addRelocationForSymbolERKNS_15RelocationEntryENS_9StringRefE
libbcc.so.0:_ZN4llvm15RuntimeDyldImpl22reassignSectionAddressEjm
libbcc.so.0:_ZN4llvm15RuntimeDyldImpl22resolveExternalSymbolsEv
libbcc.so.0:_ZN4llvm15RuntimeDyldImpl23addRelocationForSectionERKNS_15RelocationEntryEj
libbcc.so.0:_ZN4llvm15RuntimeDyldImpl23resolveLocalRelocationsEv
libbcc.so.0:_ZN4llvm15RuntimeDyldImpl25computeSectionStubBufSizeERKNS_6object10ObjectFileERKNS1_10SectionRefE
libbcc.so.0:_ZN4llvm15RuntimeDyldImpl30applyExternalSymbolRelocationsENS_9StringMapINS_18JITEvaluatedSymbolENS_15MallocAllocatorEEE
libbcc.so.0:_ZN4llvm15RuntimeDyldImplD0Ev
libbcc.so.0:_ZN4llvm15RuntimeDyldImplD1Ev
libbcc.so.0:_ZN4llvm15RuntimeDyldImplD2Ev
libbcc.so.0:_ZN4llvm15SCCPInstVisitor12markConstantERNS_19ValueLatticeElementEPNS_5ValueEPNS_8ConstantEb
libbcc.so.0:_ZN4llvm15SCCPInstVisitor12mergeInValueERNS_19ValueLatticeElementEPNS_5ValueES1_NS1_12MergeOptionsE
libbcc.so.0:_ZN4llvm15SCCPInstVisitor12visitCmpInstERNS_7CmpInstE
libbcc.so.0:_ZN4llvm15SCCPInstVisitor12visitPHINodeERNS_7PHINodeE
libbcc.so.0:_ZN4llvm15SCCPInstVisitor13visitCallBaseERNS_8CallBaseE
libbcc.so.0:_ZN4llvm15SCCPInstVisitor13visitCastInstERNS_8CastInstE
libbcc.so.0:_ZN4llvm15SCCPInstVisitor13visitLoadInstERNS_8LoadInstE
libbcc.so.0:_ZN4llvm15SCCPInstVisitor14pushToWorkListERNS_19ValueLatticeElementEPNS_5ValueE
libbcc.so.0:_ZN4llvm15SCCPInstVisitor14visitStoreInstERNS_9StoreInstE
libbcc.so.0:_ZN4llvm15SCCPInstVisitor15markOverdefinedERNS_19ValueLatticeElementEPNS_5ValueE
libbcc.so.0:_ZN4llvm15SCCPInstVisitor15visitReturnInstERNS_10ReturnInstE
libbcc.so.0:_ZN4llvm15SCCPInstVisitor15visitSelectInstERNS_10SelectInstE
libbcc.so.0:_ZN4llvm15SCCPInstVisitor15visitTerminatorERNS_11InstructionE
libbcc.so.0:_ZN4llvm15SCCPInstVisitor16handleCallResultERNS_8CallBaseE
libbcc.so.0:_ZN4llvm15SCCPInstVisitor16resolvedUndefsInERNS_8FunctionE
libbcc.so.0:_ZN4llvm15SCCPInstVisitor16visitInstructionERNS_11InstructionE
libbcc.so.0:_ZN4llvm15SCCPInstVisitor17pushToWorkListMsgERNS_19ValueLatticeElementEPNS_5ValueE
libbcc.so.0:_ZN4llvm15SCCPInstVisitor18markEdgeExecutableEPNS_10BasicBlockES2_
libbcc.so.0:_ZN4llvm15SCCPInstVisitor18visitUnaryOperatorERNS_11InstructionE
libbcc.so.0:_ZN4llvm15SCCPInstVisitor19handleCallArgumentsERNS_8CallBaseE
libbcc.so.0:_ZN4llvm15SCCPInstVisitor19markBlockExecutableEPNS_10BasicBlockE
libbcc.so.0:_ZN4llvm15SCCPInstVisitor19visitBinaryOperatorERNS_11InstructionE
libbcc.so.0:_ZN4llvm15SCCPInstVisitor20visitInsertValueInstERNS_15InsertValueInstE
libbcc.so.0:_ZN4llvm15SCCPInstVisitor21getFeasibleSuccessorsERNS_11InstructionERNS_15SmallVectorImplIbEE
libbcc.so.0:_ZN4llvm15SCCPInstVisitor21handleCallOverdefinedERNS_8CallBaseE
libbcc.so.0:_ZN4llvm15SCCPInstVisitor21visitExtractValueInstERNS_16ExtractValueInstE
libbcc.so.0:_ZN4llvm15SCCPInstVisitor22visitGetElementPtrInstERNS_17GetElementPtrInstE
libbcc.so.0:_ZN4llvm15SCCPInstVisitor23isStructLatticeConstantEPNS_8FunctionEPNS_10StructTypeE
libbcc.so.0:_ZN4llvm15SCCPInstVisitor27markArgInFuncSpecializationEPNS_8FunctionERKNS_15SmallVectorImplINS_7ArgInfoEEE
libbcc.so.0:_ZN4llvm15SCCPInstVisitor5solveEv
libbcc.so.0:_ZN4llvm15ScalarEvolution10createSCEVEPNS_5ValueE
libbcc.so.0:_ZN4llvm15ScalarEvolution10forgetLoopEPKNS_4LoopE
libbcc.so.0:_ZN4llvm15ScalarEvolution10getAbsExprEPKNS_4SCEVEb
libbcc.so.0:_ZN4llvm15ScalarEvolution10getAddExprERNS_15SmallVectorImplIPKNS_4SCEVEEENS2_11NoWrapFlagsEj
libbcc.so.0:_ZN4llvm15ScalarEvolution10getGEPExprEPNS_11GEPOperatorERKNS_15SmallVectorImplIPKNS_4SCEVEEE
libbcc.so.0:_ZN4llvm15ScalarEvolution10getMulExprERNS_15SmallVectorImplIPKNS_4SCEVEEENS2_11NoWrapFlagsEj
libbcc.so.0:_ZN4llvm15ScalarEvolution10getNotSCEVEPKNS_4SCEVE
libbcc.so.0:_ZN4llvm15ScalarEvolution10getUnknownEPNS_5ValueE
libbcc.so.0:_ZN4llvm15ScalarEvolution10invalidateERNS_8FunctionERKNS_17PreservedAnalysesERNS_15AnalysisManagerIS1_JEE11InvalidatorE
libbcc.so.0:_ZN4llvm15ScalarEvolution11forgetValueEPNS_5ValueE
libbcc.so.0:_ZN4llvm15ScalarEvolution11getCastExprENS_9SCEVTypesEPKNS_4SCEVEPNS_4TypeE
libbcc.so.0:_ZN4llvm15ScalarEvolution11getConstantEPNS_11ConstantIntE
libbcc.so.0:_ZN4llvm15ScalarEvolution11getConstantEPNS_4TypeEmb
libbcc.so.0:_ZN4llvm15ScalarEvolution11getConstantERKNS_5APIntE
libbcc.so.0:_ZN4llvm15ScalarEvolution11getRangeRefEPKNS_4SCEVENS0_13RangeSignHintE
libbcc.so.0:_ZN4llvm15ScalarEvolution11getSMaxExprEPKNS_4SCEVES3_
libbcc.so.0:_ZN4llvm15ScalarEvolution11getSMaxExprERNS_15SmallVectorImplIPKNS_4SCEVEEE
libbcc.so.0:_ZN4llvm15ScalarEvolution11getSMinExprEPKNS_4SCEVES3_
libbcc.so.0:_ZN4llvm15ScalarEvolution11getSMinExprERNS_15SmallVectorImplIPKNS_4SCEVEEE
libbcc.so.0:_ZN4llvm15ScalarEvolution11getUDivExprEPKNS_4SCEVES3_
libbcc.so.0:_ZN4llvm15ScalarEvolution11getUMaxExprEPKNS_4SCEVES3_
libbcc.so.0:_ZN4llvm15ScalarEvolution11getUMaxExprERNS_15SmallVectorImplIPKNS_4SCEVEEE
libbcc.so.0:_ZN4llvm15ScalarEvolution11getUMinExprEPKNS_4SCEVES3_b
libbcc.so.0:_ZN4llvm15ScalarEvolution11getUMinExprERNS_15SmallVectorImplIPKNS_4SCEVEEEb
libbcc.so.0:_ZN4llvm15ScalarEvolution11getURemExprEPKNS_4SCEVES3_
libbcc.so.0:_ZN4llvm15ScalarEvolution12getExitCountEPKNS_4LoopEPKNS_10BasicBlockENS0_13ExitCountKindE
libbcc.so.0:_ZN4llvm15ScalarEvolution12getMinusSCEVEPKNS_4SCEVES3_NS1_11NoWrapFlagsEj
libbcc.so.0:_ZN4llvm15ScalarEvolution12getUsedLoopsEPKNS_4SCEVERNS_15SmallPtrSetImplIPKNS_4LoopEEE
libbcc.so.0:_ZN4llvm15ScalarEvolution12howFarToZeroEPKNS_4SCEVEPKNS_4LoopEbb
libbcc.so.0:_ZN4llvm15ScalarEvolution12registerUserEPKNS_4SCEVENS_8ArrayRefIS3_EE
libbcc.so.0:_ZN4llvm15ScalarEvolution13getAddRecExprEPKNS_4SCEVES3_PKNS_4LoopENS1_11NoWrapFlagsE
libbcc.so.0:_ZN4llvm15ScalarEvolution13getAddRecExprERNS_15SmallVectorImplIPKNS_4SCEVEEEPKNS_4LoopENS2_11NoWrapFlagsE
libbcc.so.0:_ZN4llvm15ScalarEvolution13getMinMaxExprENS_9SCEVTypesERNS_15SmallVectorImplIPKNS_4SCEVEEE
libbcc.so.0:_ZN4llvm15ScalarEvolution13getSCEVValuesEPKNS_4SCEVE
libbcc.so.0:_ZN4llvm15ScalarEvolution13getSizeOfExprEPNS_4TypeES2_
libbcc.so.0:_ZN4llvm15ScalarEvolution13isImpliedCondENS_7CmpInst9PredicateEPKNS_4SCEVES5_PKNS_5ValueEbPKNS_11InstructionE
libbcc.so.0:_ZN4llvm15ScalarEvolution13isImpliedCondENS_7CmpInst9PredicateEPKNS_4SCEVES5_S2_S5_S5_PKNS_11InstructionE
libbcc.so.0:_ZN4llvm15ScalarEvolution14ExitLimitCache4findEPKNS_4LoopEPNS_5ValueEbbb
libbcc.so.0:_ZN4llvm15ScalarEvolution14ExitLimitCache6insertEPKNS_4LoopEPNS_5ValueEbbbRKNS0_9ExitLimitE
libbcc.so.0:_ZN4llvm15ScalarEvolution14SCEVCallbackVH19allUsesReplacedWithEPNS_5ValueE
libbcc.so.0:_ZN4llvm15ScalarEvolution14SCEVCallbackVH7deletedEv
libbcc.so.0:_ZN4llvm15ScalarEvolution14SCEVCallbackVHC1EPNS_5ValueEPS0_
libbcc.so.0:_ZN4llvm15ScalarEvolution14SCEVCallbackVHC2EPNS_5ValueEPS0_
libbcc.so.0:_ZN4llvm15ScalarEvolution14createSCEVIterEPNS_5ValueE
libbcc.so.0:_ZN4llvm15ScalarEvolution14forgetAllLoopsEv
libbcc.so.0:_ZN4llvm15ScalarEvolution14getElementSizeEPNS_11InstructionE
libbcc.so.0:_ZN4llvm15ScalarEvolution14getPointerBaseEPKNS_4SCEVE
libbcc.so.0:_ZN4llvm15ScalarEvolution14getSCEVAtScopeEPKNS_4SCEVEPKNS_4LoopE
libbcc.so.0:_ZN4llvm15ScalarEvolution14getSCEVAtScopeEPNS_5ValueEPKNS_4LoopE
libbcc.so.0:_ZN4llvm15ScalarEvolution14isKnownNonZeroEPKNS_4SCEVE
libbcc.so.0:_ZN4llvm15ScalarEvolution14setNoWrapFlagsEPNS_14SCEVAddRecExprENS_4SCEV11NoWrapFlagsE
libbcc.so.0:_ZN4llvm15ScalarEvolution14splitBinaryAddEPKNS_4SCEVERS3_S4_RNS1_11NoWrapFlagsE
libbcc.so.0:_ZN4llvm15ScalarEvolution15applyLoopGuardsEPKNS_4SCEVEPKNS_4LoopE
libbcc.so.0:_ZN4llvm15ScalarEvolution15getExistingSCEVEPNS_5ValueE
libbcc.so.0:_ZN4llvm15ScalarEvolution15getNegativeSCEVEPKNS_4SCEVENS1_11NoWrapFlagsE
libbcc.so.0:_ZN4llvm15ScalarEvolution15getOffsetOfExprEPNS_4TypeEPNS_10StructTypeEj
libbcc.so.0:_ZN4llvm15ScalarEvolution15getPtrToIntExprEPKNS_4SCEVEPNS_4TypeE
libbcc.so.0:_ZN4llvm15ScalarEvolution15getTruncateExprEPKNS_4SCEVEPNS_4TypeEj
libbcc.so.0:_ZN4llvm15ScalarEvolution15getUDivCeilSCEVEPKNS_4SCEVES3_
libbcc.so.0:_ZN4llvm15ScalarEvolution15howFarToNonZeroEPKNS_4SCEVEPKNS_4LoopE
libbcc.so.0:_ZN4llvm15ScalarEvolution15isKnownNegativeEPKNS_4SCEVE
libbcc.so.0:_ZN4llvm15ScalarEvolution15isKnownPositiveEPKNS_4SCEVE
libbcc.so.0:_ZN4llvm15ScalarEvolution15isLoopInvariantEPKNS_4SCEVEPKNS_4LoopE
libbcc.so.0:_ZN4llvm15ScalarEvolution15willNotOverflowENS_11Instruction9BinaryOpsEbPKNS_4SCEVES5_
libbcc.so.0:_ZN4llvm15ScalarEvolution16computeExitLimitEPKNS_4LoopEPNS_10BasicBlockEb
libbcc.so.0:_ZN4llvm15ScalarEvolution16createNodeForGEPEPNS_11GEPOperatorE
libbcc.so.0:_ZN4llvm15ScalarEvolution16createNodeForPHIEPNS_7PHINodeE
libbcc.so.0:_ZN4llvm15ScalarEvolution16getAnyExtendExprEPKNS_4SCEVEPNS_4TypeE
libbcc.so.0:_ZN4llvm15ScalarEvolution16getUDivExactExprEPKNS_4SCEVES3_
libbcc.so.0:_ZN4llvm15ScalarEvolution16getWrapPredicateEPKNS_14SCEVAddRecExprENS_17SCEVWrapPredicate18IncrementWrapFlagsE
libbcc.so.0:_ZN4llvm15ScalarEvolution16howManyLessThansEPKNS_4SCEVES3_PKNS_4LoopEbbb
libbcc.so.0:_ZN4llvm15ScalarEvolution16insertValueToMapEPNS_5ValueEPKNS_4SCEVE
libbcc.so.0:_ZN4llvm15ScalarEvolution16isKnownPredicateENS_7CmpInst9PredicateEPKNS_4SCEVES5_
libbcc.so.0:_ZN4llvm15ScalarEvolution17BackedgeTakenInfo14getSymbolicMaxEPKNS_4LoopEPS0_
libbcc.so.0:_ZN4llvm15ScalarEvolution17BackedgeTakenInfoC1ENS_8ArrayRefISt4pairIPNS_10BasicBlockENS0_9ExitLimitEEEEbPKNS_4SCEVEb
libbcc.so.0:_ZN4llvm15ScalarEvolution17BackedgeTakenInfoC2ENS_8ArrayRefISt4pairIPNS_10BasicBlockENS0_9ExitLimitEEEEbPKNS_4SCEVEb
libbcc.so.0:_ZN4llvm15ScalarEvolution17canIVOverflowOnGTEPKNS_4SCEVES3_b
libbcc.so.0:_ZN4llvm15ScalarEvolution17canIVOverflowOnLTEPKNS_4SCEVES3_b
libbcc.so.0:_ZN4llvm15ScalarEvolution17eraseValueFromMapEPNS_5ValueE
libbcc.so.0:_ZN4llvm15ScalarEvolution17evaluatePredicateENS_7CmpInst9PredicateEPKNS_4SCEVES5_
libbcc.so.0:_ZN4llvm15ScalarEvolution17forgetTopmostLoopEPKNS_4LoopE
libbcc.so.0:_ZN4llvm15ScalarEvolution17getEqualPredicateEPKNS_4SCEVES3_
libbcc.so.0:_ZN4llvm15ScalarEvolution17getLoopPropertiesEPKNS_4LoopE
libbcc.so.0:_ZN4llvm15ScalarEvolution17getSignExtendExprEPKNS_4SCEVEPNS_4TypeEj
libbcc.so.0:_ZN4llvm15ScalarEvolution17getTruncateOrNoopEPKNS_4SCEVEPNS_4TypeE
libbcc.so.0:_ZN4llvm15ScalarEvolution17getZeroExtendExprEPKNS_4SCEVEPNS_4TypeEj
libbcc.so.0:_ZN4llvm15ScalarEvolution17isImpliedViaGuardEPKNS_10BasicBlockENS_7CmpInst9PredicateEPKNS_4SCEVES8_
libbcc.so.0:_ZN4llvm15ScalarEvolution17isImpliedViaMergeENS_7CmpInst9PredicateEPKNS_4SCEVES5_S5_S5_j
libbcc.so.0:_ZN4llvm15ScalarEvolution17properlyDominatesEPKNS_4SCEVEPKNS_10BasicBlockE
libbcc.so.0:_ZN4llvm15ScalarEvolution17removePointerBaseEPKNS_4SCEVE
libbcc.so.0:_ZN4llvm15ScalarEvolution18computeSCEVAtScopeEPKNS_4SCEVEPKNS_4LoopE
libbcc.so.0:_ZN4llvm15ScalarEvolution18getCouldNotComputeEv
libbcc.so.0:_ZN4llvm15ScalarEvolution18getLoopDispositionEPKNS_4SCEVEPKNS_4LoopE
libbcc.so.0:_ZN4llvm15ScalarEvolution18getNoopOrAnyExtendEPKNS_4SCEVEPNS_4TypeE
libbcc.so.0:_ZN4llvm15ScalarEvolution18getOrCreateAddExprENS_8ArrayRefIPKNS_4SCEVEEENS2_11NoWrapFlagsE
libbcc.so.0:_ZN4llvm15ScalarEvolution18getOrCreateMulExprENS_8ArrayRefIPKNS_4SCEVEEENS2_11NoWrapFlagsE
libbcc.so.0:_ZN4llvm15ScalarEvolution18getReachableBlocksERNS_15SmallPtrSetImplIPNS_10BasicBlockEEERNS_8FunctionE
libbcc.so.0:_ZN4llvm15ScalarEvolution18getStoreSizeOfExprEPNS_4TypeES2_
libbcc.so.0:_ZN4llvm15ScalarEvolution18isKnownNonNegativeEPKNS_4SCEVE
libbcc.so.0:_ZN4llvm15ScalarEvolution18isKnownNonPositiveEPKNS_4SCEVE
libbcc.so.0:_ZN4llvm15ScalarEvolution18isKnownPredicateAtENS_7CmpInst9PredicateEPKNS_4SCEVES5_PKNS_11InstructionE
libbcc.so.0:_ZN4llvm15ScalarEvolution19GetMinTrailingZerosEPKNS_4SCEVE
libbcc.so.0:_ZN4llvm15ScalarEvolution19createAddRecFromPHIEPNS_7PHINodeE
libbcc.so.0:_ZN4llvm15ScalarEvolution19evaluatePredicateAtENS_7CmpInst9PredicateEPKNS_4SCEVES5_PKNS_11InstructionE
libbcc.so.0:_ZN4llvm15ScalarEvolution19getBlockDispositionEPKNS_4SCEVEPKNS_10BasicBlockE
libbcc.so.0:_ZN4llvm15ScalarEvolution19getComparePredicateENS_7CmpInst9PredicateEPKNS_4SCEVES5_
libbcc.so.0:_ZN4llvm15ScalarEvolution19getNoopOrSignExtendEPKNS_4SCEVEPNS_4TypeE
libbcc.so.0:_ZN4llvm15ScalarEvolution19getNoopOrZeroExtendEPKNS_4SCEVEPNS_4TypeE
libbcc.so.0:_ZN4llvm15ScalarEvolution19getOperandsToCreateEPNS_5ValueERNS_15SmallVectorImplIS2_EE
libbcc.so.0:_ZN4llvm15ScalarEvolution19getRangeForAffineAREPKNS_4SCEVES3_S3_j
libbcc.so.0:_ZN4llvm15ScalarEvolution19howManyGreaterThansEPKNS_4SCEVES3_PKNS_4LoopEbbb
libbcc.so.0:_ZN4llvm15ScalarEvolution19isAddRecNeverPoisonEPKNS_11InstructionEPKNS_4LoopE
libbcc.so.0:_ZN4llvm15ScalarEvolution19isKnownViaInductionENS_7CmpInst9PredicateEPKNS_4SCEVES5_
libbcc.so.0:_ZN4llvm15ScalarEvolution20SimplifyICmpOperandsERNS_7CmpInst9PredicateERPKNS_4SCEVES7_jb
libbcc.so.0:_ZN4llvm15ScalarEvolution20getBackedgeTakenInfoEPKNS_4LoopE
libbcc.so.0:_ZN4llvm15ScalarEvolution20getNoWrapFlagsFromUBEPKNS_5ValueE
libbcc.so.0:_ZN4llvm15ScalarEvolution20getRangeViaFactoringEPKNS_4SCEVES3_S3_j
libbcc.so.0:_ZN4llvm15ScalarEvolution21containsAddRecurrenceEPKNS_4SCEVE
libbcc.so.0:_ZN4llvm15ScalarEvolution21forgetMemoizedResultsENS_8ArrayRefIPKNS_4SCEVEEE
libbcc.so.0:_ZN4llvm15ScalarEvolution21getBackedgeTakenCountEPKNS_4LoopENS0_13ExitCountKindE
libbcc.so.0:_ZN4llvm15ScalarEvolution21getDefiningScopeBoundENS_8ArrayRefIPKNS_4SCEVEEE
libbcc.so.0:_ZN4llvm15ScalarEvolution21getDefiningScopeBoundENS_8ArrayRefIPKNS_4SCEVEEERb
libbcc.so.0:_ZN4llvm15ScalarEvolution21getOrCreateAddRecExprENS_8ArrayRefIPKNS_4SCEVEEEPKNS_4LoopENS2_11NoWrapFlagsE
libbcc.so.0:_ZN4llvm15ScalarEvolution21isImpliedCondOperandsENS_7CmpInst9PredicateEPKNS_4SCEVES5_S5_S5_PKNS_11InstructionE
libbcc.so.0:_ZN4llvm15ScalarEvolution21isSCEVExprNeverPoisonEPKNS_11InstructionE
libbcc.so.0:_ZN4llvm15ScalarEvolution21rewriteUsingPredicateEPKNS_4SCEVEPKNS_4LoopERKNS_13SCEVPredicateE
libbcc.so.0:_ZN4llvm15ScalarEvolution22computeLoopDispositionEPKNS_4SCEVEPKNS_4LoopE
libbcc.so.0:_ZN4llvm15ScalarEvolution22computeMaxBECountForLTEPKNS_4SCEVES3_S3_jb
libbcc.so.0:_ZN4llvm15ScalarEvolution22forgetLoopDispositionsEPKNS_4LoopE
libbcc.so.0:_ZN4llvm15ScalarEvolution22isAvailableAtLoopEntryEPKNS_4SCEVEPKNS_4LoopE
libbcc.so.0:_ZN4llvm15ScalarEvolution22isImpliedViaOperationsENS_7CmpInst9PredicateEPKNS_4SCEVES5_S5_S5_j
libbcc.so.0:_ZN4llvm15ScalarEvolution23GetMinTrailingZerosImplEPKNS_4SCEVE
libbcc.so.0:_ZN4llvm15ScalarEvolution23SplitIntoInitAndPostIncEPKNS_4LoopEPKNS_4SCEVE
libbcc.so.0:_ZN4llvm15ScalarEvolution23computeBlockDispositionEPKNS_4SCEVEPKNS_10BasicBlockE
libbcc.so.0:_ZN4llvm15ScalarEvolution23findExistingSCEVInCacheENS_9SCEVTypesENS_8ArrayRefIPKNS_4SCEVEEE
libbcc.so.0:_ZN4llvm15ScalarEvolution23getLosslessPtrToIntExprEPKNS_4SCEVEj
libbcc.so.0:_ZN4llvm15ScalarEvolution23getSequentialMinMaxExprENS_9SCEVTypesERNS_15SmallVectorImplIPKNS_4SCEVEEE
libbcc.so.0:_ZN4llvm15ScalarEvolution23getTruncateOrSignExtendEPKNS_4SCEVEPNS_4TypeEj
libbcc.so.0:_ZN4llvm15ScalarEvolution23getTruncateOrZeroExtendEPKNS_4SCEVEPNS_4TypeEj
libbcc.so.0:_ZN4llvm15ScalarEvolution23isKnownOnEveryIterationENS_7CmpInst9PredicateEPKNS_14SCEVAddRecExprEPKNS_4SCEVE
libbcc.so.0:_ZN4llvm15ScalarEvolution24computeExitLimitFromCondEPKNS_4LoopEPNS_5ValueEbbb
libbcc.so.0:_ZN4llvm15ScalarEvolution24computeExitLimitFromICmpEPKNS_4LoopENS_7CmpInst9PredicateEPKNS_4SCEVES8_bb
libbcc.so.0:_ZN4llvm15ScalarEvolution24computeExitLimitFromICmpEPKNS_4LoopEPNS_8ICmpInstEbbb
libbcc.so.0:_ZN4llvm15ScalarEvolution24createNodeForSelectOrPHIEPNS_5ValueES2_S2_S2_
libbcc.so.0:_ZN4llvm15ScalarEvolution24createSimpleAffineAddRecEPNS_7PHINodeEPNS_5ValueES4_
libbcc.so.0:_ZN4llvm15ScalarEvolution24isLoopEntryGuardedByCondEPKNS_4LoopENS_7CmpInst9PredicateEPKNS_4SCEVES8_
libbcc.so.0:_ZN4llvm15ScalarEvolution24loopIsFiniteByAssumptionEPKNS_4LoopE
libbcc.so.0:_ZN4llvm15ScalarEvolution25computeBackedgeTakenCountEPKNS_4LoopEb
libbcc.so.0:_ZN4llvm15ScalarEvolution25computeConstantDifferenceEPKNS_4SCEVES3_
libbcc.so.0:_ZN4llvm15ScalarEvolution25forgetBackedgeTakenCountsEPKNS_4LoopEb
libbcc.so.0:_ZN4llvm15ScalarEvolution25forgetMemoizedResultsImplEPKNS_4SCEVE
libbcc.so.0:_ZN4llvm15ScalarEvolution25getLoopInvariantPredicateENS_7CmpInst9PredicateEPKNS_4SCEVES5_PKNS_4LoopE
libbcc.so.0:_ZN4llvm15ScalarEvolution25getMonotonicPredicateTypeEPKNS_14SCEVAddRecExprENS_7CmpInst9PredicateE
libbcc.so.0:_ZN4llvm15ScalarEvolution25getSmallConstantTripCountEPKNS_4LoopE
libbcc.so.0:_ZN4llvm15ScalarEvolution25getSmallConstantTripCountEPKNS_4LoopEPKNS_10BasicBlockE
libbcc.so.0:_ZN4llvm15ScalarEvolution25getTripCountFromExitCountEPKNS_4SCEVEb
libbcc.so.0:_ZN4llvm15ScalarEvolution26getUMaxFromMismatchedTypesEPKNS_4SCEVES3_
libbcc.so.0:_ZN4llvm15ScalarEvolution26getUMinFromMismatchedTypesEPKNS_4SCEVES3_b
libbcc.so.0:_ZN4llvm15ScalarEvolution26getUMinFromMismatchedTypesERNS_15SmallVectorImplIPKNS_4SCEVEEEb
libbcc.so.0:_ZN4llvm15ScalarEvolution26hasComputableLoopEvolutionEPKNS_4SCEVEPKNS_4LoopE
libbcc.so.0:_ZN4llvm15ScalarEvolution26isImpliedCondBalancedTypesENS_7CmpInst9PredicateEPKNS_4SCEVES5_S2_S5_S5_PKNS_11InstructionE
libbcc.so.0:_ZN4llvm15ScalarEvolution27createNodeFromSelectLikePHIEPNS_7PHINodeE
libbcc.so.0:_ZN4llvm15ScalarEvolution27getSizeOfScalableVectorExprEPNS_4TypeEPNS_18ScalableVectorTypeE
libbcc.so.0:_ZN4llvm15ScalarEvolution27isImpliedCondOperandsHelperENS_7CmpInst9PredicateEPKNS_4SCEVES5_S5_S5_
libbcc.so.0:_ZN4llvm15ScalarEvolution27isLoopBackedgeGuardedByCondEPKNS_4LoopENS_7CmpInst9PredicateEPKNS_4SCEVES8_
libbcc.so.0:_ZN4llvm15ScalarEvolution28computeExitCountExhaustivelyEPKNS_4LoopEPNS_5ValueEb
libbcc.so.0:_ZN4llvm15ScalarEvolution28computeExitLimitFromCondImplERNS0_14ExitLimitCacheEPKNS_4LoopEPNS_5ValueEbbb
libbcc.so.0:_ZN4llvm15ScalarEvolution28computeShiftCompareExitLimitEPNS_5ValueES2_PKNS_4LoopENS_7CmpInst9PredicateE
libbcc.so.0:_ZN4llvm15ScalarEvolution28createAddRecFromPHIWithCastsEPKNS_11SCEVUnknownE
libbcc.so.0:_ZN4llvm15ScalarEvolution28getRangeForUnknownRecurrenceEPKNS_11SCEVUnknownE
libbcc.so.0:_ZN4llvm15ScalarEvolution28getSmallConstantMaxTripCountEPKNS_4LoopE
libbcc.so.0:_ZN4llvm15ScalarEvolution28getSmallConstantTripMultipleEPKNS_4LoopE
libbcc.so.0:_ZN4llvm15ScalarEvolution28getSmallConstantTripMultipleEPKNS_4LoopEPKNS_10BasicBlockE
libbcc.so.0:_ZN4llvm15ScalarEvolution28getSmallConstantTripMultipleEPKNS_4LoopEPKNS_4SCEVE
libbcc.so.0:_ZN4llvm15ScalarEvolution28isKnownPredicateViaSplittingENS_7CmpInst9PredicateEPKNS_4SCEVES5_
libbcc.so.0:_ZN4llvm15ScalarEvolution28proveNoWrapViaConstantRangesEPKNS_14SCEVAddRecExprE
libbcc.so.0:_ZN4llvm15ScalarEvolution29getMonotonicPredicateTypeImplEPKNS_14SCEVAddRecExprENS_7CmpInst9PredicateE
libbcc.so.0:_ZN4llvm15ScalarEvolution29isBackedgeTakenCountMaxOrZeroEPKNS_4LoopE
libbcc.so.0:_ZN4llvm15ScalarEvolution29isImpliedCondOperandsViaShiftENS_7CmpInst9PredicateEPKNS_4SCEVES5_S5_S5_
libbcc.so.0:_ZN4llvm15ScalarEvolution29isKnownPredicateViaNoOverflowENS_7CmpInst9PredicateEPKNS_4SCEVES5_
libbcc.so.0:_ZN4llvm15ScalarEvolution29proveNoSignedWrapViaInductionEPKNS_14SCEVAddRecExprE
libbcc.so.0:_ZN4llvm15ScalarEvolution30computeExitLimitFromCondCachedERNS0_14ExitLimitCacheEPKNS_4LoopEPNS_5ValueEbbb
libbcc.so.0:_ZN4llvm15ScalarEvolution30getPredicatedBackedgeTakenInfoEPKNS_4LoopE
libbcc.so.0:_ZN4llvm15ScalarEvolution30isBasicBlockEntryGuardedByCondEPKNS_10BasicBlockENS_7CmpInst9PredicateEPKNS_4SCEVES8_
libbcc.so.0:_ZN4llvm15ScalarEvolution30isImpliedCondOperandsViaRangesENS_7CmpInst9PredicateEPKNS_4SCEVES5_S5_S5_
libbcc.so.0:_ZN4llvm15ScalarEvolution31getNonTrivialDefiningScopeBoundEPKNS_4SCEVE
libbcc.so.0:_ZN4llvm15ScalarEvolution31getPredicatedBackedgeTakenCountEPKNS_4LoopERNS_11SmallVectorIPKNS_13SCEVPredicateELj4EEE
libbcc.so.0:_ZN4llvm15ScalarEvolution31isKnownViaNonRecursiveReasoningENS_7CmpInst9PredicateEPKNS_4SCEVES5_
libbcc.so.0:_ZN4llvm15ScalarEvolution31proveNoUnsignedWrapViaInductionEPKNS_14SCEVAddRecExprE
libbcc.so.0:_ZN4llvm15ScalarEvolution32createAddRecFromPHIWithCastsImplEPKNS_11SCEVUnknownE
libbcc.so.0:_ZN4llvm15ScalarEvolution32getConstantMaxTripCountFromArrayEPKNS_4LoopE
libbcc.so.0:_ZN4llvm15ScalarEvolution33computeExitLimitFromCondFromBinOpERNS0_14ExitLimitCacheEPKNS_4LoopEPNS_5ValueEbbb
libbcc.so.0:_ZN4llvm15ScalarEvolution33convertSCEVToAddRecWithPredicatesEPKNS_4SCEVEPKNS_4LoopERNS_15SmallPtrSetImplIPKNS_13SCEVPredicateEEE
libbcc.so.0:_ZN4llvm15ScalarEvolution33getConstantEvolutionLoopExitValueEPNS_7PHINodeERKNS_5APIntEPKNS_4LoopE
libbcc.so.0:_ZN4llvm15ScalarEvolution33getRangeForAffineNoSelfWrappingAREPKNS_14SCEVAddRecExprEPKNS_4SCEVEjNS0_13RangeSignHintE
libbcc.so.0:_ZN4llvm15ScalarEvolution33isGuaranteedToTransferExecutionToEPKNS_11InstructionES3_
libbcc.so.0:_ZN4llvm15ScalarEvolution33isKnownPredicateViaConstantRangesENS_7CmpInst9PredicateEPKNS_4SCEVES5_
libbcc.so.0:_ZN4llvm15ScalarEvolution34createNodeForSelectOrPHIViaUMinSeqEPNS_5ValueES2_S2_S2_
libbcc.so.0:_ZN4llvm15ScalarEvolution34hasLoopInvariantBackedgeTakenCountEPKNS_4LoopE
libbcc.so.0:_ZN4llvm15ScalarEvolution34instructionCouldExistWitthOperandsEPKNS_4SCEVES3_
libbcc.so.0:_ZN4llvm15ScalarEvolution34isImpliedCondOperandsViaNoOverflowENS_7CmpInst9PredicateEPKNS_4SCEVES5_S5_S5_
libbcc.so.0:_ZN4llvm15ScalarEvolution35getStrengthenedNoWrapFlagsFromBinOpEPKNS_25OverflowingBinaryOperatorE
libbcc.so.0:_ZN4llvm15ScalarEvolution35isImpliedCondOperandsViaAddRecStartENS_7CmpInst9PredicateEPKNS_4SCEVES5_S5_S5_PKNS_11InstructionE
libbcc.so.0:_ZN4llvm15ScalarEvolution36computeExitLimitFromSingleExitSwitchEPKNS_4LoopEPNS_10SwitchInstEPNS_10BasicBlockEb
libbcc.so.0:_ZN4llvm15ScalarEvolution36computeSymbolicMaxBackedgeTakenCountEPKNS_4LoopE
libbcc.so.0:_ZN4llvm15ScalarEvolution44createNodeForSelectOrPHIInstWithICmpInstCondEPNS_11InstructionEPNS_8ICmpInstEPNS_5ValueES6_
libbcc.so.0:_ZN4llvm15ScalarEvolution45getLoopInvariantExitCondDuringFirstIterationsENS_7CmpInst9PredicateEPKNS_4SCEVES5_PKNS_4LoopEPKNS_11InstructionES5_
libbcc.so.0:_ZN4llvm15ScalarEvolution7getSCEVEPNS_5ValueE
libbcc.so.0:_ZN4llvm15ScalarEvolution9ExitLimitC1EPKNS_4SCEVE
libbcc.so.0:_ZN4llvm15ScalarEvolution9ExitLimitC1EPKNS_4SCEVES4_b
libbcc.so.0:_ZN4llvm15ScalarEvolution9ExitLimitC1EPKNS_4SCEVES4_bNS_8ArrayRefIPKNS_15SmallPtrSetImplIPKNS_13SCEVPredicateEEEEE
libbcc.so.0:_ZN4llvm15ScalarEvolution9ExitLimitC1EPKNS_4SCEVES4_bRKNS_15SmallPtrSetImplIPKNS_13SCEVPredicateEEE
libbcc.so.0:_ZN4llvm15ScalarEvolution9ExitLimitC2EPKNS_4SCEVE
libbcc.so.0:_ZN4llvm15ScalarEvolution9ExitLimitC2EPKNS_4SCEVES4_b
libbcc.so.0:_ZN4llvm15ScalarEvolution9ExitLimitC2EPKNS_4SCEVES4_bNS_8ArrayRefIPKNS_15SmallPtrSetImplIPKNS_13SCEVPredicateEEEEE
libbcc.so.0:_ZN4llvm15ScalarEvolution9ExitLimitC2EPKNS_4SCEVES4_bRKNS_15SmallPtrSetImplIPKNS_13SCEVPredicateEEE
libbcc.so.0:_ZN4llvm15ScalarEvolution9dominatesEPKNS_4SCEVEPKNS_10BasicBlockE
libbcc.so.0:_ZN4llvm15ScalarEvolution9matchURemEPKNS_4SCEVERS3_S4_
libbcc.so.0:_ZN4llvm15ScalarEvolutionC1EOS0_
libbcc.so.0:_ZN4llvm15ScalarEvolutionC1ERNS_8FunctionERNS_17TargetLibraryInfoERNS_15AssumptionCacheERNS_13DominatorTreeERNS_8LoopInfoE
libbcc.so.0:_ZN4llvm15ScalarEvolutionC2EOS0_
libbcc.so.0:_ZN4llvm15ScalarEvolutionC2ERNS_8FunctionERNS_17TargetLibraryInfoERNS_15AssumptionCacheERNS_13DominatorTreeERNS_8LoopInfoE
libbcc.so.0:_ZN4llvm15ScalarEvolutionD1Ev
libbcc.so.0:_ZN4llvm15ScalarEvolutionD2Ev
libbcc.so.0:_ZN4llvm15ScopedNoAliasAA3runERNS_8FunctionERNS_15AnalysisManagerIS1_JEEE
libbcc.so.0:_ZN4llvm15SignpostEmitter11endIntervalEPKvNS_9StringRefE
libbcc.so.0:_ZN4llvm15SignpostEmitter13startIntervalEPKvNS_9StringRefE
libbcc.so.0:_ZN4llvm15SignpostEmitterC1Ev
libbcc.so.0:_ZN4llvm15SignpostEmitterC2Ev
libbcc.so.0:_ZN4llvm15SignpostEmitterD1Ev
libbcc.so.0:_ZN4llvm15SignpostEmitterD2Ev
libbcc.so.0:_ZN4llvm15SimplifyCFGPass13printPipelineERNS_11raw_ostreamENS_12function_refIFNS_9StringRefES4_EEE
libbcc.so.0:_ZN4llvm15SimplifyCFGPass3runERNS_8FunctionERNS_15AnalysisManagerIS1_JEEE
libbcc.so.0:_ZN4llvm15SimplifyCFGPassC1ERKNS_18SimplifyCFGOptionsE
libbcc.so.0:_ZN4llvm15SimplifyCFGPassC1Ev
libbcc.so.0:_ZN4llvm15SimplifyCFGPassC2ERKNS_18SimplifyCFGOptionsE
libbcc.so.0:_ZN4llvm15SimplifyCFGPassC2Ev
libbcc.so.0:_ZN4llvm15SpecialCaseList11createOrDieERKSt6vectorINSt7__cxx1112basic_stringIcSt11char_traitsIcESaIcEEESaIS7_EERNS_3vfs10FileSystemE
libbcc.so.0:_ZN4llvm15SpecialCaseList14createInternalEPKNS_12MemoryBufferERNSt7__cxx1112basic_stringIcSt11char_traitsIcESaIcEEE
libbcc.so.0:_ZN4llvm15SpecialCaseList14createInternalERKSt6vectorINSt7__cxx1112basic_stringIcSt11char_traitsIcESaIcEEESaIS7_EERNS_3vfs10FileSystemERS7_
libbcc.so.0:_ZN4llvm15SpecialCaseList5parseEPKNS_12MemoryBufferERNS_9StringMapImNS_15MallocAllocatorEEERNSt7__cxx1112basic_stringIcSt11char_traitsIcESaIcEEE
libbcc.so.0:_ZN4llvm15SpecialCaseList6createEPKNS_12MemoryBufferERNSt7__cxx1112basic_stringIcSt11char_traitsIcESaIcEEE
libbcc.so.0:_ZN4llvm15SpecialCaseList6createERKSt6vectorINSt7__cxx1112basic_stringIcSt11char_traitsIcESaIcEEESaIS7_EERNS_3vfs10FileSystemERS7_
libbcc.so.0:_ZN4llvm15SpecialCaseList7Matcher6insertENSt7__cxx1112basic_stringIcSt11char_traitsIcESaIcEEEjRS7_
libbcc.so.0:_ZN4llvm15SpecialCaseListD1Ev
libbcc.so.0:_ZN4llvm15SpecialCaseListD2Ev
libbcc.so.0:_ZN4llvm15StackSafetyInfoC1EOS0_
libbcc.so.0:_ZN4llvm15StackSafetyInfoC1EPNS_8FunctionESt8functionIFRNS_15ScalarEvolutionEvEE
libbcc.so.0:_ZN4llvm15StackSafetyInfoC1Ev
libbcc.so.0:_ZN4llvm15StackSafetyInfoC2EOS0_
libbcc.so.0:_ZN4llvm15StackSafetyInfoC2EPNS_8FunctionESt8functionIFRNS_15ScalarEvolutionEvEE
libbcc.so.0:_ZN4llvm15StackSafetyInfoC2Ev
libbcc.so.0:_ZN4llvm15StackSafetyInfoD1Ev
libbcc.so.0:_ZN4llvm15StackSafetyInfoD2Ev
libbcc.so.0:_ZN4llvm15StackSafetyInfoaSEOS0_
libbcc.so.0:_ZN4llvm15StatepointOpers14getNumGCPtrIdxEv
libbcc.so.0:_ZN4llvm15StatepointOpers15getGCPointerMapERNS_15SmallVectorImplISt4pairIjjEEE
libbcc.so.0:_ZN4llvm15StatepointOpers15getNumAllocaIdxEv
libbcc.so.0:_ZN4llvm15StatepointOpers16getFirstGCPtrIdxEv
libbcc.so.0:_ZN4llvm15StatepointOpers21getNumGcMapEntriesIdxEv
libbcc.so.0:_ZN4llvm15TargetInstrInfo17PipelinerLoopInfoD0Ev
libbcc.so.0:_ZN4llvm15TargetInstrInfo17PipelinerLoopInfoD1Ev
libbcc.so.0:_ZN4llvm15TargetInstrInfo17PipelinerLoopInfoD2Ev
libbcc.so.0:_ZN4llvm15TargetInstrInfo20fixCommutedOpIndicesERjS1_jj
libbcc.so.0:_ZN4llvm15TargetInstrInfoD0Ev
libbcc.so.0:_ZN4llvm15TargetInstrInfoD1Ev
libbcc.so.0:_ZN4llvm15TargetInstrInfoD2Ev
libbcc.so.0:_ZN4llvm15UnreachableInstC1ERNS_11LLVMContextEPNS_10BasicBlockE
libbcc.so.0:_ZN4llvm15UnreachableInstC1ERNS_11LLVMContextEPNS_11InstructionE
libbcc.so.0:_ZN4llvm15UnreachableInstC2ERNS_11LLVMContextEPNS_10BasicBlockE
libbcc.so.0:_ZN4llvm15UnreachableInstC2ERNS_11LLVMContextEPNS_11InstructionE
libbcc.so.0:_ZN4llvm15UpgradeTBAANodeERNS_6MDNodeE
libbcc.so.0:_ZN4llvm15VPCastIntrinsic8isVPCastEj
libbcc.so.0:_ZN4llvm15VPRecipeBuilder10tryToBlendEPNS_7PHINodeENS_8ArrayRefIPNS_7VPValueEEERSt10unique_ptrINS_5VPlanESt14default_deleteIS8_EE
libbcc.so.0:_ZN4llvm15VPRecipeBuilder13fixHeaderPhisEv
libbcc.so.0:_ZN4llvm15VPRecipeBuilder14createEdgeMaskEPNS_10BasicBlockES2_RSt10unique_ptrINS_5VPlanESt14default_deleteIS4_EE
libbcc.so.0:_ZN4llvm15VPRecipeBuilder16tryToWidenMemoryEPNS_11InstructionENS_8ArrayRefIPNS_7VPValueEEERNS_7VFRangeERSt10unique_ptrINS_5VPlanESt14default_deleteISA_EE
libbcc.so.0:_ZN4llvm15VPRecipeBuilder17createBlockInMaskEPNS_10BasicBlockERSt10unique_ptrINS_5VPlanESt14default_deleteIS4_EE
libbcc.so.0:_ZN4llvm15VPRecipeBuilder17handleReplicationEPNS_11InstructionERNS_7VFRangeEPNS_12VPBasicBlockERSt10unique_ptrINS_5VPlanESt14default_deleteIS8_EE
libbcc.so.0:_ZN4llvm15VPRecipeBuilder21createReplicateRegionEPNS_17VPReplicateRecipeERSt10unique_ptrINS_5VPlanESt14default_deleteIS4_EE
libbcc.so.0:_ZN4llvm15VPRecipeBuilder22tryToCreateWidenRecipeEPNS_11InstructionENS_8ArrayRefIPNS_7VPValueEEERNS_7VFRangeERSt10unique_ptrINS_5VPlanESt14default_deleteISA_EE
libbcc.so.0:_ZN4llvm15VPRecipeBuilder25tryToOptimizeInductionPHIEPNS_7PHINodeENS_8ArrayRefIPNS_7VPValueEEERNS_5VPlanERNS_7VFRangeE
libbcc.so.0:_ZN4llvm15VPRecipeBuilder30tryToOptimizeInductionTruncateEPNS_9TruncInstENS_8ArrayRefIPNS_7VPValueEEERNS_7VFRangeERNS_5VPlanE
libbcc.so.0:_ZN4llvm15VPlanTransforms17removeDeadRecipesERNS_5VPlanE
libbcc.so.0:_ZN4llvm15VPlanTransforms18optimizeInductionsERNS_5VPlanERNS_15ScalarEvolutionE
libbcc.so.0:_ZN4llvm15VPlanTransforms18sinkScalarOperandsERNS_5VPlanE
libbcc.so.0:_ZN4llvm15VPlanTransforms21mergeReplicateRegionsERNS_5VPlanE
libbcc.so.0:_ZN4llvm15VPlanTransforms25VPInstructionsToVPRecipesEPNS_4LoopERSt10unique_ptrINS_5VPlanESt14default_deleteIS4_EENS_12function_refIFPKNS_19InductionDescriptorEPNS_7PHINodeEEEERNS_15SmallPtrSetImplIPNS_11InstructionEEERNS_15ScalarEvolutionE
libbcc.so.0:_ZN4llvm15VPlanTransforms27removeRedundantCanonicalIVsERNS_5VPlanE
libbcc.so.0:_ZN4llvm15VPlanTransforms29removeRedundantInductionCastsERNS_5VPlanE
libbcc.so.0:_ZN4llvm15VPlanTransforms32removeRedundantExpandSCEVRecipesERNS_5VPlanE
libbcc.so.0:_ZN4llvm15ValueAsMetadata10handleRAUWEPNS_5ValueES2_
libbcc.so.0:_ZN4llvm15ValueAsMetadata11getIfExistsEPNS_5ValueE
libbcc.so.0:_ZN4llvm15ValueAsMetadata14handleDeletionEPNS_5ValueE
libbcc.so.0:_ZN4llvm15ValueAsMetadata3getEPNS_5ValueE
libbcc.so.0:_ZN4llvm15ValueHandleBase12AddToUseListEv
libbcc.so.0:_ZN4llvm15ValueHandleBase12ValueIsRAUWdEPNS_5ValueES2_
libbcc.so.0:_ZN4llvm15ValueHandleBase14ValueIsDeletedEPNS_5ValueE
libbcc.so.0:_ZN4llvm15ValueHandleBase17RemoveFromUseListEv
libbcc.so.0:_ZN4llvm15ValueHandleBase20AddToExistingUseListEPPS0_
libbcc.so.0:_ZN4llvm15ValueHandleBase25AddToExistingUseListAfterEPS0_
libbcc.so.0:_ZN4llvm15ValueProfRecord13deserializeToERNS_15InstrProfRecordEPNS_15InstrProfSymtabE
libbcc.so.0:_ZN4llvm15ValueProfRecord9swapBytesENS_7support10endiannessES2_
libbcc.so.0:_ZN4llvm15allocate_bufferEmm
libbcc.so.0:_ZN4llvm15calcExtTspScoreERKSt6vectorImSaImEES4_RKNS_8DenseMapISt4pairImmEmNS_12DenseMapInfoIS7_vEENS_6detail12DenseMapPairIS7_mEEEE
libbcc.so.0:_ZN4llvm15calcExtTspScoreERKSt6vectorImSaImEES4_S4_RKNS_8DenseMapISt4pairImmEmNS_12DenseMapInfoIS7_vEENS_6detail12DenseMapPairIS7_mEEEE
libbcc.so.0:_ZN4llvm15callDefaultCtorINS_31RegAllocEvictionAdvisorAnalysisEEEPNS_4PassEv
libbcc.so.0:_ZN4llvm15canCreatePoisonEPKNS_8OperatorEb
libbcc.so.0:_ZN4llvm15colorEHFuncletsERNS_8FunctionE
libbcc.so.0:_ZN4llvm15combineMetadataEPNS_11InstructionEPKS0_NS_8ArrayRefIjEEb
libbcc.so.0:_ZN4llvm15createLCSSAPassEv
libbcc.so.0:_ZN4llvm15createStepForVFERNS_13IRBuilderBaseEPNS_4TypeENS_12ElementCountEl
libbcc.so.0:_ZN4llvm15createUnaryMaskENS_8ArrayRefIiEEj
libbcc.so.0:_ZN4llvm15createWinEHPassEb
libbcc.so.0:_ZN4llvm15emitInlinedIntoERNS_25OptimizationRemarkEmitterENS_8DebugLocEPKNS_10BasicBlockERKNS_8FunctionES8_bNS_12function_refIFvRNS_18OptimizationRemarkEEEEPKc
libbcc.so.0:_ZN4llvm15finalizeBundlesERNS_15MachineFunctionE
libbcc.so.0:_ZN4llvm15format_providerINS_4json5ValueEvE6formatERKS2_RNS_11raw_ostreamENS_9StringRefE
libbcc.so.0:_ZN4llvm15format_providerINSt6chrono10time_pointINS1_3_V212system_clockENS1_8durationIlSt5ratioILl1ELl1000000000EEEEEEvE6formatERKS9_RNS_11raw_ostreamENS_9StringRefE
libbcc.so.0:_ZN4llvm15getBugReportMsgEv
libbcc.so.0:_ZN4llvm15getCallsiteCostERNS_8CallBaseERKNS_10DataLayoutE
libbcc.so.0:_ZN4llvm15getDISubprogramEPKNS_6MDNodeE
libbcc.so.0:_ZN4llvm15getFCmpCondCodeENS_7CmpInst9PredicateE
libbcc.so.0:_ZN4llvm15getFreedOperandEPKNS_8CallBaseEPKNS_17TargetLibraryInfoE
libbcc.so.0:_ZN4llvm15getICmpCondCodeENS_3ISD8CondCodeE
libbcc.so.0:_ZN4llvm15getICmpCondCodeENS_7CmpInst9PredicateE
libbcc.so.0:_ZN4llvm15getInlineParamsEi
libbcc.so.0:_ZN4llvm15getInlineParamsEjj
libbcc.so.0:_ZN4llvm15getInlineParamsEv
libbcc.so.0:_ZN4llvm15getPointersDiffEPNS_4TypeEPNS_5ValueES1_S3_RKNS_10DataLayoutERNS_15ScalarEvolutionEbb
libbcc.so.0:_ZN4llvm15get_thread_nameERNS_15SmallVectorImplIcEE
libbcc.so.0:_ZN4llvm15guessSuccessorsERKNS_17MachineBasicBlockERNS_15SmallVectorImplIPS0_EERb
libbcc.so.0:_ZN4llvm15hasMustProgressEPKNS_4LoopE
libbcc.so.0:_ZN4llvm15invertConditionEPNS_5ValueE
libbcc.so.0:_ZN4llvm15isBytewiseValueEPNS_5ValueERKNS_10DataLayoutE
libbcc.so.0:_ZN4llvm15isKnownNegationEPKNS_5ValueES2_b
libbcc.so.0:_ZN4llvm15isKnownNegativeEPKNS_5ValueERKNS_10DataLayoutEjPNS_15AssumptionCacheEPKNS_11InstructionEPKNS_13DominatorTreeEb
libbcc.so.0:_ZN4llvm15isKnownNeverNaNENS_8RegisterERKNS_19MachineRegisterInfoEb
libbcc.so.0:_ZN4llvm15isKnownNeverNaNEPKNS_5ValueEPKNS_17TargetLibraryInfoEj
libbcc.so.0:_ZN4llvm15isKnownNonEqualEPKNS_5ValueES2_RKNS_10DataLayoutEPNS_15AssumptionCacheEPKNS_11InstructionEPKNS_13DominatorTreeEb
libbcc.so.0:_ZN4llvm15isKnownPositiveEPKNS_5ValueERKNS_10DataLayoutEjPNS_15AssumptionCacheEPKNS_11InstructionEPKNS_13DominatorTreeEb
libbcc.so.0:_ZN4llvm15isOneOrOneSplatENS_7SDValueEb
libbcc.so.0:_ZN4llvm15isPointerOffsetEPKNS_5ValueES2_RKNS_10DataLayoutE
libbcc.so.0:_ZN4llvm15isReachedBeforeEPKNS_11InstructionES2_PKNS_13DominatorTreeEPKNS_17PostDominatorTreeE
libbcc.so.0:_ZN4llvm15isReallocLikeFnEPKNS_8FunctionEPKNS_17TargetLibraryInfoE
libbcc.so.0:_ZN4llvm15isTriviallyDeadERKNS_12MachineInstrERKNS_19MachineRegisterInfoE
libbcc.so.0:_ZN4llvm15itaniumDemangleEPKcPcPmPi
libbcc.so.0:_ZN4llvm15loadOutputSpecsERNS_11LLVMContextENS_9StringRefES2_S2_
libbcc.so.0:_ZN4llvm15printVRegOrUnitEjPKNS_18TargetRegisterInfoE
libbcc.so.0:_ZN4llvm15setBugReportMsgEPKc
libbcc.so.0:_ZN4llvm15setInlineRemarkERNS_8CallBaseENS_9StringRefE
libbcc.so.0:_ZN4llvm15setProfMetadataEPNS_6ModuleEPNS_11InstructionENS_8ArrayRefImEEm
libbcc.so.0:_ZN4llvm15setUnwindEdgeToEPNS_11InstructionEPNS_10BasicBlockE
libbcc.so.0:_ZN4llvm15set_thread_nameERKNS_5TwineE
libbcc.so.0:_ZN4llvm15simplifyAddInstEPNS_5ValueES1_bbRKNS_13SimplifyQueryE
libbcc.so.0:_ZN4llvm15simplifyAndInstEPNS_5ValueES1_RKNS_13SimplifyQueryE
libbcc.so.0:_ZN4llvm15simplifyCmpInstEjPNS_5ValueES1_RKNS_13SimplifyQueryE
libbcc.so.0:_ZN4llvm15simplifyFMAFMulEPNS_5ValueES1_NS_13FastMathFlagsERKNS_13SimplifyQueryENS_2fp17ExceptionBehaviorENS_12RoundingModeE
libbcc.so.0:_ZN4llvm15simplifyGEPInstEPNS_4TypeEPNS_5ValueENS_8ArrayRefIS3_EEbRKNS_13SimplifyQueryE
libbcc.so.0:_ZN4llvm15simplifyLoopIVsEPNS_4LoopEPNS_15ScalarEvolutionEPNS_13DominatorTreeEPNS_8LoopInfoEPKNS_19TargetTransformInfoERNS_15SmallVectorImplINS_14WeakTrackingVHEEE
libbcc.so.0:_ZN4llvm15simplifyMulInstEPNS_5ValueES1_RKNS_13SimplifyQueryE
libbcc.so.0:_ZN4llvm15simplifyShlInstEPNS_5ValueES1_bbRKNS_13SimplifyQueryE
libbcc.so.0:_ZN4llvm15simplifySubInstEPNS_5ValueES1_bbRKNS_13SimplifyQueryE
libbcc.so.0:_ZN4llvm15simplifyXorInstEPNS_5ValueES1_RKNS_13SimplifyQueryE
libbcc.so.0:_ZN4llvm15sortPtrAccessesENS_8ArrayRefIPNS_5ValueEEEPNS_4TypeERKNS_10DataLayoutERNS_15ScalarEvolutionERNS_15SmallVectorImplIjEE
libbcc.so.0:_ZN4llvm15stableHashValueERKNS_12MachineInstrEbbb
libbcc.so.0:_ZN4llvm15stableHashValueERKNS_14MachineOperandE
libbcc.so.0:_ZN4llvm15stableHashValueERKNS_15MachineFunctionE
libbcc.so.0:_ZN4llvm15stableHashValueERKNS_17MachineBasicBlockE
libbcc.so.0:_ZN4llvm15versionCallSiteERNS_8CallBaseEPNS_5ValueEPNS_6MDNodeE
libbcc.so.0:_ZN4llvm16AAAssumptionInfo17createForPositionERKNS_10IRPositionERNS_10AttributorE
libbcc.so.0:_ZN4llvm16AAMemoryBehavior17createForPositionERKNS_10IRPositionERNS_10AttributorE
libbcc.so.0:_ZN4llvm16AAMemoryLocation17createForPositionERKNS_10IRPositionERNS_10AttributorE
libbcc.so.0:_ZN4llvm16AAMemoryLocation23getMemoryLocationsAsStrB5cxx11Ej
libbcc.so.0:_ZN4llvm16AAReturnedValues17createForPositionERKNS_10IRPositionERNS_10AttributorE
libbcc.so.0:_ZN4llvm16AbstractCallSite15getCallbackUsesERKNS_8CallBaseERNS_15SmallVectorImplIPKNS_3UseEEE
libbcc.so.0:_ZN4llvm16AbstractCallSiteC1EPKNS_3UseE
libbcc.so.0:_ZN4llvm16AbstractCallSiteC2EPKNS_3UseE
libbcc.so.0:_ZN4llvm16AnalysisResolver12findImplPassEPNS_4PassEPKvRNS_8FunctionE
libbcc.so.0:_ZN4llvm16AttributeSetNode3getERNS_11LLVMContextENS_8ArrayRefINS_9AttributeEEE
libbcc.so.0:_ZN4llvm16AttributeSetNode3getERNS_11LLVMContextERKNS_11AttrBuilderE
libbcc.so.0:_ZN4llvm16AttributeSetNode9getSortedERNS_11LLVMContextENS_8ArrayRefINS_9AttributeEEE
libbcc.so.0:_ZN4llvm16AttributeSetNodeC1ENS_8ArrayRefINS_9AttributeEEE
libbcc.so.0:_ZN4llvm16AttributeSetNodeC2ENS_8ArrayRefINS_9AttributeEEE
libbcc.so.0:_ZN4llvm16CallGraphSCCPass17assignPassManagerERNS_7PMStackENS_15PassManagerTypeE
libbcc.so.0:_ZN4llvm16CallGraphUpdater14removeCallSiteERNS_8CallBaseE
libbcc.so.0:_ZN4llvm16CallGraphUpdater14removeFunctionERNS_8FunctionE
libbcc.so.0:_ZN4llvm16CallGraphUpdater15replaceCallSiteERNS_8CallBaseES2_
libbcc.so.0:_ZN4llvm16CallGraphUpdater17reanalyzeFunctionERNS_8FunctionE
libbcc.so.0:_ZN4llvm16CallGraphUpdater19replaceFunctionWithERNS_8FunctionES2_
libbcc.so.0:_ZN4llvm16CallGraphUpdater24registerOutlinedFunctionERNS_8FunctionES2_
libbcc.so.0:_ZN4llvm16CallGraphUpdater8finalizeEv
libbcc.so.0:_ZN4llvm16ConstantFPSDNode19isValueValidForTypeENS_3EVTERKNS_7APFloatE
libbcc.so.0:_ZN4llvm16ConstantFoldCTLZENS_8RegisterERKNS_19MachineRegisterInfoE
libbcc.so.0:_ZN4llvm16ConstantFoldCallEPKNS_8CallBaseEPNS_8FunctionENS_8ArrayRefIPNS_8ConstantEEEPKNS_17TargetLibraryInfoE
libbcc.so.0:_ZN4llvm16ConstraintSystem15mayHaveSolutionEv
libbcc.so.0:_ZN4llvm16ConstraintSystem16eliminateUsingFMEv
libbcc.so.0:_ZN4llvm16ConstraintSystem19mayHaveSolutionImplEv
libbcc.so.0:_ZN4llvm16DIGlobalVariable7getImplERNS_11LLVMContextEPNS_8MetadataEPNS_8MDStringES6_S4_jS4_bbS4_S4_jS4_NS3_11StorageTypeEb
libbcc.so.0:_ZN4llvm16DIImportedEntity7getImplERNS_11LLVMContextEjPNS_8MetadataES4_S4_jPNS_8MDStringES4_NS3_11StorageTypeEb
libbcc.so.0:_ZN4llvm16DISubroutineType7getImplERNS_11LLVMContextENS_6DINode7DIFlagsEhPNS_8MetadataENS5_11StorageTypeEb
libbcc.so.0:_ZN4llvm16DISubroutineTypeC1ERNS_11LLVMContextENS_8Metadata11StorageTypeENS_6DINode7DIFlagsEhNS_8ArrayRefIPS3_EE
libbcc.so.0:_ZN4llvm16DISubroutineTypeC2ERNS_11LLVMContextENS_8Metadata11StorageTypeENS_6DINode7DIFlagsEhNS_8ArrayRefIPS3_EE
libbcc.so.0:_ZN4llvm16DbgLabelInstrMap8addInstrESt4pairIPKNS_6DINodeEPKNS_10DILocationEERKNS_12MachineInstrE
libbcc.so.0:_ZN4llvm16DebugHandlerBase11beginModuleEPNS_6ModuleE
libbcc.so.0:_ZN4llvm16DebugHandlerBase11endFunctionEPKNS_15MachineFunctionE
libbcc.so.0:_ZN4llvm16DebugHandlerBase13beginFunctionEPKNS_15MachineFunctionE
libbcc.so.0:_ZN4llvm16DebugHandlerBase13endBasicBlockERKNS_17MachineBasicBlockE
libbcc.so.0:_ZN4llvm16DebugHandlerBase14endInstructionEv
libbcc.so.0:_ZN4llvm16DebugHandlerBase15beginBasicBlockERKNS_17MachineBasicBlockE
libbcc.so.0:_ZN4llvm16DebugHandlerBase15getBaseTypeSizeEPKNS_6DITypeE
libbcc.so.0:_ZN4llvm16DebugHandlerBase16beginInstructionEPKNS_12MachineInstrE
libbcc.so.0:_ZN4llvm16DebugHandlerBase16isUnsignedDITypeEPKNS_6DITypeE
libbcc.so.0:_ZN4llvm16DebugHandlerBase17getLabelAfterInsnEPKNS_12MachineInstrE
libbcc.so.0:_ZN4llvm16DebugHandlerBase18getLabelBeforeInsnEPKNS_12MachineInstrE
libbcc.so.0:_ZN4llvm16DebugHandlerBase20identifyScopeMarkersEv
libbcc.so.0:_ZN4llvm16DebugHandlerBaseC2EPNS_10AsmPrinterE
libbcc.so.0:_ZN4llvm16DeleteDeadBlocksENS_8ArrayRefIPNS_10BasicBlockEEEPNS_14DomTreeUpdaterEb
libbcc.so.0:_ZN4llvm16DemotePHIToStackEPNS_7PHINodeEPNS_11InstructionE
libbcc.so.0:_ZN4llvm16DemoteRegToStackERNS_11InstructionEbPS0_
libbcc.so.0:_ZN4llvm16DwarfCompileUnit10addAddressERNS_3DIEENS_5dwarf9AttributeERKNS_15MachineLocationE
libbcc.so.0:_ZN4llvm16DwarfCompileUnit10emitHeaderEb
libbcc.so.0:_ZN4llvm16DwarfCompileUnit12initStmtListEv
libbcc.so.0:_ZN4llvm16DwarfCompileUnit13addGlobalNameENS_9StringRefERKNS_3DIEEPKNS_7DIScopeE
libbcc.so.0:_ZN4llvm16DwarfCompileUnit13addGlobalTypeEPKNS_6DITypeERKNS_3DIEEPKNS_7DIScopeE
libbcc.so.0:_ZN4llvm16DwarfCompileUnit13applyStmtListERNS_3DIEE
libbcc.so.0:_ZN4llvm16DwarfCompileUnit14addBaseTypeRefERNS_12DIEValueListEl
libbcc.so.0:_ZN4llvm16DwarfCompileUnit15addLabelAddressERNS_3DIEENS_5dwarf9AttributeEPKNS_8MCSymbolE
libbcc.so.0:_ZN4llvm16DwarfCompileUnit15addLocationListERNS_3DIEENS_5dwarf9AttributeEj
libbcc.so.0:_ZN4llvm16DwarfCompileUnit15attachLowHighPCERNS_3DIEEPKNS_8MCSymbolES5_
libbcc.so.0:_ZN4llvm16DwarfCompileUnit16addAddrTableBaseEv
libbcc.so.0:_ZN4llvm16DwarfCompileUnit17addComplexAddressERKNS_11DbgVariableERNS_3DIEENS_5dwarf9AttributeERKNS_15MachineLocationE
libbcc.so.0:_ZN4llvm16DwarfCompileUnit17addScopeRangeListERNS_3DIEENS_11SmallVectorINS_9RangeSpanELj2EEE
libbcc.so.0:_ZN4llvm16DwarfCompileUnit17constructLabelDIEERNS_8DbgLabelERKNS_12LexicalScopeE
libbcc.so.0:_ZN4llvm16DwarfCompileUnit17constructScopeDIEEPNS_12LexicalScopeERNS_3DIEE
libbcc.so.0:_ZN4llvm16DwarfCompileUnit18addVariableAddressERKNS_11DbgVariableERNS_3DIEENS_15MachineLocationE
libbcc.so.0:_ZN4llvm16DwarfCompileUnit18createBaseTypeDIEsEv
libbcc.so.0:_ZN4llvm16DwarfCompileUnit19getOrCreateSourceIDEPKNS_6DIFileE
libbcc.so.0:_ZN4llvm16DwarfCompileUnit20addLocalLabelAddressERNS_3DIEENS_5dwarf9AttributeEPKNS_8MCSymbolE
libbcc.so.0:_ZN4llvm16DwarfCompileUnit20addLocationAttributeEPNS_3DIEEPKNS_16DIGlobalVariableENS_8ArrayRefINS0_10GlobalExprEEE
libbcc.so.0:_ZN4llvm16DwarfCompileUnit20applyLabelAttributesERKNS_8DbgLabelERNS_3DIEE
libbcc.so.0:_ZN4llvm16DwarfCompileUnit20constructVariableDIEERNS_11DbgVariableERKNS_12LexicalScopeERPNS_3DIEE
libbcc.so.0:_ZN4llvm16DwarfCompileUnit20constructVariableDIEERNS_11DbgVariableEb
libbcc.so.0:_ZN4llvm16DwarfCompileUnit20createAbstractEntityEPKNS_6DINodeEPNS_12LexicalScopeE
libbcc.so.0:_ZN4llvm16DwarfCompileUnit20finishNonUnitTypeDIEERNS_3DIEEPKNS_15DICompositeTypeE
libbcc.so.0:_ZN4llvm16DwarfCompileUnit21addGlobalTypeUnitTypeEPKNS_6DITypeEPKNS_7DIScopeE
libbcc.so.0:_ZN4llvm16DwarfCompileUnit22finishEntityDefinitionEPKNS_9DbgEntityE
libbcc.so.0:_ZN4llvm16DwarfCompileUnit22getOrCreateCommonBlockEPKNS_13DICommonBlockENS_8ArrayRefINS0_10GlobalExprEEE
libbcc.so.0:_ZN4llvm16DwarfCompileUnit23applyVariableAttributesERKNS_11DbgVariableERNS_3DIEE
libbcc.so.0:_ZN4llvm16DwarfCompileUnit23attachRangesOrLowHighPCERNS_3DIEENS_11SmallVectorINS_9RangeSpanELj2EEE
libbcc.so.0:_ZN4llvm16DwarfCompileUnit23attachRangesOrLowHighPCERNS_3DIEERKNS_15SmallVectorImplISt4pairIPKNS_12MachineInstrES7_EEE
libbcc.so.0:_ZN4llvm16DwarfCompileUnit24addGlobalNameForTypeUnitENS_9StringRefEPKNS_7DIScopeE
libbcc.so.0:_ZN4llvm16DwarfCompileUnit24constructInlinedScopeDIEEPNS_12LexicalScopeE
libbcc.so.0:_ZN4llvm16DwarfCompileUnit24constructLexicalScopeDIEEPNS_12LexicalScopeE
libbcc.so.0:_ZN4llvm16DwarfCompileUnit24constructVariableDIEImplERKNS_11DbgVariableEb
libbcc.so.0:_ZN4llvm16DwarfCompileUnit24updateSubprogramScopeDIEEPKNS_12DISubprogramE
libbcc.so.0:_ZN4llvm16DwarfCompileUnit25constructCallSiteEntryDIEERNS_3DIEEPKNS_12DISubprogramEbPKNS_8MCSymbolES8_j
libbcc.so.0:_ZN4llvm16DwarfCompileUnit25createAndAddScopeChildrenEPNS_12LexicalScopeERNS_3DIEE
libbcc.so.0:_ZN4llvm16DwarfCompileUnit25getExistingAbstractEntityEPKNS_6DINodeE
libbcc.so.0:_ZN4llvm16DwarfCompileUnit26constructImportedEntityDIEEPKNS_16DIImportedEntityE
libbcc.so.0:_ZN4llvm16DwarfCompileUnit26finishSubprogramDefinitionEPKNS_12DISubprogramE
libbcc.so.0:_ZN4llvm16DwarfCompileUnit27constructSubprogramScopeDIEEPKNS_12DISubprogramEPNS_12LexicalScopeE
libbcc.so.0:_ZN4llvm16DwarfCompileUnit28getOrCreateGlobalVariableDIEEPKNS_16DIGlobalVariableENS_8ArrayRefINS0_10GlobalExprEEE
libbcc.so.0:_ZN4llvm16DwarfCompileUnit30constructCallSiteParmEntryDIEsERNS_3DIEERNS_11SmallVectorINS_16DbgCallSiteParamELj4EEE
libbcc.so.0:_ZN4llvm16DwarfCompileUnit35constructAbstractSubprogramScopeDIEEPNS_12LexicalScopeE
libbcc.so.0:_ZN4llvm16DwarfCompileUnit37applySubprogramAttributesToDefinitionEPKNS_12DISubprogramERNS_3DIEE
libbcc.so.0:_ZN4llvm16DwarfCompileUnit7addExprERNS_6DIELocENS_5dwarf4FormEPKNS_6MCExprE
libbcc.so.0:_ZN4llvm16DwarfCompileUnit8addRangeENS_9RangeSpanE
libbcc.so.0:_ZN4llvm16DwarfCompileUnitC1EjPKNS_13DICompileUnitEPNS_10AsmPrinterEPNS_10DwarfDebugEPNS_9DwarfFileENS_8UnitKindE
libbcc.so.0:_ZN4llvm16DwarfCompileUnitC2EjPKNS_13DICompileUnitEPNS_10AsmPrinterEPNS_10DwarfDebugEPNS_9DwarfFileENS_8UnitKindE
libbcc.so.0:_ZN4llvm16EmitImportsFilesENS_9StringRefES0_RKSt3mapINSt7__cxx1112basic_stringIcSt11char_traitsIcESaIcEEENS_8DenseMapImPNS_18GlobalValueSummaryENS_12DenseMapInfoImvEENS_6detail12DenseMapPairImSA_EEEESt4lessIS7_ESaISt4pairIKS7_SG_EEE
libbcc.so.0:_ZN4llvm16EnableStatisticsEb
libbcc.so.0:_ZN4llvm16EscapeEnumerator4NextEv
libbcc.so.0:_ZN4llvm16ExtractValueInst14getIndexedTypeEPNS_4TypeENS_8ArrayRefIjEE
libbcc.so.0:_ZN4llvm16ExtractValueInst4initENS_8ArrayRefIjEERKNS_5TwineE
libbcc.so.0:_ZN4llvm16ExtractValueInstC1ERKS0_
libbcc.so.0:_ZN4llvm16ExtractValueInstC2ERKS0_
libbcc.so.0:_ZN4llvm16FoldingSetNodeID9AddNodeIDERKS0_
libbcc.so.0:_ZN4llvm16FoldingSetNodeID9AddStringENS_9StringRefE
libbcc.so.0:_ZN4llvm16FunctionImporter15importFunctionsERNS_6ModuleERKNS_9StringMapISt13unordered_setImSt4hashImESt8equal_toImESaImEENS_15MallocAllocatorEEE
libbcc.so.0:_ZN4llvm16GCOVProfilerPass3runERNS_6ModuleERNS_15AnalysisManagerIS1_JEEE
libbcc.so.0:_ZN4llvm16GenericScheduler10initPolicyENS_26MachineInstrBundleIteratorINS_12MachineInstrELb0EEES3_j
libbcc.so.0:_ZN4llvm16GenericScheduler10initializeEPNS_13ScheduleDAGMIE
libbcc.so.0:_ZN4llvm16GenericScheduler13initCandidateERNS_20GenericSchedulerBase14SchedCandidateEPNS_5SUnitEbRKNS_18RegPressureTrackerERS6_
libbcc.so.0:_ZN4llvm16GenericScheduler13registerRootsEv
libbcc.so.0:_ZN4llvm16GenericScheduler17pickNodeFromQueueERNS_13SchedBoundaryERKNS_20GenericSchedulerBase10CandPolicyERKNS_18RegPressureTrackerERNS3_14SchedCandidateE
libbcc.so.0:_ZN4llvm16GenericScheduler17reschedulePhysRegEPNS_5SUnitEb
libbcc.so.0:_ZN4llvm16GenericScheduler19checkAcyclicLatencyEv
libbcc.so.0:_ZN4llvm16GenericScheduler21pickNodeBidirectionalERb
libbcc.so.0:_ZN4llvm16GenericScheduler8pickNodeERb
libbcc.so.0:_ZN4llvm16GenericScheduler9schedNodeEPNS_5SUnitEb
libbcc.so.0:_ZN4llvm16HardwareLoopInfo10canAnalyzeERNS_8LoopInfoE
libbcc.so.0:_ZN4llvm16HardwareLoopInfo23isHardwareLoopCandidateERNS_15ScalarEvolutionERNS_8LoopInfoERNS_13DominatorTreeEbb
libbcc.so.0:_ZN4llvm16HotColdSplitting17extractColdRegionERKNS_11SmallVectorIPNS_10BasicBlockELj0EEERKNS_26CodeExtractorAnalysisCacheERNS_13DominatorTreeEPNS_18BlockFrequencyInfoERNS_19TargetTransformInfoERNS_25OptimizationRemarkEmitterEPNS_15AssumptionCacheEj
libbcc.so.0:_ZN4llvm16HotColdSplitting18outlineColdRegionsERNS_8FunctionEb
libbcc.so.0:_ZN4llvm16HotColdSplitting3runERNS_6ModuleE
libbcc.so.0:_ZN4llvm16IndexedInstrProf6Header14readFromBufferEPKh
libbcc.so.0:_ZN4llvm16IndexedReference11delinearizeERKNS_8LoopInfoE
libbcc.so.0:_ZN4llvm16IndexedReference23tryDelinearizeFixedSizeEPKNS_4SCEVERNS_15SmallVectorImplIS3_EE
libbcc.so.0:_ZN4llvm16IndexedReferenceC1ERNS_11InstructionERKNS_8LoopInfoERNS_15ScalarEvolutionE
libbcc.so.0:_ZN4llvm16IndexedReferenceC2ERNS_11InstructionERKNS_8LoopInfoERNS_15ScalarEvolutionE
libbcc.so.0:_ZN4llvm16InformationCache12FunctionInfoD1Ev
libbcc.so.0:_ZN4llvm16InformationCache12FunctionInfoD2Ev
libbcc.so.0:_ZN4llvm16InformationCache23getAAResultsForFunctionERKNS_8FunctionE
libbcc.so.0:_ZN4llvm16InformationCache26initializeInformationCacheERKNS_8FunctionERNS0_12FunctionInfoE
libbcc.so.0:_ZN4llvm16InstSimplifyPass3runERNS_8FunctionERNS_15AnalysisManagerIS1_JEEE
libbcc.so.0:_ZN4llvm16IntervalPressure10openBottomENS_9SlotIndexE
libbcc.so.0:_ZN4llvm16IntervalPressure5resetEv
libbcc.so.0:_ZN4llvm16IntervalPressure7openTopENS_9SlotIndexE
libbcc.so.0:_ZN4llvm16JITEventListener29createGDBRegistrationListenerEv
libbcc.so.0:_ZN4llvm16JITEventListener6anchorEv
libbcc.so.0:_ZN4llvm16LiveIntervalCalc12extendToUsesERNS_9LiveRangeENS_8RegisterENS_11LaneBitmaskEPNS_12LiveIntervalE
libbcc.so.0:_ZN4llvm16LiveIntervalCalc14createDeadDefsERNS_9LiveRangeENS_8RegisterE
libbcc.so.0:_ZN4llvm16LiveIntervalCalc31constructMainRangeFromSubrangesERNS_12LiveIntervalE
libbcc.so.0:_ZN4llvm16LiveIntervalCalc9calculateERNS_12LiveIntervalEb
libbcc.so.0:_ZN4llvm16LiveRangeUpdater11mergeSpillsEv
libbcc.so.0:_ZN4llvm16LiveRangeUpdater3addENS_9LiveRange7SegmentE
libbcc.so.0:_ZN4llvm16LiveRangeUpdater5flushEv
libbcc.so.0:_ZN4llvm16LoopDeletionPass3runERNS_4LoopERNS_15AnalysisManagerIS1_JRNS_27LoopStandardAnalysisResultsEEEES5_RNS_10LPMUpdaterE
libbcc.so.0:_ZN4llvm16LoopSimplifyPass3runERNS_8FunctionERNS_15AnalysisManagerIS1_JEEE
libbcc.so.0:_ZN4llvm16LoopVerifierPass3runERNS_8FunctionERNS_15AnalysisManagerIS1_JEEE
libbcc.so.0:_ZN4llvm16MCAsmInfoGNUCOFF6anchorEv
libbcc.so.0:_ZN4llvm16MCAsmInfoGNUCOFFC1Ev
libbcc.so.0:_ZN4llvm16MCAsmInfoGNUCOFFC2Ev
libbcc.so.0:_ZN4llvm16MCDwarfLineEntry4makeEPNS_10MCStreamerEPNS_9MCSectionE
libbcc.so.0:_ZN4llvm16MCDwarfLineTable10tryGetFileERNS_9StringRefES2_NS_8OptionalINS_3MD59MD5ResultEEENS3_IS1_EEtj
libbcc.so.0:_ZN4llvm16MCDwarfLineTable4emitEPNS_10MCStreamerENS_22MCDwarfLineTableParamsE
libbcc.so.0:_ZN4llvm16MCDwarfLineTable7emitOneEPNS_10MCStreamerEPNS_9MCSectionERKSt6vectorINS_16MCDwarfLineEntryESaIS6_EE
libbcc.so.0:_ZN4llvm16MCObjectFileInfo20initMCObjectFileInfoERNS_9MCContextEbb
libbcc.so.0:_ZN4llvm16MCObjectFileInfo23initELFMCObjectFileInfoERKNS_6TripleEb
libbcc.so.0:_ZN4llvm16MCObjectFileInfo24initCOFFMCObjectFileInfoERKNS_6TripleE
libbcc.so.0:_ZN4llvm16MCObjectFileInfo24initGOFFMCObjectFileInfoERKNS_6TripleE
libbcc.so.0:_ZN4llvm16MCObjectFileInfo24initWasmMCObjectFileInfoERKNS_6TripleE
libbcc.so.0:_ZN4llvm16MCObjectFileInfo25initMachOMCObjectFileInfoERKNS_6TripleE
libbcc.so.0:_ZN4llvm16MCObjectFileInfo25initSPIRVMCObjectFileInfoERKNS_6TripleE
libbcc.so.0:_ZN4llvm16MCObjectFileInfo25initXCOFFMCObjectFileInfoERKNS_6TripleE
libbcc.so.0:_ZN4llvm16MCObjectFileInfo29initDXContainerObjectFileInfoERKNS_6TripleE
libbcc.so.0:_ZN4llvm16MCObjectFileInfoD0Ev
libbcc.so.0:_ZN4llvm16MCObjectFileInfoD1Ev
libbcc.so.0:_ZN4llvm16MCObjectFileInfoD2Ev
libbcc.so.0:_ZN4llvm16MCObjectStreamer10emitFramesEPNS_12MCAsmBackendE
libbcc.so.0:_ZN4llvm16MCObjectStreamer10finishImplEv
libbcc.so.0:_ZN4llvm16MCObjectStreamer11emitAddrsigEv
libbcc.so.0:_ZN4llvm16MCObjectStreamer12emitCFILabelEv
libbcc.so.0:_ZN4llvm16MCObjectStreamer13changeSectionEPNS_9MCSectionEPKNS_6MCExprE
libbcc.so.0:_ZN4llvm16MCObjectStreamer13emitValueImplEPKNS_6MCExprEjNS_5SMLocE
libbcc.so.0:_ZN4llvm16MCObjectStreamer14emitAddrsigSymEPKNS_8MCSymbolE
libbcc.so.0:_ZN4llvm16MCObjectStreamer14emitAssignmentEPNS_8MCSymbolEPKNS_6MCExprE
libbcc.so.0:_ZN4llvm16MCObjectStreamer14emitBundleLockEb
libbcc.so.0:_ZN4llvm16MCObjectStreamer14emitLabelAtPosEPNS_8MCSymbolENS_5SMLocEPNS_10MCFragmentEm
libbcc.so.0:_ZN4llvm16MCObjectStreamer15addPendingLabelEPNS_8MCSymbolE
libbcc.so.0:_ZN4llvm16MCObjectStreamer15emitCFISectionsEbb
libbcc.so.0:_ZN4llvm16MCObjectStreamer15emitInstructionERKNS_6MCInstERKNS_15MCSubtargetInfoE
libbcc.so.0:_ZN4llvm16MCObjectStreamer15getAssemblerPtrEv
libbcc.so.0:_ZN4llvm16MCObjectStreamer15visitUsedSymbolERKNS_8MCSymbolE
libbcc.so.0:_ZN4llvm16MCObjectStreamer16emitBundleUnlockEv
libbcc.so.0:_ZN4llvm16MCObjectStreamer16emitGPRel32ValueEPKNS_6MCExprE
libbcc.so.0:_ZN4llvm16MCObjectStreamer16emitGPRel64ValueEPKNS_6MCExprE
libbcc.so.0:_ZN4llvm16MCObjectStreamer16emitSLEB128ValueEPKNS_6MCExprE
libbcc.so.0:_ZN4llvm16MCObjectStreamer16emitTPRel32ValueEPKNS_6MCExprE
libbcc.so.0:_ZN4llvm16MCObjectStreamer16emitTPRel64ValueEPKNS_6MCExprE
libbcc.so.0:_ZN4llvm16MCObjectStreamer16emitULEB128ValueEPKNS_6MCExprE
libbcc.so.0:_ZN4llvm16MCObjectStreamer17changeSectionImplEPNS_9MCSectionEPKNS_6MCExprE
libbcc.so.0:_ZN4llvm16MCObjectStreamer17emitCodeAlignmentEjPKNS_15MCSubtargetInfoEj
libbcc.so.0:_ZN4llvm16MCObjectStreamer17emitDTPRel32ValueEPKNS_6MCExprE
libbcc.so.0:_ZN4llvm16MCObjectStreamer17emitDTPRel64ValueEPKNS_6MCExprE
libbcc.so.0:_ZN4llvm16MCObjectStreamer17emitFileDirectiveENS_9StringRefE
libbcc.so.0:_ZN4llvm16MCObjectStreamer17emitFileDirectiveENS_9StringRefES1_S1_S1_
libbcc.so.0:_ZN4llvm16MCObjectStreamer17emitValueToOffsetEPKNS_6MCExprEhNS_5SMLocE
libbcc.so.0:_ZN4llvm16MCObjectStreamer17emitWeakReferenceEPNS_8MCSymbolEPKS1_
libbcc.so.0:_ZN4llvm16MCObjectStreamer18emitCFIEndProcImplERNS_16MCDwarfFrameInfoE
libbcc.so.0:_ZN4llvm16MCObjectStreamer18emitCVLocDirectiveEjjjjbbNS_9StringRefENS_5SMLocE
libbcc.so.0:_ZN4llvm16MCObjectStreamer18emitInstToFragmentERKNS_6MCInstERKNS_15MCSubtargetInfoE
libbcc.so.0:_ZN4llvm16MCObjectStreamer18emitRelocDirectiveB5cxx11ERKNS_6MCExprENS_9StringRefEPS2_NS_5SMLocERKNS_15MCSubtargetInfoE
libbcc.so.0:_ZN4llvm16MCObjectStreamer18flushPendingLabelsEPNS_10MCFragmentEm
libbcc.so.0:_ZN4llvm16MCObjectStreamer18flushPendingLabelsEv
libbcc.so.0:_ZN4llvm16MCObjectStreamer19emitBundleAlignModeEj
libbcc.so.0:_ZN4llvm16MCObjectStreamer19emitInstructionImplERKNS_6MCInstERKNS_15MCSubtargetInfoE
libbcc.so.0:_ZN4llvm16MCObjectStreamer20emitCFIStartProcImplERNS_16MCDwarfFrameInfoE
libbcc.so.0:_ZN4llvm16MCObjectStreamer20emitValueToAlignmentEjljj
libbcc.so.0:_ZN4llvm16MCObjectStreamer20resolvePendingFixupsEv
libbcc.so.0:_ZN4llvm16MCObjectStreamer21emitDwarfLineEndEntryEPNS_9MCSectionEPNS_8MCSymbolE
libbcc.so.0:_ZN4llvm16MCObjectStreamer21emitDwarfLocDirectiveEjjjjjjNS_9StringRefE
libbcc.so.0:_ZN4llvm16MCObjectStreamer22emitAbsoluteSymbolDiffEPKNS_8MCSymbolES3_j
libbcc.so.0:_ZN4llvm16MCObjectStreamer22emitPendingAssignmentsEPNS_8MCSymbolE
libbcc.so.0:_ZN4llvm16MCObjectStreamer23emitCVDefRangeDirectiveENS_8ArrayRefISt4pairIPKNS_8MCSymbolES5_EEENS_9StringRefE
libbcc.so.0:_ZN4llvm16MCObjectStreamer23getOrCreateDataFragmentEPKNS_15MCSubtargetInfoE
libbcc.so.0:_ZN4llvm16MCObjectStreamer24emitCVLinetableDirectiveEjPKNS_8MCSymbolES3_
libbcc.so.0:_ZN4llvm16MCObjectStreamer24emitDwarfAdvanceLineAddrElPKNS_8MCSymbolES3_j
libbcc.so.0:_ZN4llvm16MCObjectStreamer25emitConditionalAssignmentEPNS_8MCSymbolEPKNS_6MCExprE
libbcc.so.0:_ZN4llvm16MCObjectStreamer25emitDwarfAdvanceFrameAddrEPKNS_8MCSymbolES3_
libbcc.so.0:_ZN4llvm16MCObjectStreamer26emitCVStringTableDirectiveEv
libbcc.so.0:_ZN4llvm16MCObjectStreamer28emitCVFileChecksumsDirectiveEv
libbcc.so.0:_ZN4llvm16MCObjectStreamer30emitCVInlineLinetableDirectiveEjjjPKNS_8MCSymbolES3_
libbcc.so.0:_ZN4llvm16MCObjectStreamer31emitAbsoluteSymbolDiffAsULEB128EPKNS_8MCSymbolES3_
libbcc.so.0:_ZN4llvm16MCObjectStreamer33emitCVFileChecksumOffsetDirectiveEj
libbcc.so.0:_ZN4llvm16MCObjectStreamer5resetEv
libbcc.so.0:_ZN4llvm16MCObjectStreamer8emitFillERKNS_6MCExprEllNS_5SMLocE
libbcc.so.0:_ZN4llvm16MCObjectStreamer8emitFillERKNS_6MCExprEmNS_5SMLocE
libbcc.so.0:_ZN4llvm16MCObjectStreamer8emitNopsEllNS_5SMLocERKNS_15MCSubtargetInfoE
libbcc.so.0:_ZN4llvm16MCObjectStreamer9emitBytesENS_9StringRefE
libbcc.so.0:_ZN4llvm16MCObjectStreamer9emitLabelEPNS_8MCSymbolENS_5SMLocE
libbcc.so.0:_ZN4llvm16MCObjectStreamerC2ERNS_9MCContextESt10unique_ptrINS_12MCAsmBackendESt14default_deleteIS4_EES3_INS_14MCObjectWriterES5_IS8_EES3_INS_13MCCodeEmitterES5_ISB_EE
libbcc.so.0:_ZN4llvm16MCObjectStreamerD0Ev
libbcc.so.0:_ZN4llvm16MCObjectStreamerD1Ev
libbcc.so.0:_ZN4llvm16MCObjectStreamerD2Ev
libbcc.so.0:_ZN4llvm16MCRelocationInfo28createExprForCAPIVariantKindEPKNS_6MCExprEj
libbcc.so.0:_ZN4llvm16MCRelocationInfoC1ERNS_9MCContextE
libbcc.so.0:_ZN4llvm16MCRelocationInfoC2ERNS_9MCContextE
libbcc.so.0:_ZN4llvm16MCRelocationInfoD0Ev
libbcc.so.0:_ZN4llvm16MCRelocationInfoD1Ev
libbcc.so.0:_ZN4llvm16MCRelocationInfoD2Ev
libbcc.so.0:_ZN4llvm16MCTargetStreamer12emitRawBytesENS_9StringRefE
libbcc.so.0:_ZN4llvm16MCTargetStreamer13changeSectionEPKNS_9MCSectionEPS1_PKNS_6MCExprERNS_11raw_ostreamE
libbcc.so.0:_ZN4llvm16MCTargetStreamer14emitAssignmentEPNS_8MCSymbolEPKNS_6MCExprE
libbcc.so.0:_ZN4llvm16MCTargetStreamer14prettyPrintAsmERNS_13MCInstPrinterEmRKNS_6MCInstERKNS_15MCSubtargetInfoERNS_11raw_ostreamE
libbcc.so.0:_ZN4llvm16MCTargetStreamer17emitConstantPoolsEv
libbcc.so.0:_ZN4llvm16MCTargetStreamer22emitDwarfFileDirectiveENS_9StringRefE
libbcc.so.0:_ZN4llvm16MCTargetStreamer6finishEv
libbcc.so.0:_ZN4llvm16MCTargetStreamer9emitLabelEPNS_8MCSymbolE
libbcc.so.0:_ZN4llvm16MCTargetStreamer9emitValueEPKNS_6MCExprE
libbcc.so.0:_ZN4llvm16MCTargetStreamerC1ERNS_10MCStreamerE
libbcc.so.0:_ZN4llvm16MCTargetStreamerC2ERNS_10MCStreamerE
libbcc.so.0:_ZN4llvm16MCTargetStreamerD0Ev
libbcc.so.0:_ZN4llvm16MCTargetStreamerD1Ev
libbcc.so.0:_ZN4llvm16MCTargetStreamerD2Ev
libbcc.so.0:_ZN4llvm16MIRProfileLoader13runOnFunctionERNS_15MachineFunctionE
libbcc.so.0:_ZN4llvm16MIRProfileLoader14setBranchProbsERNS_15MachineFunctionE
libbcc.so.0:_ZN4llvm16MIRProfileLoader16doInitializationERNS_6ModuleE
libbcc.so.0:_ZN4llvm16MachObjectWriter10writeNlistERNS0_14MachSymbolDataERKNS_11MCAsmLayoutE
libbcc.so.0:_ZN4llvm16MachObjectWriter11writeHeaderENS_5MachO14HeaderFileTypeEjjb
libbcc.so.0:_ZN4llvm16MachObjectWriter11writeObjectERNS_11MCAssemblerERKNS_11MCAsmLayoutE
libbcc.so.0:_ZN4llvm16MachObjectWriter12writeSectionERKNS_11MCAsmLayoutERKNS_9MCSectionEmmjmj
libbcc.so.0:_ZN4llvm16MachObjectWriter14findSymbolDataERKNS_8MCSymbolE
libbcc.so.0:_ZN4llvm16MachObjectWriter16isFixupKindPCRelERKNS_11MCAssemblerEj
libbcc.so.0:_ZN4llvm16MachObjectWriter16recordRelocationERNS_11MCAssemblerERKNS_11MCAsmLayoutEPKNS_10MCFragmentERKNS_7MCFixupENS_7MCValueERm
libbcc.so.0:_ZN4llvm16MachObjectWriter16writeWithPaddingENS_9StringRefEm
libbcc.so.0:_ZN4llvm16MachObjectWriter18computeSymbolTableERNS_11MCAssemblerERSt6vectorINS0_14MachSymbolDataESaIS4_EES7_S7_
libbcc.so.0:_ZN4llvm16MachObjectWriter19bindIndirectSymbolsERNS_11MCAssemblerE
libbcc.so.0:_ZN4llvm16MachObjectWriter22populateAddrSigSectionERNS_11MCAssemblerE
libbcc.so.0:_ZN4llvm16MachObjectWriter22writeSymtabLoadCommandEjjjj
libbcc.so.0:_ZN4llvm16MachObjectWriter23computeSectionAddressesERKNS_11MCAssemblerERKNS_11MCAsmLayoutE
libbcc.so.0:_ZN4llvm16MachObjectWriter23writeSegmentLoadCommandENS_9StringRefEjmmmmjj
libbcc.so.0:_ZN4llvm16MachObjectWriter24executePostLayoutBindingERNS_11MCAssemblerERKNS_11MCAsmLayoutE
libbcc.so.0:_ZN4llvm16MachObjectWriter24writeDysymtabLoadCommandEjjjjjjjj
libbcc.so.0:_ZN4llvm16MachObjectWriter24writeLinkeditLoadCommandEjjj
libbcc.so.0:_ZN4llvm16MachObjectWriter29writeLinkerOptionsLoadCommandERKSt6vectorINSt7__cxx1112basic_stringIcSt11char_traitsIcESaIcEEESaIS7_EE
libbcc.so.0:_ZN4llvm16MachObjectWriter33doesSymbolRequireExternRelocationERKNS_8MCSymbolE
libbcc.so.0:_ZN4llvm16MachObjectWriter5resetEv
libbcc.so.0:_ZN4llvm16MachineFrameInfo17CreateFixedObjectEmlbb
libbcc.so.0:_ZN4llvm16MachineFrameInfo17CreateStackObjectEmNS_5AlignEbPKNS_10AllocaInstEh
libbcc.so.0:_ZN4llvm16MachineFrameInfo18ensureMaxAlignmentENS_5AlignE
libbcc.so.0:_ZN4llvm16MachineFrameInfo22CreateSpillStackObjectEmNS_5AlignE
libbcc.so.0:_ZN4llvm16MachineFrameInfo23computeMaxCallFrameSizeERKNS_15MachineFunctionE
libbcc.so.0:_ZN4llvm16MachineFrameInfo25CreateVariableSizedObjectENS_5AlignEPKNS_10AllocaInstE
libbcc.so.0:_ZN4llvm16MachineFrameInfo27CreateFixedSpillStackObjectEmlb
libbcc.so.0:_ZN4llvm16MachineIRBuilder10buildFenceEjj
libbcc.so.0:_ZN4llvm16MachineIRBuilder10buildInstrEjNS_8ArrayRefINS_5DstOpEEENS1_INS_5SrcOpEEENS_8OptionalIjEE
libbcc.so.0:_ZN4llvm16MachineIRBuilder10buildMergeERKNS_5DstOpENS_8ArrayRefINS_8RegisterEEE
libbcc.so.0:_ZN4llvm16MachineIRBuilder10buildMergeERKNS_5DstOpESt16initializer_listINS_5SrcOpEE
libbcc.so.0:_ZN4llvm16MachineIRBuilder10buildStoreERKNS_5SrcOpES3_NS_18MachinePointerInfoENS_5AlignENS_17MachineMemOperand5FlagsERKNS_9AAMDNodesE
libbcc.so.0:_ZN4llvm16MachineIRBuilder10buildStoreERKNS_5SrcOpES3_RNS_17MachineMemOperandE
libbcc.so.0:_ZN4llvm16MachineIRBuilder10buildTruncERKNS_5DstOpERKNS_5SrcOpE
libbcc.so.0:_ZN4llvm16MachineIRBuilder10buildUndefERKNS_5DstOpE
libbcc.so.0:_ZN4llvm16MachineIRBuilder11buildAnyExtERKNS_5DstOpERKNS_5SrcOpE
libbcc.so.0:_ZN4llvm16MachineIRBuilder11buildBrCondERKNS_5SrcOpERNS_17MachineBasicBlockE
libbcc.so.0:_ZN4llvm16MachineIRBuilder11buildInsertERKNS_5DstOpERKNS_5SrcOpES6_j
libbcc.so.0:_ZN4llvm16MachineIRBuilder11buildPtrAddERKNS_5DstOpERKNS_5SrcOpES6_
libbcc.so.0:_ZN4llvm16MachineIRBuilder11buildSelectERKNS_5DstOpERKNS_5SrcOpES6_S6_NS_8OptionalIjEE
libbcc.so.0:_ZN4llvm16MachineIRBuilder11insertInstrENS_19MachineInstrBuilderE
libbcc.so.0:_ZN4llvm16MachineIRBuilder12buildBoolExtERKNS_5DstOpERKNS_5SrcOpEb
libbcc.so.0:_ZN4llvm16MachineIRBuilder12buildExtractERKNS_5DstOpERKNS_5SrcOpEm
libbcc.so.0:_ZN4llvm16MachineIRBuilder12buildFPTruncERKNS_5DstOpERKNS_5SrcOpENS_8OptionalIjEE
libbcc.so.0:_ZN4llvm16MachineIRBuilder12buildUnmergeENS_3LLTERKNS_5SrcOpE
libbcc.so.0:_ZN4llvm16MachineIRBuilder12buildUnmergeENS_8ArrayRefINS_3LLTEEERKNS_5SrcOpE
libbcc.so.0:_ZN4llvm16MachineIRBuilder12buildUnmergeENS_8ArrayRefINS_8RegisterEEERKNS_5SrcOpE
libbcc.so.0:_ZN4llvm16MachineIRBuilder13buildConstantERKNS_5DstOpERKNS_11ConstantIntE
libbcc.so.0:_ZN4llvm16MachineIRBuilder13buildConstantERKNS_5DstOpERKNS_5APIntE
libbcc.so.0:_ZN4llvm16MachineIRBuilder13buildConstantERKNS_5DstOpEl
libbcc.so.0:_ZN4llvm16MachineIRBuilder13buildDbgLabelEPKNS_6MDNodeE
libbcc.so.0:_ZN4llvm16MachineIRBuilder14buildAtomicRMWEjRKNS_5DstOpERKNS_5SrcOpES6_RNS_17MachineMemOperandE
libbcc.so.0:_ZN4llvm16MachineIRBuilder14buildFConstantERKNS_5DstOpERKNS_10ConstantFPE
libbcc.so.0:_ZN4llvm16MachineIRBuilder14buildFConstantERKNS_5DstOpERKNS_7APFloatE
libbcc.so.0:_ZN4llvm16MachineIRBuilder14buildFConstantERKNS_5DstOpEd
libbcc.so.0:_ZN4llvm16MachineIRBuilder14buildIntrinsicEjNS_8ArrayRefINS_5DstOpEEEb
libbcc.so.0:_ZN4llvm16MachineIRBuilder14buildIntrinsicEjNS_8ArrayRefINS_8RegisterEEEb
libbcc.so.0:_ZN4llvm16MachineIRBuilder14buildJumpTableENS_3LLTEj
libbcc.so.0:_ZN4llvm16MachineIRBuilder14buildLoadInstrEjRKNS_5DstOpERKNS_5SrcOpERNS_17MachineMemOperandE
libbcc.so.0:_ZN4llvm16MachineIRBuilder14buildZExtInRegERKNS_5DstOpERKNS_5SrcOpEl
libbcc.so.0:_ZN4llvm16MachineIRBuilder15buildBrIndirectENS_8RegisterE
libbcc.so.0:_ZN4llvm16MachineIRBuilder15buildExtOrTruncEjRKNS_5DstOpERKNS_5SrcOpE
libbcc.so.0:_ZN4llvm16MachineIRBuilder15buildFIDbgValueEiPKNS_6MDNodeES3_
libbcc.so.0:_ZN4llvm16MachineIRBuilder15buildFrameIndexERKNS_5DstOpEi
libbcc.so.0:_ZN4llvm16MachineIRBuilder15validateShiftOpENS_3LLTES1_S1_
libbcc.so.0:_ZN4llvm16MachineIRBuilder15validateUnaryOpENS_3LLTES1_
libbcc.so.0:_ZN4llvm16MachineIRBuilder16buildAtomicRMWOrENS_8RegisterES1_S1_RNS_17MachineMemOperandE
libbcc.so.0:_ZN4llvm16MachineIRBuilder16buildBuildVectorERKNS_5DstOpENS_8ArrayRefINS_8RegisterEEE
libbcc.so.0:_ZN4llvm16MachineIRBuilder16buildGlobalValueERKNS_5DstOpEPKNS_11GlobalValueE
libbcc.so.0:_ZN4llvm16MachineIRBuilder16buildSExtOrTruncERKNS_5DstOpERKNS_5SrcOpE
libbcc.so.0:_ZN4llvm16MachineIRBuilder16buildSplatVectorERKNS_5DstOpERKNS_5SrcOpE
libbcc.so.0:_ZN4llvm16MachineIRBuilder16buildZExtOrTruncERKNS_5DstOpERKNS_5SrcOpE
libbcc.so.0:_ZN4llvm16MachineIRBuilder16validateBinaryOpENS_3LLTES1_S1_
libbcc.so.0:_ZN4llvm16MachineIRBuilder16validateSelectOpENS_3LLTES1_S1_S1_
libbcc.so.0:_ZN4llvm16MachineIRBuilder16validateTruncExtENS_3LLTES1_b
libbcc.so.0:_ZN4llvm16MachineIRBuilder17buildAtomicRMWAddENS_8RegisterES1_S1_RNS_17MachineMemOperandE
libbcc.so.0:_ZN4llvm16MachineIRBuilder17buildAtomicRMWAndENS_8RegisterES1_S1_RNS_17MachineMemOperandE
libbcc.so.0:_ZN4llvm16MachineIRBuilder17buildAtomicRMWMaxENS_8RegisterES1_S1_RNS_17MachineMemOperandE
libbcc.so.0:_ZN4llvm16MachineIRBuilder17buildAtomicRMWMinENS_8RegisterES1_S1_RNS_17MachineMemOperandE
libbcc.so.0:_ZN4llvm16MachineIRBuilder17buildAtomicRMWSubENS_8RegisterES1_S1_RNS_17MachineMemOperandE
libbcc.so.0:_ZN4llvm16MachineIRBuilder17buildAtomicRMWXorENS_8RegisterES1_S1_RNS_17MachineMemOperandE
libbcc.so.0:_ZN4llvm16MachineIRBuilder17buildBlockAddressENS_8RegisterEPKNS_12BlockAddressE
libbcc.so.0:_ZN4llvm16MachineIRBuilder17buildBoolExtInRegERKNS_5DstOpERKNS_5SrcOpEbb
libbcc.so.0:_ZN4llvm16MachineIRBuilder17buildShuffleSplatERKNS_5DstOpERKNS_5SrcOpE
libbcc.so.0:_ZN4llvm16MachineIRBuilder17materializePtrAddERNS_8RegisterES1_NS_3LLTEm
libbcc.so.0:_ZN4llvm16MachineIRBuilder18buildAnyExtOrTruncERKNS_5DstOpERKNS_5SrcOpE
libbcc.so.0:_ZN4llvm16MachineIRBuilder18buildAtomicCmpXchgENS_8RegisterES1_S1_S1_RNS_17MachineMemOperandE
libbcc.so.0:_ZN4llvm16MachineIRBuilder18buildAtomicRMWFAddERKNS_5DstOpERKNS_5SrcOpES6_RNS_17MachineMemOperandE
libbcc.so.0:_ZN4llvm16MachineIRBuilder18buildAtomicRMWFMaxERKNS_5DstOpERKNS_5SrcOpES6_RNS_17MachineMemOperandE
libbcc.so.0:_ZN4llvm16MachineIRBuilder18buildAtomicRMWFMinERKNS_5DstOpERKNS_5SrcOpES6_RNS_17MachineMemOperandE
libbcc.so.0:_ZN4llvm16MachineIRBuilder18buildAtomicRMWFSubERKNS_5DstOpERKNS_5SrcOpES6_RNS_17MachineMemOperandE
libbcc.so.0:_ZN4llvm16MachineIRBuilder18buildAtomicRMWNandENS_8RegisterES1_S1_RNS_17MachineMemOperandE
libbcc.so.0:_ZN4llvm16MachineIRBuilder18buildAtomicRMWUmaxENS_8RegisterES1_S1_RNS_17MachineMemOperandE
libbcc.so.0:_ZN4llvm16MachineIRBuilder18buildAtomicRMWUminENS_8RegisterES1_S1_RNS_17MachineMemOperandE
libbcc.so.0:_ZN4llvm16MachineIRBuilder18buildAtomicRMWXchgENS_8RegisterES1_S1_RNS_17MachineMemOperandE
libbcc.so.0:_ZN4llvm16MachineIRBuilder18buildConcatVectorsERKNS_5DstOpENS_8ArrayRefINS_8RegisterEEE
libbcc.so.0:_ZN4llvm16MachineIRBuilder18buildConstDbgValueERKNS_8ConstantEPKNS_6MDNodeES6_
libbcc.so.0:_ZN4llvm16MachineIRBuilder18buildDynStackAllocERKNS_5DstOpERKNS_5SrcOpENS_5AlignE
libbcc.so.0:_ZN4llvm16MachineIRBuilder18buildInstrNoInsertEj
libbcc.so.0:_ZN4llvm16MachineIRBuilder18buildShuffleVectorERKNS_5DstOpERKNS_5SrcOpES6_NS_8ArrayRefIiEE
libbcc.so.0:_ZN4llvm16MachineIRBuilder19buildDirectDbgValueENS_8RegisterEPKNS_6MDNodeES4_
libbcc.so.0:_ZN4llvm16MachineIRBuilder19buildLoadFromOffsetERKNS_5DstOpERKNS_5SrcOpERNS_17MachineMemOperandEl
libbcc.so.0:_ZN4llvm16MachineIRBuilder19buildMaskLowPtrBitsERKNS_5DstOpERKNS_5SrcOpEj
libbcc.so.0:_ZN4llvm16MachineIRBuilder21buildBuildVectorTruncERKNS_5DstOpENS_8ArrayRefINS_8RegisterEEE
libbcc.so.0:_ZN4llvm16MachineIRBuilder21buildIndirectDbgValueENS_8RegisterEPKNS_6MDNodeES4_
libbcc.so.0:_ZN4llvm16MachineIRBuilder24buildBuildVectorConstantERKNS_5DstOpENS_8ArrayRefINS_5APIntEEE
libbcc.so.0:_ZN4llvm16MachineIRBuilder24buildInsertVectorElementERKNS_5DstOpERKNS_5SrcOpES6_S6_
libbcc.so.0:_ZN4llvm16MachineIRBuilder25buildExtractVectorElementERKNS_5DstOpERKNS_5SrcOpES6_
libbcc.so.0:_ZN4llvm16MachineIRBuilder29buildAtomicCmpXchgWithSuccessENS_8RegisterES1_S1_S1_S1_RNS_17MachineMemOperandE
libbcc.so.0:_ZN4llvm16MachineIRBuilder31buildPadVectorWithUndefElementsERKNS_5DstOpERKNS_5SrcOpE
libbcc.so.0:_ZN4llvm16MachineIRBuilder33buildDeleteTrailingVectorElementsERKNS_5DstOpERKNS_5SrcOpE
libbcc.so.0:_ZN4llvm16MachineIRBuilder5setMFERNS_15MachineFunctionE
libbcc.so.0:_ZN4llvm16MachineIRBuilder7buildBrERNS_17MachineBasicBlockE
libbcc.so.0:_ZN4llvm16MachineIRBuilder9buildBrJTENS_8RegisterEjS1_
libbcc.so.0:_ZN4llvm16MachineIRBuilder9buildCastERKNS_5DstOpERKNS_5SrcOpE
libbcc.so.0:_ZN4llvm16MachineIRBuilder9buildCopyERKNS_5DstOpERKNS_5SrcOpE
libbcc.so.0:_ZN4llvm16MachineIRBuilder9buildFCmpENS_7CmpInst9PredicateERKNS_5DstOpERKNS_5SrcOpES8_NS_8OptionalIjEE
libbcc.so.0:_ZN4llvm16MachineIRBuilder9buildICmpENS_7CmpInst9PredicateERKNS_5DstOpERKNS_5SrcOpES8_
libbcc.so.0:_ZN4llvm16MachineIRBuilder9buildLoadERKNS_5DstOpERKNS_5SrcOpENS_18MachinePointerInfoENS_5AlignENS_17MachineMemOperand5FlagsERKNS_9AAMDNodesE
libbcc.so.0:_ZN4llvm16MachineIRBuilder9buildSExtERKNS_5DstOpERKNS_5SrcOpE
libbcc.so.0:_ZN4llvm16MachineIRBuilder9buildZExtERKNS_5DstOpERKNS_5SrcOpE
libbcc.so.0:_ZN4llvm16MachinePipeliner12scheduleLoopERNS_11MachineLoopE
libbcc.so.0:_ZN4llvm16MachinePipeliner15canPipelineLoopERNS_11MachineLoopE
libbcc.so.0:_ZN4llvm16MachinePipeliner18preprocessPhiNodesERNS_17MachineBasicBlockE
libbcc.so.0:_ZN4llvm16MachinePipeliner20runOnMachineFunctionERNS_15MachineFunctionE
libbcc.so.0:_ZN4llvm16MachinePipeliner20swingModuloSchedulerERNS_11MachineLoopE
libbcc.so.0:_ZN4llvm16MachinePipeliner24setPragmaPipelineOptionsERNS_11MachineLoopE
libbcc.so.0:_ZN4llvm16MemoryDepChecker10Dependence22isSafeForVectorizationENS1_7DepTypeE
libbcc.so.0:_ZN4llvm16MemoryDepChecker11areDepsSafeERNS_18EquivalenceClassesINS_14PointerIntPairIPNS_5ValueELj1EbNS_21PointerLikeTypeTraitsIS4_EENS_18PointerIntPairInfoIS4_Lj1ES6_EEEESt4lessIS9_EEERNS_11SmallVectorIS9_Lj8EEERKNS_8DenseMapIPKS3_S4_NS_12DenseMapInfoISJ_vEENS_6detail12DenseMapPairISJ_S4_EEEE
libbcc.so.0:_ZN4llvm16MemoryDepChecker11isDependentERKNS_14PointerIntPairIPNS_5ValueELj1EbNS_21PointerLikeTypeTraitsIS3_EENS_18PointerIntPairInfoIS3_Lj1ES5_EEEEjSA_jRKNS_8DenseMapIPKS2_S3_NS_12DenseMapInfoISD_vEENS_6detail12DenseMapPairISD_S3_EEEE
libbcc.so.0:_ZN4llvm16MemoryDepChecker13mergeInStatusENS0_25VectorizationSafetyStatusE
libbcc.so.0:_ZN4llvm16MemoryDepChecker28couldPreventStoreLoadForwardEmm
libbcc.so.0:_ZN4llvm16MemoryDepChecker9addAccessEPNS_8LoadInstE
libbcc.so.0:_ZN4llvm16MemoryDepChecker9addAccessEPNS_9StoreInstE
libbcc.so.0:_ZN4llvm16MemorySSAUpdater10moveBeforeEPNS_14MemoryUseOrDefES2_
libbcc.so.0:_ZN4llvm16MemorySSAUpdater10recursePhiEPNS_12MemoryAccessE
libbcc.so.0:_ZN4llvm16MemorySSAUpdater10removeEdgeEPNS_10BasicBlockES2_
libbcc.so.0:_ZN4llvm16MemorySSAUpdater11moveToPlaceEPNS_14MemoryUseOrDefEPNS_10BasicBlockENS_9MemorySSA14InsertionPlaceE
libbcc.so.0:_ZN4llvm16MemorySSAUpdater12applyUpdatesENS_8ArrayRefINS_3cfg6UpdateIPNS_10BasicBlockEEEEERNS_13DominatorTreeEb
libbcc.so.0:_ZN4llvm16MemorySSAUpdater12removeBlocksERKNS_14SmallSetVectorIPNS_10BasicBlockELj8EEE
libbcc.so.0:_ZN4llvm16MemorySSAUpdater14getPreviousDefEPNS_12MemoryAccessE
libbcc.so.0:_ZN4llvm16MemorySSAUpdater15moveAllAccessesEPNS_10BasicBlockES2_PNS_11InstructionE
libbcc.so.0:_ZN4llvm16MemorySSAUpdater16cloneUsesAndDefsEPNS_10BasicBlockES2_RKNS_8ValueMapIPKNS_5ValueENS_14WeakTrackingVHENS_14ValueMapConfigIS6_NS_3sys10SmartMutexILb0EEEEEEERNS_13SmallDenseMapIPNS_9MemoryPhiEPNS_12MemoryAccessELj4ENS_12DenseMapInfoISI_vEENS_6detail12DenseMapPairISI_SK_EEEEb
libbcc.so.0:_ZN4llvm16MemorySSAUpdater18applyInsertUpdatesENS_8ArrayRefINS_3cfg6UpdateIPNS_10BasicBlockEEEEERNS_13DominatorTreeE
libbcc.so.0:_ZN4llvm16MemorySSAUpdater18applyInsertUpdatesENS_8ArrayRefINS_3cfg6UpdateIPNS_10BasicBlockEEEEERNS_13DominatorTreeEPKNS_9GraphDiffIS5_Lb0EEE
libbcc.so.0:_ZN4llvm16MemorySSAUpdater18removeMemoryAccessEPNS_12MemoryAccessEb
libbcc.so.0:_ZN4llvm16MemorySSAUpdater19changeToUnreachableEPKNS_11InstructionE
libbcc.so.0:_ZN4llvm16MemorySSAUpdater19tryRemoveTrivialPhiEPNS_9MemoryPhiE
libbcc.so.0:_ZN4llvm16MemorySSAUpdater19updateForClonedLoopERKNS_13LoopBlocksRPOENS_8ArrayRefIPNS_10BasicBlockEEERKNS_8ValueMapIPKNS_5ValueENS_14WeakTrackingVHENS_14ValueMapConfigISB_NS_3sys10SmartMutexILb0EEEEEEEb
libbcc.so.0:_ZN4llvm16MemorySSAUpdater20tryRemoveTrivialPhisENS_8ArrayRefINS_6WeakVHEEE
libbcc.so.0:_ZN4llvm16MemorySSAUpdater21getPreviousDefFromEndEPNS_10BasicBlockERNS_8DenseMapIS2_NS_10TrackingVHINS_12MemoryAccessEEENS_12DenseMapInfoIS2_vEENS_6detail12DenseMapPairIS2_S6_EEEE
libbcc.so.0:_ZN4llvm16MemorySSAUpdater21getPreviousDefInBlockEPNS_12MemoryAccessE
libbcc.so.0:_ZN4llvm16MemorySSAUpdater22createMemoryAccessInBBEPNS_11InstructionEPNS_12MemoryAccessEPKNS_10BasicBlockENS_9MemorySSA14InsertionPlaceE
libbcc.so.0:_ZN4llvm16MemorySSAUpdater23createMemoryAccessAfterEPNS_11InstructionEPNS_12MemoryAccessES4_
libbcc.so.0:_ZN4llvm16MemorySSAUpdater23getPreviousDefRecursiveEPNS_10BasicBlockERNS_8DenseMapIS2_NS_10TrackingVHINS_12MemoryAccessEEENS_12DenseMapInfoIS2_vEENS_6detail12DenseMapPairIS2_S6_EEEE
libbcc.so.0:_ZN4llvm16MemorySSAUpdater23moveAllAfterMergeBlocksEPNS_10BasicBlockES2_PNS_11InstructionE
libbcc.so.0:_ZN4llvm16MemorySSAUpdater24createMemoryAccessBeforeEPNS_11InstructionEPNS_12MemoryAccessEPNS_14MemoryUseOrDefE
libbcc.so.0:_ZN4llvm16MemorySSAUpdater24moveAllAfterSpliceBlocksEPNS_10BasicBlockES2_PNS_11InstructionE
libbcc.so.0:_ZN4llvm16MemorySSAUpdater28updateForClonedBlockIntoPredEPNS_10BasicBlockES2_RKNS_8ValueMapIPKNS_5ValueENS_14WeakTrackingVHENS_14ValueMapConfigIS6_NS_3sys10SmartMutexILb0EEEEEEE
libbcc.so.0:_ZN4llvm16MemorySSAUpdater29updateExitBlocksForClonedLoopENS_8ArrayRefIPNS_10BasicBlockEEENS1_ISt10unique_ptrINS_8ValueMapIPKNS_5ValueENS_14WeakTrackingVHENS_14ValueMapConfigIS9_NS_3sys10SmartMutexILb0EEEEEEESt14default_deleteISG_EEEERNS_13DominatorTreeE
libbcc.so.0:_ZN4llvm16MemorySSAUpdater29updateExitBlocksForClonedLoopENS_8ArrayRefIPNS_10BasicBlockEEERKNS_8ValueMapIPKNS_5ValueENS_14WeakTrackingVHENS_14ValueMapConfigIS8_NS_3sys10SmartMutexILb0EEEEEEERNS_13DominatorTreeE
libbcc.so.0:_ZN4llvm16MemorySSAUpdater30removeDuplicatePhiEdgesBetweenEPKNS_10BasicBlockES3_
libbcc.so.0:_ZN4llvm16MemorySSAUpdater42updatePhisWhenInsertingUniqueBackedgeBlockEPNS_10BasicBlockES2_S2_
libbcc.so.0:_ZN4llvm16MemorySSAUpdater44wireOldPredecessorsToNewImmediatePredecessorEPNS_10BasicBlockES2_NS_8ArrayRefIS2_EEb
libbcc.so.0:_ZN4llvm16MemorySSAUpdater9fixupDefsERKNS_15SmallVectorImplINS_6WeakVHEEE
libbcc.so.0:_ZN4llvm16MemorySSAUpdater9insertDefEPNS_9MemoryDefEb
libbcc.so.0:_ZN4llvm16MemorySSAUpdater9insertUseEPNS_9MemoryUseEb
libbcc.so.0:_ZN4llvm16MemorySSAUpdater9moveAfterEPNS_14MemoryUseOrDefES2_
libbcc.so.0:_ZN4llvm16MetadataTracking13isReplaceableERKNS_8MetadataE
libbcc.so.0:_ZN4llvm16MetadataTracking5trackEPvRNS_8MetadataENS_12PointerUnionIJPNS_15MetadataAsValueEPS2_EEE
libbcc.so.0:_ZN4llvm16MetadataTracking7retrackEPvRNS_8MetadataES1_
libbcc.so.0:_ZN4llvm16MetadataTracking7untrackEPvRNS_8MetadataE
libbcc.so.0:_ZN4llvm16NamedRegionTimerC1ENS_9StringRefES1_S1_S1_b
libbcc.so.0:_ZN4llvm16NamedRegionTimerC2ENS_9StringRefES1_S1_S1_b
libbcc.so.0:_ZN4llvm16OutlinableRegion10getBenefitERNS_19TargetTransformInfoE
libbcc.so.0:_ZN4llvm16OutlinableRegion14splitCandidateEv
libbcc.so.0:_ZN4llvm16OutlinableRegion17reattachCandidateEv
libbcc.so.0:_ZN4llvm16OutlinableRegion24findCorrespondingBlockInERKS0_PNS_10BasicBlockE
libbcc.so.0:_ZN4llvm16OutlinableRegion24findCorrespondingValueInERKS0_PNS_5ValueE
libbcc.so.0:_ZN4llvm16PointerAlignElem9getInBitsEjNS_5AlignES1_jj
libbcc.so.0:_ZN4llvm16RegisterBankInfo14OperandsMapper11createVRegsEj
libbcc.so.0:_ZN4llvm16RegisterBankInfo14OperandsMapper11getVRegsMemEj
libbcc.so.0:_ZN4llvm16RegisterBankInfo14OperandsMapper14getNewVRegsEndEjj
libbcc.so.0:_ZN4llvm16RegisterBankInfo14OperandsMapper8setVRegsEjjNS_8RegisterE
libbcc.so.0:_ZN4llvm16RegisterBankInfo14OperandsMapperC1ERNS_12MachineInstrERKNS0_18InstructionMappingERNS_19MachineRegisterInfoE
libbcc.so.0:_ZN4llvm16RegisterBankInfo14OperandsMapperC2ERNS_12MachineInstrERKNS0_18InstructionMappingERNS_19MachineRegisterInfoE
libbcc.so.0:_ZN4llvm16RegisterBankInfo19applyDefaultMappingERKNS0_14OperandsMapperE
libbcc.so.0:_ZN4llvm16RegisterBankInfo24constrainGenericRegisterENS_8RegisterERKNS_19TargetRegisterClassERNS_19MachineRegisterInfoE
libbcc.so.0:_ZN4llvm16RegisterBankInfoC1EPPNS_12RegisterBankEj
libbcc.so.0:_ZN4llvm16RegisterBankInfoC2EPPNS_12RegisterBankEj
libbcc.so.0:_ZN4llvm16RegisterOperands14detectDeadDefsERKNS_12MachineInstrERKNS_13LiveIntervalsE
libbcc.so.0:_ZN4llvm16RegisterOperands18adjustLaneLivenessERKNS_13LiveIntervalsERKNS_19MachineRegisterInfoENS_9SlotIndexEPNS_12MachineInstrE
libbcc.so.0:_ZN4llvm16RegisterOperands7collectERKNS_12MachineInstrERKNS_18TargetRegisterInfoERKNS_19MachineRegisterInfoEbb
libbcc.so.0:_ZN4llvm16RuntimeDyldMachO10loadObjectERKNS_6object10ObjectFileE
libbcc.so.0:_ZN4llvm16RuntimeDyldMachO19getSectionByAddressERKNS_6object15MachOObjectFileEm
libbcc.so.0:_ZN4llvm16RuntimeDyldMachO20makeValueAddendPCRelERNS_18RelocationValueRefERKNS_6object16content_iteratorINS3_13RelocationRefEEEj
libbcc.so.0:_ZN4llvm16RuntimeDyldMachO21getRelocationValueRefERKNS_6object10ObjectFileERKNS1_16content_iteratorINS1_13RelocationRefEEERKNS_15RelocationEntryERSt3mapINS1_10SectionRefEjSt4lessISE_ESaISt4pairIKSE_jEEE
libbcc.so.0:_ZN4llvm16RuntimeDyldMachO23processScatteredVANILLAEjNS_6object16content_iteratorINS1_13RelocationRefEEERKNS1_10ObjectFileERSt3mapINS1_10SectionRefEjSt4lessIS9_ESaISt4pairIKS9_jEEEb
libbcc.so.0:_ZN4llvm16RuntimeDyldMachO37populateIndirectSymbolPointersSectionERKNS_6object15MachOObjectFileERKNS1_10SectionRefEj
libbcc.so.0:_ZN4llvm16RuntimeDyldMachO6createENS_6Triple8ArchTypeERNS_11RuntimeDyld13MemoryManagerERNS_17JITSymbolResolverE
libbcc.so.0:_ZN4llvm16SCEVPtrToIntExprC1ENS_19FoldingSetNodeIDRefEPKNS_4SCEVEPNS_4TypeE
libbcc.so.0:_ZN4llvm16SCEVPtrToIntExprC2ENS_19FoldingSetNodeIDRefEPKNS_4SCEVEPNS_4TypeE
libbcc.so.0:_ZN4llvm16SCEVTruncateExprC1ENS_19FoldingSetNodeIDRefEPKNS_4SCEVEPNS_4TypeE
libbcc.so.0:_ZN4llvm16SCEVTruncateExprC2ENS_19FoldingSetNodeIDRefEPKNS_4SCEVEPNS_4TypeE
libbcc.so.0:_ZN4llvm16ScaledNumberBase4dumpEmsi
libbcc.so.0:_ZN4llvm16ScaledNumberBase5printERNS_11raw_ostreamEmsij
libbcc.so.0:_ZN4llvm16ScaledNumberBase8toStringB5cxx11Emsij
libbcc.so.0:_ZN4llvm16SelectionDAGISel12Select_UNDEFEPNS_6SDNodeE
libbcc.so.0:_ZN4llvm16SelectionDAGISel12UpdateChainsEPNS_6SDNodeENS_7SDValueERNS_15SmallVectorImplIS2_EEb
libbcc.so.0:_ZN4llvm16SelectionDAGISel13IsLegalToFoldENS_7SDValueEPNS_6SDNodeES3_NS_10CodeGenOpt5LevelEb
libbcc.so.0:_ZN4llvm16SelectionDAGISel13Select_FREEZEEPNS_6SDNodeE
libbcc.so.0:_ZN4llvm16SelectionDAGISel14LowerArgumentsERKNS_8FunctionE
libbcc.so.0:_ZN4llvm16SelectionDAGISel15CannotYetSelectEPNS_6SDNodeE
libbcc.so.0:_ZN4llvm16SelectionDAGISel15CreateSchedulerEv
libbcc.so.0:_ZN4llvm16SelectionDAGISel15Select_STACKMAPEPNS_6SDNodeE
libbcc.so.0:_ZN4llvm16SelectionDAGISel16FinishBasicBlockEv
libbcc.so.0:_ZN4llvm16SelectionDAGISel16InvalidateNodeIdEPNS_6SDNodeE
libbcc.so.0:_ZN4llvm16SelectionDAGISel16SelectBasicBlockENS_14ilist_iteratorINS_12ilist_detail12node_optionsINS_11InstructionELb0ELb0EvEELb0ELb1EEES6_Rb
libbcc.so.0:_ZN4llvm16SelectionDAGISel16SelectCodeCommonEPNS_6SDNodeEPKhj
libbcc.so.0:_ZN4llvm16SelectionDAGISel16Select_INLINEASMEPNS_6SDNodeE
libbcc.so.0:_ZN4llvm16SelectionDAGISel17CodeGenAndEmitDAGEv
libbcc.so.0:_ZN4llvm16SelectionDAGISel17Select_PATCHPOINTEPNS_6SDNodeE
libbcc.so.0:_ZN4llvm16SelectionDAGISel18Select_ARITH_FENCEEPNS_6SDNodeE
libbcc.so.0:_ZN4llvm16SelectionDAGISel19PrepareEHLandingPadEv
libbcc.so.0:_ZN4llvm16SelectionDAGISel20SelectAllBasicBlocksERKNS_8FunctionE
libbcc.so.0:_ZN4llvm16SelectionDAGISel20Select_READ_REGISTEREPNS_6SDNodeE
libbcc.so.0:_ZN4llvm16SelectionDAGISel20runOnMachineFunctionERNS_15MachineFunctionE
libbcc.so.0:_ZN4llvm16SelectionDAGISel21Select_WRITE_REGISTEREPNS_6SDNodeE
libbcc.so.0:_ZN4llvm16SelectionDAGISel22ComputeLiveOutVRegInfoEv
libbcc.so.0:_ZN4llvm16SelectionDAGISel22DoInstructionSelectionEv
libbcc.so.0:_ZN4llvm16SelectionDAGISel22EnforceNodeIdInvariantEPNS_6SDNodeE
libbcc.so.0:_ZN4llvm16SelectionDAGISel22getUninvalidatedNodeIdEPNS_6SDNodeE
libbcc.so.0:_ZN4llvm16SelectionDAGISel24pushStackMapLiveVariableERNS_15SmallVectorImplINS_7SDValueEEES2_NS_5SDLocE
libbcc.so.0:_ZN4llvm16SelectionDAGISel29SelectInlineAsmMemoryOperandsERSt6vectorINS_7SDValueESaIS2_EERKNS_5SDLocE
libbcc.so.0:_ZN4llvm16SelectionDAGISel9MorphNodeEPNS_6SDNodeEjNS_8SDVTListENS_8ArrayRefINS_7SDValueEEEj
libbcc.so.0:_ZN4llvm16SelectionDAGISelC2ERNS_13TargetMachineENS_10CodeGenOpt5LevelE
libbcc.so.0:_ZN4llvm16SelectionDAGISelD0Ev
libbcc.so.0:_ZN4llvm16SelectionDAGISelD1Ev
libbcc.so.0:_ZN4llvm16SelectionDAGISelD2Ev
libbcc.so.0:_ZN4llvm16StoreIntToMemoryERKNS_5APIntEPhj
libbcc.so.0:_ZN4llvm16StripGCRelocates3runERNS_8FunctionERNS_15AnalysisManagerIS1_JEEE
libbcc.so.0:_ZN4llvm16StripSymbolsPass3runERNS_6ModuleERNS_15AnalysisManagerIS1_JEEE
libbcc.so.0:_ZN4llvm16TailCallElimPass3runERNS_8FunctionERNS_15AnalysisManagerIS1_JEEE
libbcc.so.0:_ZN4llvm16TargetIRAnalysis13getDefaultTTIERKNS_8FunctionE
libbcc.so.0:_ZN4llvm16TargetIRAnalysis3runERKNS_8FunctionERNS_15AnalysisManagerIS1_JEEE
libbcc.so.0:_ZN4llvm16TargetIRAnalysisC1ESt8functionIFNS_19TargetTransformInfoERKNS_8FunctionEEE
libbcc.so.0:_ZN4llvm16TargetIRAnalysisC1Ev
libbcc.so.0:_ZN4llvm16TargetIRAnalysisC2ESt8functionIFNS_19TargetTransformInfoERKNS_8FunctionEEE
libbcc.so.0:_ZN4llvm16TargetIRAnalysisC2Ev
libbcc.so.0:_ZN4llvm16TargetPassConfig10insertPassEPKvNS_18IdentifyingPassPtrE
libbcc.so.0:_ZN4llvm16TargetPassConfig11addGCPassesEv
libbcc.so.0:_ZN4llvm16TargetPassConfig11addIRPassesEv
libbcc.so.0:_ZN4llvm16TargetPassConfig12addPrintPassERKNSt7__cxx1112basic_stringIcSt11char_traitsIcESaIcEEE
libbcc.so.0:_ZN4llvm16TargetPassConfig13addISelPassesEv
libbcc.so.0:_ZN4llvm16TargetPassConfig13addVerifyPassERKNSt7__cxx1112basic_stringIcSt11char_traitsIcESaIcEEE
libbcc.so.0:_ZN4llvm16TargetPassConfig14addISelPrepareEv
libbcc.so.0:_ZN4llvm16TargetPassConfig14printAndVerifyERKNSt7__cxx1112basic_stringIcSt11char_traitsIcESaIcEEE
libbcc.so.0:_ZN4llvm16TargetPassConfig14substitutePassEPKvNS_18IdentifyingPassPtrE
libbcc.so.0:_ZN4llvm16TargetPassConfig15addDebugifyPassEv
libbcc.so.0:_ZN4llvm16TargetPassConfig15addFastRegAllocEv
libbcc.so.0:_ZN4llvm16TargetPassConfig16addMachinePassesEv
libbcc.so.0:_ZN4llvm16TargetPassConfig17addBlockPlacementEv
libbcc.so.0:_ZN4llvm16TargetPassConfig17addCheckDebugPassEv
libbcc.so.0:_ZN4llvm16TargetPassConfig17addCodeGenPrepareEv
libbcc.so.0:_ZN4llvm16TargetPassConfig17addCoreISelPassesEv
libbcc.so.0:_ZN4llvm16TargetPassConfig17addStripDebugPassEv
libbcc.so.0:_ZN4llvm16TargetPassConfig18createRegAllocPassEb
libbcc.so.0:_ZN4llvm16TargetPassConfig18setStartStopPassesEv
libbcc.so.0:_ZN4llvm16TargetPassConfig19addMachinePrePassesEb
libbcc.so.0:_ZN4llvm16TargetPassConfig20addMachinePostPassesERKNSt7__cxx1112basic_stringIcSt11char_traitsIcESaIcEEE
libbcc.so.0:_ZN4llvm16TargetPassConfig20addOptimizedRegAllocEv
libbcc.so.0:_ZN4llvm16TargetPassConfig20isCustomizedRegAllocEv
libbcc.so.0:_ZN4llvm16TargetPassConfig25addMachineSSAOptimizationEv
libbcc.so.0:_ZN4llvm16TargetPassConfig25hasLimitedCodeGenPipelineEv
libbcc.so.0:_ZN4llvm16TargetPassConfig26addMachineLateOptimizationEv
libbcc.so.0:_ZN4llvm16TargetPassConfig26addRegAssignAndRewriteFastEv
libbcc.so.0:_ZN4llvm16TargetPassConfig27addPassesToHandleExceptionsEv
libbcc.so.0:_ZN4llvm16TargetPassConfig27willCompleteCodeGenPipelineEv
libbcc.so.0:_ZN4llvm16TargetPassConfig29createTargetRegisterAllocatorEb
libbcc.so.0:_ZN4llvm16TargetPassConfig31addRegAssignAndRewriteOptimizedEv
libbcc.so.0:_ZN4llvm16TargetPassConfig31getLimitedCodeGenPipelineReasonB5cxx11EPKc
libbcc.so.0:_ZN4llvm16TargetPassConfig6setOptERbb
libbcc.so.0:_ZN4llvm16TargetPassConfig7addPassEPKv
libbcc.so.0:_ZN4llvm16TargetPassConfig7addPassEPNS_4PassE
libbcc.so.0:_ZN4llvm16TargetPassConfigC1ERNS_17LLVMTargetMachineERNS_6legacy15PassManagerBaseE
libbcc.so.0:_ZN4llvm16TargetPassConfigC1Ev
libbcc.so.0:_ZN4llvm16TargetPassConfigC2ERNS_17LLVMTargetMachineERNS_6legacy15PassManagerBaseE
libbcc.so.0:_ZN4llvm16TargetPassConfigC2Ev
libbcc.so.0:_ZN4llvm16TargetPassConfigD0Ev
libbcc.so.0:_ZN4llvm16TargetPassConfigD1Ev
libbcc.so.0:_ZN4llvm16TargetPassConfigD2Ev
libbcc.so.0:_ZN4llvm16TargetSchedModel4initEPKNS_19TargetSubtargetInfoE
libbcc.so.0:_ZN4llvm16TruncInstCombine14getMinBitWidthEv
libbcc.so.0:_ZN4llvm16TruncInstCombine17getReducedOperandEPNS_5ValueEPNS_4TypeE
libbcc.so.0:_ZN4llvm16TruncInstCombine20getBestTruncatedTypeEv
libbcc.so.0:_ZN4llvm16TruncInstCombine21ReduceExpressionGraphEPNS_4TypeE
libbcc.so.0:_ZN4llvm16TruncInstCombine25buildTruncExpressionGraphEv
libbcc.so.0:_ZN4llvm16TruncInstCombine3runERNS_8FunctionE
libbcc.so.0:_ZN4llvm16UnrollAndJamLoopEPNS_4LoopEjjjbPNS_8LoopInfoEPNS_15ScalarEvolutionEPNS_13DominatorTreeEPNS_15AssumptionCacheEPKNS_19TargetTransformInfoEPNS_25OptimizationRemarkEmitterEPS1_
libbcc.so.0:_ZN4llvm16UpgradeDebugInfoERNS_6ModuleE
libbcc.so.0:_ZN4llvm16VPTransformState11addMetadataENS_8ArrayRefIPNS_5ValueEEEPNS_11InstructionE
libbcc.so.0:_ZN4llvm16VPTransformState11addMetadataEPNS_11InstructionES2_
libbcc.so.0:_ZN4llvm16VPTransformState14addNewMetadataEPNS_11InstructionEPKS1_
libbcc.so.0:_ZN4llvm16VPTransformState19setDebugLocFromInstEPKNS_5ValueE
libbcc.so.0:_ZN4llvm16VPTransformState3getEPNS_7VPValueERKNS_11VPIterationE
libbcc.so.0:_ZN4llvm16VPTransformState3getEPNS_7VPValueEj
libbcc.so.0:_ZN4llvm16VPTransformState8CFGState17getPreheaderBBForEPNS_12VPRecipeBaseE
libbcc.so.0:_ZN4llvm16VPWidenGEPRecipe7executeERNS_16VPTransformStateE
libbcc.so.0:_ZN4llvm16VPWidenPHIRecipe7executeERNS_16VPTransformStateE
libbcc.so.0:_ZN4llvm16VPlanHCFGBuilder13buildPlainCFGEv
libbcc.so.0:_ZN4llvm16VPlanHCFGBuilder20buildHierarchicalCFGEv
libbcc.so.0:_ZN4llvm16ValueSymbolTable13reinsertValueEPNS_5ValueE
libbcc.so.0:_ZN4llvm16ValueSymbolTable14makeUniqueNameEPNS_5ValueERNS_11SmallStringILj256EEE
libbcc.so.0:_ZN4llvm16ValueSymbolTable15createValueNameENS_9StringRefEPNS_5ValueE
libbcc.so.0:_ZN4llvm16ValueSymbolTable15removeValueNameEPNS_14StringMapEntryIPNS_5ValueEEE
libbcc.so.0:_ZN4llvm16ValueSymbolTableD1Ev
libbcc.so.0:_ZN4llvm16ValueSymbolTableD2Ev
libbcc.so.0:_ZN4llvm16VectorizerParams18isInterleaveForcedEv
libbcc.so.0:_ZN4llvm16VerifierAnalysis3runERNS_6ModuleERNS_15AnalysisManagerIS1_JEEE
libbcc.so.0:_ZN4llvm16VerifierAnalysis3runERNS_8FunctionERNS_15AnalysisManagerIS1_JEEE
libbcc.so.0:_ZN4llvm16addRuntimeChecksEPNS_11InstructionEPNS_4LoopERKNS_15SmallVectorImplISt4pairIPKNS_23RuntimeCheckingPtrGroupES8_EEERNS_12SCEVExpanderE
libbcc.so.0:_ZN4llvm16computeKnownBitsEPKNS_5ValueERKNS_10DataLayoutEjPNS_15AssumptionCacheEPKNS_11InstructionEPKNS_13DominatorTreeEPNS_25OptimizationRemarkEmitterEb
libbcc.so.0:_ZN4llvm16computeKnownBitsEPKNS_5ValueERKNS_5APIntERKNS_10DataLayoutEjPNS_15AssumptionCacheEPKNS_11InstructionEPKNS_13DominatorTreeEPNS_25OptimizationRemarkEmitterEb
libbcc.so.0:_ZN4llvm16computeKnownBitsEPKNS_5ValueERKNS_5APIntERNS_9KnownBitsERKNS_10DataLayoutEjPNS_15AssumptionCacheEPKNS_11InstructionEPKNS_13DominatorTreeEPNS_25OptimizationRemarkEmitterEb
libbcc.so.0:_ZN4llvm16computeKnownBitsEPKNS_5ValueERNS_9KnownBitsERKNS_10DataLayoutEjPNS_15AssumptionCacheEPKNS_11InstructionEPKNS_13DominatorTreeEPNS_25OptimizationRemarkEmitterEb
libbcc.so.0:_ZN4llvm16computePeelCountEPNS_4LoopEjRNS_19TargetTransformInfo18PeelingPreferencesEjRNS_13DominatorTreeERNS_15ScalarEvolutionEj
libbcc.so.0:_ZN4llvm16computeValueLLTsERKNS_10DataLayoutERNS_4TypeERNS_15SmallVectorImplINS_3LLTEEEPNS5_ImEEm
libbcc.so.0:_ZN4llvm16createAAEvalPassEv
libbcc.so.0:_ZN4llvm16createIPSCCPPassEv
libbcc.so.0:_ZN4llvm16createMemLibcallERNS_16MachineIRBuilderERNS_19MachineRegisterInfoERNS_12MachineInstrERNS_20LostDebugLocObserverE
libbcc.so.0:_ZN4llvm16createNewGVNPassEv
libbcc.so.0:_ZN4llvm16createStrideMaskEjjj
libbcc.so.0:_ZN4llvm16createWasmEHPassEv
libbcc.so.0:_ZN4llvm16detachDeadBlocksENS_8ArrayRefIPNS_10BasicBlockEEEPNS_15SmallVectorImplINS_3cfg6UpdateIS2_EEEEb
libbcc.so.0:_ZN4llvm16diagnoseDontCallERKNS_8CallInstE
libbcc.so.0:_ZN4llvm16ehAwareSplitEdgeEPNS_10BasicBlockES1_PNS_14LandingPadInstEPNS_7PHINodeERKNS_28CriticalEdgeSplittingOptionsERKNS_5TwineE
libbcc.so.0:_ZN4llvm16errorCodeToErrorESt10error_code
libbcc.so.0:_ZN4llvm16errorToErrorCodeENS_5ErrorE
libbcc.so.0:_ZN4llvm16getColorCategoryEv
libbcc.so.0:_ZN4llvm16getUniqueCastUseEPNS_5ValueEPNS_4LoopEPNS_4TypeE
libbcc.so.0:_ZN4llvm16initDebugOptionsEv
libbcc.so.0:_ZN4llvm16initTimerOptionsEv
libbcc.so.0:_ZN4llvm16isCycleInvariantEPKNS_12GenericCycleINS_17GenericSSAContextINS_15MachineFunctionEEEEERNS_12MachineInstrE
libbcc.so.0:_ZN4llvm16isIRPrintingPassEPNS_4PassE
libbcc.so.0:_ZN4llvm16isLegalToPromoteERKNS_8CallBaseEPNS_8FunctionEPPKc
libbcc.so.0:_ZN4llvm16isNullFPConstantENS_7SDValueE
libbcc.so.0:_ZN4llvm16isRemovableAllocEPKNS_8CallBaseEPKNS_17TargetLibraryInfoE
libbcc.so.0:_ZN4llvm16itanium_demangle19parse_discriminatorEPKcS2_
libbcc.so.0:_ZN4llvm16parseBitcodeFileENS_15MemoryBufferRefERNS_11LLVMContextENS_12function_refIFNS_8OptionalINSt7__cxx1112basic_stringIcSt11char_traitsIcESaIcEEEEENS_9StringRefEEEE
libbcc.so.0:_ZN4llvm16printAfterPassesB5cxx11Ev
libbcc.so.0:_ZN4llvm16printHTMLEscapedENS_9StringRefERNS_11raw_ostreamE
libbcc.so.0:_ZN4llvm16propagateIRFlagsEPNS_5ValueENS_8ArrayRefIS1_EES1_b
libbcc.so.0:_ZN4llvm16propagatesPoisonEPKNS_8OperatorE
libbcc.so.0:_ZN4llvm16raw_null_ostream10write_implEPKcm
libbcc.so.0:_ZN4llvm16raw_null_ostream11pwrite_implEPKcmm
libbcc.so.0:_ZN4llvm16raw_null_ostreamD0Ev
libbcc.so.0:_ZN4llvm16raw_null_ostreamD1Ev
libbcc.so.0:_ZN4llvm16raw_null_ostreamD2Ev
libbcc.so.0:_ZN4llvm16removeUnwindEdgeEPNS_10BasicBlockEPNS_14DomTreeUpdaterE
libbcc.so.0:_ZN4llvm16salvageDebugInfoERNS_11InstructionE
libbcc.so.0:_ZN4llvm16salvageKnowledgeEPNS_11InstructionEPNS_15AssumptionCacheEPNS_13DominatorTreeE
libbcc.so.0:_ZN4llvm16saveUsesAndEraseERNS_12MachineInstrERNS_19MachineRegisterInfoEPNS_20LostDebugLocObserverERNS_13GISelWorkListILj4EEE
libbcc.so.0:_ZN4llvm16shouldOptForSizeERKNS_17MachineBasicBlockEPNS_18ProfileSummaryInfoEPNS_18BlockFrequencyInfoE
libbcc.so.0:_ZN4llvm16simplifyAShrInstEPNS_5ValueES1_bRKNS_13SimplifyQueryE
libbcc.so.0:_ZN4llvm16simplifyCastInstEjPNS_5ValueEPNS_4TypeERKNS_13SimplifyQueryE
libbcc.so.0:_ZN4llvm16simplifyFAddInstEPNS_5ValueES1_NS_13FastMathFlagsERKNS_13SimplifyQueryENS_2fp17ExceptionBehaviorENS_12RoundingModeE
libbcc.so.0:_ZN4llvm16simplifyFCmpInstEjPNS_5ValueES1_NS_13FastMathFlagsERKNS_13SimplifyQueryE
libbcc.so.0:_ZN4llvm16simplifyFDivInstEPNS_5ValueES1_NS_13FastMathFlagsERKNS_13SimplifyQueryENS_2fp17ExceptionBehaviorENS_12RoundingModeE
libbcc.so.0:_ZN4llvm16simplifyFMulInstEPNS_5ValueES1_NS_13FastMathFlagsERKNS_13SimplifyQueryENS_2fp17ExceptionBehaviorENS_12RoundingModeE
libbcc.so.0:_ZN4llvm16simplifyFNegInstEPNS_5ValueENS_13FastMathFlagsERKNS_13SimplifyQueryE
libbcc.so.0:_ZN4llvm16simplifyFRemInstEPNS_5ValueES1_NS_13FastMathFlagsERKNS_13SimplifyQueryENS_2fp17ExceptionBehaviorENS_12RoundingModeE
libbcc.so.0:_ZN4llvm16simplifyFSubInstEPNS_5ValueES1_NS_13FastMathFlagsERKNS_13SimplifyQueryENS_2fp17ExceptionBehaviorENS_12RoundingModeE
libbcc.so.0:_ZN4llvm16simplifyICmpInstEjPNS_5ValueES1_RKNS_13SimplifyQueryE
libbcc.so.0:_ZN4llvm16simplifyLShrInstEPNS_5ValueES1_bRKNS_13SimplifyQueryE
libbcc.so.0:_ZN4llvm16simplifySDivInstEPNS_5ValueES1_RKNS_13SimplifyQueryE
libbcc.so.0:_ZN4llvm16simplifySRemInstEPNS_5ValueES1_RKNS_13SimplifyQueryE
libbcc.so.0:_ZN4llvm16simplifyUDivInstEPNS_5ValueES1_RKNS_13SimplifyQueryE
libbcc.so.0:_ZN4llvm16simplifyURemInstEPNS_5ValueES1_RKNS_13SimplifyQueryE
libbcc.so.0:_ZN4llvm16splitBlockBeforeEPNS_10BasicBlockEPNS_11InstructionEPNS_14DomTreeUpdaterEPNS_8LoopInfoEPNS_16MemorySSAUpdaterERKNS_5TwineE
libbcc.so.0:_ZN4llvm16stripIntegerCastEPNS_5ValueE
libbcc.so.0:_ZN4llvm17AADereferenceable17createForPositionERKNS_10IRPositionERNS_10AttributorE
libbcc.so.0:_ZN4llvm17AAExecutionDomain17createForPositionERKNS_10IRPositionERNS_10AttributorE
libbcc.so.0:_ZN4llvm17AAPotentialValues14getSingleValueERNS_10AttributorERKNS_17AbstractAttributeERKNS_10IRPositionERNS_15SmallVectorImplINS_2AA15ValueAndContextEEE
libbcc.so.0:_ZN4llvm17AAPotentialValues17createForPositionERKNS_10IRPositionERNS_10AttributorE
libbcc.so.0:_ZN4llvm17AAPrivatizablePtr17createForPositionERKNS_10IRPositionERNS_10AttributorE
libbcc.so.0:_ZN4llvm17ARMJITSymbolFlags16fromObjectSymbolERKNS_6object9SymbolRefE
libbcc.so.0:_ZN4llvm17AbstractAttribute6updateERNS_10AttributorE
libbcc.so.0:_ZN4llvm17AddrSpaceCastInstC1EPNS_5ValueEPNS_4TypeERKNS_5TwineEPNS_10BasicBlockE
libbcc.so.0:_ZN4llvm17AddrSpaceCastInstC1EPNS_5ValueEPNS_4TypeERKNS_5TwineEPNS_11InstructionE
libbcc.so.0:_ZN4llvm17AddrSpaceCastInstC2EPNS_5ValueEPNS_4TypeERKNS_5TwineEPNS_10BasicBlockE
libbcc.so.0:_ZN4llvm17AddrSpaceCastInstC2EPNS_5ValueEPNS_4TypeERKNS_5TwineEPNS_11InstructionE
libbcc.so.0:_ZN4llvm17AlwaysInlinerPass3runERNS_6ModuleERNS_15AnalysisManagerIS1_JEEE
libbcc.so.0:_ZN4llvm17AsmPrinterHandler15markFunctionEndEv
libbcc.so.0:_ZN4llvm17AsmPrinterHandlerD0Ev
libbcc.so.0:_ZN4llvm17AsmPrinterHandlerD1Ev
libbcc.so.0:_ZN4llvm17AsmPrinterHandlerD2Ev
libbcc.so.0:_ZN4llvm17AssumeBuilderPass3runERNS_8FunctionERNS_15AnalysisManagerIS1_JEEE
libbcc.so.0:_ZN4llvm17AtomicCmpXchgInst4InitEPNS_5ValueES2_S2_NS_5AlignENS_14AtomicOrderingES4_h
libbcc.so.0:_ZN4llvm17AtomicCmpXchgInstC1EPNS_5ValueES2_S2_NS_5AlignENS_14AtomicOrderingES4_hPNS_10BasicBlockE
libbcc.so.0:_ZN4llvm17AtomicCmpXchgInstC1EPNS_5ValueES2_S2_NS_5AlignENS_14AtomicOrderingES4_hPNS_11InstructionE
libbcc.so.0:_ZN4llvm17AtomicCmpXchgInstC2EPNS_5ValueES2_S2_NS_5AlignENS_14AtomicOrderingES4_hPNS_10BasicBlockE
libbcc.so.0:_ZN4llvm17AtomicCmpXchgInstC2EPNS_5ValueES2_S2_NS_5AlignENS_14AtomicOrderingES4_hPNS_11InstructionE
libbcc.so.0:_ZN4llvm17AttributeListImpl7ProfileERNS_16FoldingSetNodeIDENS_8ArrayRefINS_12AttributeSetEEE
libbcc.so.0:_ZN4llvm17AttributeListImplC1ENS_8ArrayRefINS_12AttributeSetEEE
libbcc.so.0:_ZN4llvm17AttributeListImplC2ENS_8ArrayRefINS_12AttributeSetEEE
libbcc.so.0:_ZN4llvm17BinaryStreamErrorC1ENS_17stream_error_codeE
libbcc.so.0:_ZN4llvm17BinaryStreamErrorC1ENS_17stream_error_codeENS_9StringRefE
libbcc.so.0:_ZN4llvm17BinaryStreamErrorC1ENS_9StringRefE
libbcc.so.0:_ZN4llvm17BinaryStreamErrorC2ENS_17stream_error_codeE
libbcc.so.0:_ZN4llvm17BinaryStreamErrorC2ENS_17stream_error_codeENS_9StringRefE
libbcc.so.0:_ZN4llvm17BinaryStreamErrorC2ENS_9StringRefE
libbcc.so.0:_ZN4llvm17BranchProbability20getBranchProbabilityEmm
libbcc.so.0:_ZN4llvm17BranchProbabilityC1Ejj
libbcc.so.0:_ZN4llvm17BranchProbabilityC2Ejj
libbcc.so.0:_ZN4llvm17BuildVectorSDNode13recastRawBitsEbjRNS_15SmallVectorImplINS_5APIntEEENS_8ArrayRefIS2_EERNS_9BitVectorERKS7_
libbcc.so.0:_ZN4llvm17CFGOnlyViewerPass3runERNS_8FunctionERNS_15AnalysisManagerIS1_JEEE
libbcc.so.0:_ZN4llvm17CFLAndersAAResult12ensureCachedERKNS_8FunctionE
libbcc.so.0:_ZN4llvm17CFLAndersAAResult13buildInfoFromERKNS_8FunctionE
libbcc.so.0:_ZN4llvm17CFLAndersAAResult15getAliasSummaryERKNS_8FunctionE
libbcc.so.0:_ZN4llvm17CFLAndersAAResult4scanERKNS_8FunctionE
libbcc.so.0:_ZN4llvm17CFLAndersAAResult5aliasERKNS_14MemoryLocationES3_RNS_11AAQueryInfoE
libbcc.so.0:_ZN4llvm17CFLAndersAAResult5evictEPKNS_8FunctionE
libbcc.so.0:_ZN4llvm17CFLAndersAAResult5queryERKNS_14MemoryLocationES3_
libbcc.so.0:_ZN4llvm17CFLAndersAAResultC1EOS0_
libbcc.so.0:_ZN4llvm17CFLAndersAAResultC1ESt8functionIFRKNS_17TargetLibraryInfoERNS_8FunctionEEE
libbcc.so.0:_ZN4llvm17CFLAndersAAResultC2EOS0_
libbcc.so.0:_ZN4llvm17CFLAndersAAResultC2ESt8functionIFRKNS_17TargetLibraryInfoERNS_8FunctionEEE
libbcc.so.0:_ZN4llvm17CFLAndersAAResultD1Ev
libbcc.so.0:_ZN4llvm17CFLAndersAAResultD2Ev
libbcc.so.0:_ZN4llvm17CFLSteensAAResult12FunctionInfoC1ERNS_8FunctionERKNS_15SmallVectorImplIPNS_5ValueEEENS_5cflaa14StratifiedSetsINSA_17InstantiatedValueEEE
libbcc.so.0:_ZN4llvm17CFLSteensAAResult12FunctionInfoC2ERNS_8FunctionERKNS_15SmallVectorImplIPNS_5ValueEEENS_5cflaa14StratifiedSetsINSA_17InstantiatedValueEEE
libbcc.so.0:_ZN4llvm17CFLSteensAAResult12ensureCachedEPNS_8FunctionE
libbcc.so.0:_ZN4llvm17CFLSteensAAResult13buildSetsFromEPNS_8FunctionE
libbcc.so.0:_ZN4llvm17CFLSteensAAResult15getAliasSummaryERNS_8FunctionE
libbcc.so.0:_ZN4llvm17CFLSteensAAResult4scanEPNS_8FunctionE
libbcc.so.0:_ZN4llvm17CFLSteensAAResult5evictEPNS_8FunctionE
libbcc.so.0:_ZN4llvm17CFLSteensAAResult5queryERKNS_14MemoryLocationES3_
libbcc.so.0:_ZN4llvm17CFLSteensAAResultC1EOS0_
libbcc.so.0:_ZN4llvm17CFLSteensAAResultC1ESt8functionIFRKNS_17TargetLibraryInfoERNS_8FunctionEEE
libbcc.so.0:_ZN4llvm17CFLSteensAAResultC2EOS0_
libbcc.so.0:_ZN4llvm17CFLSteensAAResultC2ESt8functionIFRKNS_17TargetLibraryInfoERNS_8FunctionEEE
libbcc.so.0:_ZN4llvm17CFLSteensAAResultD1Ev
libbcc.so.0:_ZN4llvm17CFLSteensAAResultD2Ev
libbcc.so.0:_ZN4llvm17CleanupReturnInst4initEPNS_5ValueEPNS_10BasicBlockE
libbcc.so.0:_ZN4llvm17CleanupReturnInstC1EPNS_5ValueEPNS_10BasicBlockEjPNS_11InstructionE
libbcc.so.0:_ZN4llvm17CleanupReturnInstC1EPNS_5ValueEPNS_10BasicBlockEjS4_
libbcc.so.0:_ZN4llvm17CleanupReturnInstC1ERKS0_
libbcc.so.0:_ZN4llvm17CleanupReturnInstC2EPNS_5ValueEPNS_10BasicBlockEjPNS_11InstructionE
libbcc.so.0:_ZN4llvm17CleanupReturnInstC2EPNS_5ValueEPNS_10BasicBlockEjS4_
libbcc.so.0:_ZN4llvm17CleanupReturnInstC2ERKS0_
libbcc.so.0:_ZN4llvm17CloneFunctionIntoEPNS_8FunctionEPKS0_RNS_8ValueMapIPKNS_5ValueENS_14WeakTrackingVHENS_14ValueMapConfigIS7_NS_3sys10SmartMutexILb0EEEEEEENS_23CloneFunctionChangeTypeERNS_15SmallVectorImplIPNS_10ReturnInstEEEPKcPNS_14ClonedCodeInfoEPNS_20ValueMapTypeRemapperEPNS_17ValueMaterializerE
libbcc.so.0:_ZN4llvm17ConstantAggregateC1EPNS_4TypeENS_5Value7ValueTyENS_8ArrayRefIPNS_8ConstantEEE
libbcc.so.0:_ZN4llvm17ConstantAggregateC2EPNS_4TypeENS_5Value7ValueTyENS_8ArrayRefIPNS_8ConstantEEE
libbcc.so.0:_ZN4llvm17ConstantDataArray5getFPEPNS_4TypeENS_8ArrayRefIjEE
libbcc.so.0:_ZN4llvm17ConstantDataArray5getFPEPNS_4TypeENS_8ArrayRefImEE
libbcc.so.0:_ZN4llvm17ConstantDataArray5getFPEPNS_4TypeENS_8ArrayRefItEE
libbcc.so.0:_ZN4llvm17ConstantDataArray9getStringERNS_11LLVMContextENS_9StringRefEb
libbcc.so.0:_ZN4llvm17ConstantFoldBinOpEjNS_8RegisterES0_RKNS_19MachineRegisterInfoE
libbcc.so.0:_ZN4llvm17ConstantFoldExtOpEjNS_8RegisterEmRKNS_19MachineRegisterInfoE
libbcc.so.0:_ZN4llvm17ConstantMergePass3runERNS_6ModuleERNS_15AnalysisManagerIS1_JEEE
libbcc.so.0:_ZN4llvm17ConstantTokenNone19destroyConstantImplEv
libbcc.so.0:_ZN4llvm17ConstantTokenNone3getERNS_11LLVMContextE
libbcc.so.0:_ZN4llvm17ConvertUTF8toWideENS_9StringRefERNSt7__cxx1112basic_stringIwSt11char_traitsIwESaIwEEE
libbcc.so.0:_ZN4llvm17ConvertUTF8toWideEPKcRNSt7__cxx1112basic_stringIwSt11char_traitsIwESaIwEEE
libbcc.so.0:_ZN4llvm17ConvertUTF8toWideEjNS_9StringRefERPcRPKh
libbcc.so.0:_ZN4llvm17DDGDotPrinterPass3runERNS_4LoopERNS_15AnalysisManagerIS1_JRNS_27LoopStandardAnalysisResultsEEEES5_RNS_10LPMUpdaterE
libbcc.so.0:_ZN4llvm17DIGenericSubrange7getImplERNS_11LLVMContextEPNS_8MetadataES4_S4_S4_NS3_11StorageTypeEb
libbcc.so.0:_ZN4llvm17DIGenericSubrangeC1ERNS_11LLVMContextENS_8Metadata11StorageTypeENS_8ArrayRefIPS3_EE
libbcc.so.0:_ZN4llvm17DIGenericSubrangeC2ERNS_11LLVMContextENS_8Metadata11StorageTypeENS_8ArrayRefIPS3_EE
libbcc.so.0:_ZN4llvm17DominanceFrontier10invalidateERNS_8FunctionERKNS_17PreservedAnalysesERNS_15AnalysisManagerIS1_JEE11InvalidatorE
libbcc.so.0:_ZN4llvm17FileCollectorBase12addDirectoryERKNS_5TwineE
libbcc.so.0:_ZN4llvm17FileCollectorBase7addFileERKNS_5TwineE
libbcc.so.0:_ZN4llvm17FileCollectorBaseC2Ev
libbcc.so.0:_ZN4llvm17FileCollectorBaseD0Ev
libbcc.so.0:_ZN4llvm17FileCollectorBaseD1Ev
libbcc.so.0:_ZN4llvm17FileCollectorBaseD2Ev
libbcc.so.0:_ZN4llvm17FindInsertedValueEPNS_5ValueENS_8ArrayRefIjEEPNS_11InstructionE
libbcc.so.0:_ZN4llvm17GCMetadataPrinterC1Ev
libbcc.so.0:_ZN4llvm17GCMetadataPrinterC2Ev
libbcc.so.0:_ZN4llvm17GCMetadataPrinterD0Ev
libbcc.so.0:_ZN4llvm17GCMetadataPrinterD1Ev
libbcc.so.0:_ZN4llvm17GCMetadataPrinterD2Ev
libbcc.so.0:_ZN4llvm17GenericSSAContextINS_15MachineFunctionEE11setFunctionERS1_
libbcc.so.0:_ZN4llvm17GenericSSAContextINS_15MachineFunctionEE13getEntryBlockERS1_
libbcc.so.0:_ZN4llvm17GenericSSAContextINS_8FunctionEE11setFunctionERS1_
libbcc.so.0:_ZN4llvm17GenericSSAContextINS_8FunctionEE13getEntryBlockERS1_
libbcc.so.0:_ZN4llvm17GetElementPtrInst13setIsInBoundsEb
libbcc.so.0:_ZN4llvm17GetElementPtrInst14getIndexedTypeEPNS_4TypeENS_8ArrayRefIPNS_5ValueEEE
libbcc.so.0:_ZN4llvm17GetElementPtrInst14getIndexedTypeEPNS_4TypeENS_8ArrayRefIPNS_8ConstantEEE
libbcc.so.0:_ZN4llvm17GetElementPtrInst14getIndexedTypeEPNS_4TypeENS_8ArrayRefImEE
libbcc.so.0:_ZN4llvm17GetElementPtrInst14getTypeAtIndexEPNS_4TypeEPNS_5ValueE
libbcc.so.0:_ZN4llvm17GetElementPtrInst14getTypeAtIndexEPNS_4TypeEm
libbcc.so.0:_ZN4llvm17GetElementPtrInst4initEPNS_5ValueENS_8ArrayRefIS2_EERKNS_5TwineE
libbcc.so.0:_ZN4llvm17GetElementPtrInstC1ERKS0_
libbcc.so.0:_ZN4llvm17GetElementPtrInstC2ERKS0_
libbcc.so.0:_ZN4llvm17GetUnrollMetadataEPNS_6MDNodeENS_9StringRefE
libbcc.so.0:_ZN4llvm17GuardWideningPass3runERNS_4LoopERNS_15AnalysisManagerIS1_JRNS_27LoopStandardAnalysisResultsEEEES5_RNS_10LPMUpdaterE
libbcc.so.0:_ZN4llvm17GuardWideningPass3runERNS_8FunctionERNS_15AnalysisManagerIS1_JEEE
libbcc.so.0:_ZN4llvm17ICFLoopSafetyInfo17removeInstructionEPKNS_11InstructionE
libbcc.so.0:_ZN4llvm17ICFLoopSafetyInfo19insertInstructionToEPKNS_11InstructionEPKNS_10BasicBlockE
libbcc.so.0:_ZN4llvm17ICFLoopSafetyInfo21computeLoopSafetyInfoEPKNS_4LoopE
libbcc.so.0:_ZN4llvm17InjectTLIMappings3runERNS_8FunctionERNS_15AnalysisManagerIS1_JEEE
libbcc.so.0:_ZN4llvm17InlineAsmLowering6anchorEv
libbcc.so.0:_ZN4llvm17InnerLoopUnroller18getBroadcastInstrsEPNS_5ValueE
libbcc.so.0:_ZN4llvm17InsertElementInst15isValidOperandsEPKNS_5ValueES3_S3_
libbcc.so.0:_ZN4llvm17InsertElementInstC1EPNS_5ValueES2_S2_RKNS_5TwineEPNS_10BasicBlockE
libbcc.so.0:_ZN4llvm17InsertElementInstC1EPNS_5ValueES2_S2_RKNS_5TwineEPNS_11InstructionE
libbcc.so.0:_ZN4llvm17InsertElementInstC2EPNS_5ValueES2_S2_RKNS_5TwineEPNS_10BasicBlockE
libbcc.so.0:_ZN4llvm17InsertElementInstC2EPNS_5ValueES2_S2_RKNS_5TwineEPNS_11InstructionE
libbcc.so.0:_ZN4llvm17InstructionSelect20runOnMachineFunctionERNS_15MachineFunctionE
libbcc.so.0:_ZN4llvm17InstructionSelectC1ENS_10CodeGenOpt5LevelE
libbcc.so.0:_ZN4llvm17InstructionSelectC1Ev
libbcc.so.0:_ZN4llvm17InstructionSelectC2ENS_10CodeGenOpt5LevelE
libbcc.so.0:_ZN4llvm17InstructionSelectC2Ev
libbcc.so.0:_ZN4llvm17IntrinsicLowering15LowerToByteSwapEPNS_8CallInstE
libbcc.so.0:_ZN4llvm17IntrinsicLowering18LowerIntrinsicCallEPNS_8CallInstE
libbcc.so.0:_ZN4llvm17JITSymbolResolver6anchorEv
libbcc.so.0:_ZN4llvm17JSONScopedPrinterC1ERNS_11raw_ostreamEbOSt10unique_ptrINS_14DelimitedScopeESt14default_deleteIS4_EE
libbcc.so.0:_ZN4llvm17JSONScopedPrinterC2ERNS_11raw_ostreamEbOSt10unique_ptrINS_14DelimitedScopeESt14default_deleteIS4_EE
libbcc.so.0:_ZN4llvm17JumpThreadingPass10threadEdgeEPNS_10BasicBlockERKNS_15SmallVectorImplIS2_EES2_
libbcc.so.0:_ZN4llvm17JumpThreadingPass11threadGuardEPNS_10BasicBlockEPNS_13IntrinsicInstEPNS_10BranchInstE
libbcc.so.0:_ZN4llvm17JumpThreadingPass12processBlockEPNS_10BasicBlockE
libbcc.so.0:_ZN4llvm17JumpThreadingPass13processGuardsEPNS_10BasicBlockE
libbcc.so.0:_ZN4llvm17JumpThreadingPass13tryThreadEdgeEPNS_10BasicBlockERKNS_15SmallVectorImplIS2_EES2_
libbcc.so.0:_ZN4llvm17JumpThreadingPass15findLoopHeadersERNS_8FunctionE
libbcc.so.0:_ZN4llvm17JumpThreadingPass15splitBlockPredsEPNS_10BasicBlockENS_8ArrayRefIS2_EEPKc
libbcc.so.0:_ZN4llvm17JumpThreadingPass17cloneInstructionsENS_14ilist_iteratorINS_12ilist_detail12node_optionsINS_11InstructionELb0ELb0EvEELb0ELb0EEES6_PNS_10BasicBlockES8_
libbcc.so.0:_ZN4llvm17JumpThreadingPass17tryToUnfoldSelectEPNS_10SwitchInstEPNS_10BasicBlockE
libbcc.so.0:_ZN4llvm17JumpThreadingPass17tryToUnfoldSelectEPNS_7CmpInstEPNS_10BasicBlockE
libbcc.so.0:_ZN4llvm17JumpThreadingPass17unfoldSelectInstrEPNS_10BasicBlockES2_PNS_10SelectInstEPNS_7PHINodeEj
libbcc.so.0:_ZN4llvm17JumpThreadingPass18processBranchOnPHIEPNS_7PHINodeE
libbcc.so.0:_ZN4llvm17JumpThreadingPass18processBranchOnXOREPNS_14BinaryOperatorE
libbcc.so.0:_ZN4llvm17JumpThreadingPass22processThreadableEdgesEPNS_5ValueEPNS_10BasicBlockENS_13jumpthreading18ConstantPreferenceEPNS_11InstructionE
libbcc.so.0:_ZN4llvm17JumpThreadingPass23processImpliedConditionEPNS_10BasicBlockE
libbcc.so.0:_ZN4llvm17JumpThreadingPass24doesBlockHaveProfileDataEPNS_10BasicBlockE
libbcc.so.0:_ZN4llvm17JumpThreadingPass25evaluateOnPredecessorEdgeEPNS_10BasicBlockES2_PNS_5ValueE
libbcc.so.0:_ZN4llvm17JumpThreadingPass25tryToUnfoldSelectInCurrBBEPNS_10BasicBlockE
libbcc.so.0:_ZN4llvm17JumpThreadingPass27threadThroughTwoBasicBlocksEPNS_10BasicBlockES2_S2_S2_
libbcc.so.0:_ZN4llvm17JumpThreadingPass28updateBlockFreqAndEdgeWeightEPNS_10BasicBlockES2_S2_S2_
libbcc.so.0:_ZN4llvm17JumpThreadingPass30simplifyPartiallyRedundantLoadEPNS_8LoadInstE
libbcc.so.0:_ZN4llvm17JumpThreadingPass32duplicateCondBranchOnPHIIntoPredEPNS_10BasicBlockERKNS_15SmallVectorImplIS2_EE
libbcc.so.0:_ZN4llvm17JumpThreadingPass32maybeMergeBasicBlockIntoOnlyPredEPNS_10BasicBlockE
libbcc.so.0:_ZN4llvm17JumpThreadingPass32maybethreadThroughTwoBasicBlocksEPNS_10BasicBlockEPNS_5ValueE
libbcc.so.0:_ZN4llvm17JumpThreadingPass35computeValueKnownInPredecessorsImplEPNS_5ValueEPNS_10BasicBlockERNS_15SmallVectorImplISt4pairIPNS_8ConstantES4_EEENS_13jumpthreading18ConstantPreferenceERNS_8DenseSetIS2_NS_12DenseMapInfoIS2_vEEEEPNS_11InstructionE
libbcc.so.0:_ZN4llvm17JumpThreadingPass3runERNS_8FunctionERNS_15AnalysisManagerIS1_JEEE
libbcc.so.0:_ZN4llvm17JumpThreadingPass7runImplERNS_8FunctionEPNS_17TargetLibraryInfoEPNS_19TargetTransformInfoEPNS_13LazyValueInfoEPNS_9AAResultsEPNS_14DomTreeUpdaterEbSt10unique_ptrINS_18BlockFrequencyInfoESt14default_deleteISE_EESD_INS_21BranchProbabilityInfoESF_ISI_EE
libbcc.so.0:_ZN4llvm17JumpThreadingPass9updateSSAEPNS_10BasicBlockES2_RNS_8DenseMapIPNS_11InstructionEPNS_5ValueENS_12DenseMapInfoIS5_vEENS_6detail12DenseMapPairIS5_S7_EEEE
libbcc.so.0:_ZN4llvm17JumpThreadingPassC1Ei
libbcc.so.0:_ZN4llvm17JumpThreadingPassC2Ei
libbcc.so.0:_ZN4llvm17LLVMTargetMachine11initAsmInfoEv
libbcc.so.0:_ZN4llvm17LLVMTargetMachine13addAsmPrinterERNS_6legacy15PassManagerBaseERNS_17raw_pwrite_streamEPS4_NS_15CodeGenFileTypeERNS_9MCContextE
libbcc.so.0:_ZN4llvm17LLVMTargetMachine16createMCStreamerERNS_17raw_pwrite_streamEPS1_NS_15CodeGenFileTypeERNS_9MCContextE
libbcc.so.0:_ZN4llvm17LLVMTargetMachine16createPassConfigERNS_6legacy15PassManagerBaseE
libbcc.so.0:_ZN4llvm17LLVMTargetMachine17addPassesToEmitMCERNS_6legacy15PassManagerBaseERPNS_9MCContextERNS_17raw_pwrite_streamEb
libbcc.so.0:_ZN4llvm17LLVMTargetMachine19addPassesToEmitFileERNS_6legacy15PassManagerBaseERNS_17raw_pwrite_streamEPS4_NS_15CodeGenFileTypeEbPNS_28MachineModuleInfoWrapperPassE
libbcc.so.0:_ZN4llvm17LLVMTargetMachineC1ERKNS_6TargetENS_9StringRefERKNS_6TripleES4_S4_RKNS_13TargetOptionsENS_5Reloc5ModelENS_9CodeModel5ModelENS_10CodeGenOpt5LevelE
libbcc.so.0:_ZN4llvm17LLVMTargetMachineC2ERKNS_6TargetENS_9StringRefERKNS_6TripleES4_S4_RKNS_13TargetOptionsENS_5Reloc5ModelENS_9CodeModel5ModelENS_10CodeGenOpt5LevelE
libbcc.so.0:_ZN4llvm17LazyValueAnalysis3runERNS_8FunctionERNS_15AnalysisManagerIS1_JEEE
libbcc.so.0:_ZN4llvm17LegacyInlinerBase11inlineCallsERNS_12CallGraphSCCE
libbcc.so.0:_ZN4llvm17LegacyInlinerBase14doFinalizationERNS_9CallGraphE
libbcc.so.0:_ZN4llvm17LegacyInlinerBase16doInitializationERNS_9CallGraphE
libbcc.so.0:_ZN4llvm17LegacyInlinerBase19removeDeadFunctionsERNS_9CallGraphEb
libbcc.so.0:_ZN4llvm17LegacyInlinerBase8runOnSCCERNS_12CallGraphSCCE
libbcc.so.0:_ZN4llvm17LegacyInlinerBaseC2ERc
libbcc.so.0:_ZN4llvm17LegacyInlinerBaseC2ERcb
libbcc.so.0:_ZN4llvm17LegalizeMutations15changeElementToEjNS_3LLTE
libbcc.so.0:_ZN4llvm17LegalizeMutations15changeElementToEjj
libbcc.so.0:_ZN4llvm17LegalizeMutations19changeElementSizeToEjj
libbcc.so.0:_ZN4llvm17LegalizeMutations20changeElementCountToEjNS_3LLTE
libbcc.so.0:_ZN4llvm17LegalizeMutations20changeElementCountToEjj
libbcc.so.0:_ZN4llvm17LegalizeMutations22moreElementsToNextPow2Ejj
libbcc.so.0:_ZN4llvm17LegalizeMutations26widenScalarOrEltToNextPow2Ejj
libbcc.so.0:_ZN4llvm17LegalizeMutations32widenScalarOrEltToNextMultipleOfEjj
libbcc.so.0:_ZN4llvm17LegalizeMutations8changeToEjNS_3LLTE
libbcc.so.0:_ZN4llvm17LegalizeMutations8changeToEjj
libbcc.so.0:_ZN4llvm17LegalizeMutations9scalarizeEj
libbcc.so.0:_ZN4llvm17LibCallSimplifier11optimizeAbsEPNS_8CallInstERNS_13IRBuilderBaseE
libbcc.so.0:_ZN4llvm17LibCallSimplifier11optimizeFFSEPNS_8CallInstERNS_13IRBuilderBaseE
libbcc.so.0:_ZN4llvm17LibCallSimplifier11optimizeFlsEPNS_8CallInstERNS_13IRBuilderBaseE
libbcc.so.0:_ZN4llvm17LibCallSimplifier11optimizeLogEPNS_8CallInstERNS_13IRBuilderBaseE
libbcc.so.0:_ZN4llvm17LibCallSimplifier11optimizePowEPNS_8CallInstERNS_13IRBuilderBaseE
libbcc.so.0:_ZN4llvm17LibCallSimplifier11optimizeTanEPNS_8CallInstERNS_13IRBuilderBaseE
libbcc.so.0:_ZN4llvm17LibCallSimplifier12optimizeAtoiEPNS_8CallInstERNS_13IRBuilderBaseE
libbcc.so.0:_ZN4llvm17LibCallSimplifier12optimizeBCmpEPNS_8CallInstERNS_13IRBuilderBaseE
libbcc.so.0:_ZN4llvm17LibCallSimplifier12optimizeCAbsEPNS_8CallInstERNS_13IRBuilderBaseE
libbcc.so.0:_ZN4llvm17LibCallSimplifier12optimizeCallEPNS_8CallInstERNS_13IRBuilderBaseE
libbcc.so.0:_ZN4llvm17LibCallSimplifier12optimizeExp2EPNS_8CallInstERNS_13IRBuilderBaseE
libbcc.so.0:_ZN4llvm17LibCallSimplifier12optimizePutsEPNS_8CallInstERNS_13IRBuilderBaseE
libbcc.so.0:_ZN4llvm17LibCallSimplifier12optimizeSqrtEPNS_8CallInstERNS_13IRBuilderBaseE
libbcc.so.0:_ZN4llvm17LibCallSimplifier13optimizeBCopyEPNS_8CallInstERNS_13IRBuilderBaseE
libbcc.so.0:_ZN4llvm17LibCallSimplifier13optimizeFPutsEPNS_8CallInstERNS_13IRBuilderBaseE
libbcc.so.0:_ZN4llvm17LibCallSimplifier13optimizeStrToEPNS_8CallInstERNS_13IRBuilderBaseE
libbcc.so.0:_ZN4llvm17LibCallSimplifier14classifyArgUseEPNS_5ValueEPNS_8FunctionEbRNS_15SmallVectorImplIPNS_8CallInstEEES9_S9_
libbcc.so.0:_ZN4llvm17LibCallSimplifier14optimizeFWriteEPNS_8CallInstERNS_13IRBuilderBaseE
libbcc.so.0:_ZN4llvm17LibCallSimplifier14optimizeMemChrEPNS_8CallInstERNS_13IRBuilderBaseE
libbcc.so.0:_ZN4llvm17LibCallSimplifier14optimizeMemCmpEPNS_8CallInstERNS_13IRBuilderBaseE
libbcc.so.0:_ZN4llvm17LibCallSimplifier14optimizeMemCpyEPNS_8CallInstERNS_13IRBuilderBaseE
libbcc.so.0:_ZN4llvm17LibCallSimplifier14optimizeMemSetEPNS_8CallInstERNS_13IRBuilderBaseE
libbcc.so.0:_ZN4llvm17LibCallSimplifier14optimizePrintFEPNS_8CallInstERNS_13IRBuilderBaseE
libbcc.so.0:_ZN4llvm17LibCallSimplifier14optimizeStpCpyEPNS_8CallInstERNS_13IRBuilderBaseE
libbcc.so.0:_ZN4llvm17LibCallSimplifier14optimizeStrCatEPNS_8CallInstERNS_13IRBuilderBaseE
libbcc.so.0:_ZN4llvm17LibCallSimplifier14optimizeStrChrEPNS_8CallInstERNS_13IRBuilderBaseE
libbcc.so.0:_ZN4llvm17LibCallSimplifier14optimizeStrCmpEPNS_8CallInstERNS_13IRBuilderBaseE
libbcc.so.0:_ZN4llvm17LibCallSimplifier14optimizeStrCpyEPNS_8CallInstERNS_13IRBuilderBaseE
libbcc.so.0:_ZN4llvm17LibCallSimplifier14optimizeStrLenEPNS_8CallInstERNS_13IRBuilderBaseE
libbcc.so.0:_ZN4llvm17LibCallSimplifier14optimizeStrSpnEPNS_8CallInstERNS_13IRBuilderBaseE
libbcc.so.0:_ZN4llvm17LibCallSimplifier14optimizeStrStrEPNS_8CallInstERNS_13IRBuilderBaseE
libbcc.so.0:_ZN4llvm17LibCallSimplifier14optimizeWcslenEPNS_8CallInstERNS_13IRBuilderBaseE
libbcc.so.0:_ZN4llvm17LibCallSimplifier15eraseFromParentEPNS_11InstructionE
libbcc.so.0:_ZN4llvm17LibCallSimplifier15hasFloatVersionEPKNS_6ModuleENS_9StringRefE
libbcc.so.0:_ZN4llvm17LibCallSimplifier15optimizeFPrintFEPNS_8CallInstERNS_13IRBuilderBaseE
libbcc.so.0:_ZN4llvm17LibCallSimplifier15optimizeIsAsciiEPNS_8CallInstERNS_13IRBuilderBaseE
libbcc.so.0:_ZN4llvm17LibCallSimplifier15optimizeIsDigitEPNS_8CallInstERNS_13IRBuilderBaseE
libbcc.so.0:_ZN4llvm17LibCallSimplifier15optimizeMemCCpyEPNS_8CallInstERNS_13IRBuilderBaseE
libbcc.so.0:_ZN4llvm17LibCallSimplifier15optimizeMemMoveEPNS_8CallInstERNS_13IRBuilderBaseE
libbcc.so.0:_ZN4llvm17LibCallSimplifier15optimizeMemPCpyEPNS_8CallInstERNS_13IRBuilderBaseE
libbcc.so.0:_ZN4llvm17LibCallSimplifier15optimizeMemRChrEPNS_8CallInstERNS_13IRBuilderBaseE
libbcc.so.0:_ZN4llvm17LibCallSimplifier15optimizeReallocEPNS_8CallInstERNS_13IRBuilderBaseE
libbcc.so.0:_ZN4llvm17LibCallSimplifier15optimizeSPrintFEPNS_8CallInstERNS_13IRBuilderBaseE
libbcc.so.0:_ZN4llvm17LibCallSimplifier15optimizeStrCSpnEPNS_8CallInstERNS_13IRBuilderBaseE
libbcc.so.0:_ZN4llvm17LibCallSimplifier15optimizeStrNCatEPNS_8CallInstERNS_13IRBuilderBaseE
libbcc.so.0:_ZN4llvm17LibCallSimplifier15optimizeStrNCmpEPNS_8CallInstERNS_13IRBuilderBaseE
libbcc.so.0:_ZN4llvm17LibCallSimplifier15optimizeStrNCpyEPNS_8CallInstERNS_13IRBuilderBaseE
libbcc.so.0:_ZN4llvm17LibCallSimplifier15optimizeStrNDupEPNS_8CallInstERNS_13IRBuilderBaseE
libbcc.so.0:_ZN4llvm17LibCallSimplifier15optimizeStrNLenEPNS_8CallInstERNS_13IRBuilderBaseE
libbcc.so.0:_ZN4llvm17LibCallSimplifier15optimizeStrPBrkEPNS_8CallInstERNS_13IRBuilderBaseE
libbcc.so.0:_ZN4llvm17LibCallSimplifier15optimizeStrRChrEPNS_8CallInstERNS_13IRBuilderBaseE
libbcc.so.0:_ZN4llvm17LibCallSimplifier15optimizeToAsciiEPNS_8CallInstERNS_13IRBuilderBaseE
libbcc.so.0:_ZN4llvm17LibCallSimplifier16emitStrLenMemCpyEPNS_5ValueES2_mRNS_13IRBuilderBaseE
libbcc.so.0:_ZN4llvm17LibCallSimplifier16optimizeFMinFMaxEPNS_8CallInstERNS_13IRBuilderBaseE
libbcc.so.0:_ZN4llvm17LibCallSimplifier16optimizeSinCosPiEPNS_8CallInstERNS_13IRBuilderBaseE
libbcc.so.0:_ZN4llvm17LibCallSimplifier16optimizeSnPrintFEPNS_8CallInstERNS_13IRBuilderBaseE
libbcc.so.0:_ZN4llvm17LibCallSimplifier16optimizeStrToIntEPNS_8CallInstERNS_13IRBuilderBaseEb
libbcc.so.0:_ZN4llvm17LibCallSimplifier17replacePowWithExpEPNS_8CallInstERNS_13IRBuilderBaseE
libbcc.so.0:_ZN4llvm17LibCallSimplifier18replaceAllUsesWithEPNS_11InstructionEPNS_5ValueE
libbcc.so.0:_ZN4llvm17LibCallSimplifier18replacePowWithSqrtEPNS_8CallInstERNS_13IRBuilderBaseE
libbcc.so.0:_ZN4llvm17LibCallSimplifier20optimizePrintFStringEPNS_8CallInstERNS_13IRBuilderBaseE
libbcc.so.0:_ZN4llvm17LibCallSimplifier20optimizeStringLengthEPNS_8CallInstERNS_13IRBuilderBaseEjPNS_5ValueE
libbcc.so.0:_ZN4llvm17LibCallSimplifier21optimizeFPrintFStringEPNS_8CallInstERNS_13IRBuilderBaseE
libbcc.so.0:_ZN4llvm17LibCallSimplifier21optimizeSPrintFStringEPNS_8CallInstERNS_13IRBuilderBaseE
libbcc.so.0:_ZN4llvm17LibCallSimplifier22optimizeErrorReportingEPNS_8CallInstERNS_13IRBuilderBaseEi
libbcc.so.0:_ZN4llvm17LibCallSimplifier22optimizeSnPrintFStringEPNS_8CallInstERNS_13IRBuilderBaseE
libbcc.so.0:_ZN4llvm17LibCallSimplifier24optimizeMemCmpBCmpCommonEPNS_8CallInstERNS_13IRBuilderBaseE
libbcc.so.0:_ZN4llvm17LibCallSimplifier27optimizeStringMemoryLibCallEPNS_8CallInstERNS_13IRBuilderBaseE
libbcc.so.0:_ZN4llvm17LibCallSimplifier28optimizeFloatingPointLibCallEPNS_8CallInstENS_7LibFuncERNS_13IRBuilderBaseE
libbcc.so.0:_ZN4llvm17LibCallSimplifierC1ERKNS_10DataLayoutEPKNS_17TargetLibraryInfoERNS_25OptimizationRemarkEmitterEPNS_18BlockFrequencyInfoEPNS_18ProfileSummaryInfoENS_12function_refIFvPNS_11InstructionEPNS_5ValueEEEENSD_IFvSF_EEE
libbcc.so.0:_ZN4llvm17LibCallSimplifierC2ERKNS_10DataLayoutEPKNS_17TargetLibraryInfoERNS_25OptimizationRemarkEmitterEPNS_18BlockFrequencyInfoEPNS_18ProfileSummaryInfoENS_12function_refIFvPNS_11InstructionEPNS_5ValueEEEENSD_IFvSF_EEE
libbcc.so.0:_ZN4llvm17LiveIntervalUnion5Array4initERNS_18RecyclingAllocatorINS_20BumpPtrAllocatorImplINS_15MallocAllocatorELm4096ELm4096ELm128EEEcLm192ELm64EEEj
libbcc.so.0:_ZN4llvm17LiveIntervalUnion5Array5clearEv
libbcc.so.0:_ZN4llvm17LiveIntervalUnion5Query23collectInterferingVRegsEj
libbcc.so.0:_ZN4llvm17LiveIntervalUnion5unifyERKNS_12LiveIntervalERKNS_9LiveRangeE
libbcc.so.0:_ZN4llvm17LiveIntervalUnion7extractERKNS_12LiveIntervalERKNS_9LiveRangeE
libbcc.so.0:_ZN4llvm17LoadIntFromMemoryERNS_5APIntEPKhj
libbcc.so.0:_ZN4llvm17LoopExtractorPass13printPipelineERNS_11raw_ostreamENS_12function_refIFNS_9StringRefES4_EEE
libbcc.so.0:_ZN4llvm17LoopExtractorPass3runERNS_6ModuleERNS_15AnalysisManagerIS1_JEEE
libbcc.so.0:_ZN4llvm17LoopVectorizePass11processLoopEPNS_4LoopE
libbcc.so.0:_ZN4llvm17LoopVectorizePass13printPipelineERNS_11raw_ostreamENS_12function_refIFNS_9StringRefES4_EEE
libbcc.so.0:_ZN4llvm17LoopVectorizePass3runERNS_8FunctionERNS_15AnalysisManagerIS1_JEEE
libbcc.so.0:_ZN4llvm17LoopVectorizePass7runImplERNS_8FunctionERNS_15ScalarEvolutionERNS_8LoopInfoERNS_19TargetTransformInfoERNS_13DominatorTreeERNS_18BlockFrequencyInfoEPNS_17TargetLibraryInfoERNS_12DemandedBitsERNS_9AAResultsERNS_15AssumptionCacheERSt8functionIFRKNS_14LoopAccessInfoERNS_4LoopEEERNS_25OptimizationRemarkEmitterEPNS_18ProfileSummaryInfoE
libbcc.so.0:_ZN4llvm17LoopVectorizePassC1ENS_20LoopVectorizeOptionsE
libbcc.so.0:_ZN4llvm17LoopVectorizePassC2ENS_20LoopVectorizeOptionsE
libbcc.so.0:_ZN4llvm17MCTargetAsmParser7copySTIEv
libbcc.so.0:_ZN4llvm17MCTargetAsmParserC2ERKNS_15MCTargetOptionsERKNS_15MCSubtargetInfoERKNS_11MCInstrInfoE
libbcc.so.0:_ZN4llvm17MCTargetAsmParserD0Ev
libbcc.so.0:_ZN4llvm17MCTargetAsmParserD1Ev
libbcc.so.0:_ZN4llvm17MCTargetAsmParserD2Ev
libbcc.so.0:_ZN4llvm17MCWinCOFFStreamer10finishImplEv
libbcc.so.0:_ZN4llvm17MCWinCOFFStreamer12emitZerofillEPNS_9MCSectionEPNS_8MCSymbolEmjNS_5SMLocE
libbcc.so.0:_ZN4llvm17MCWinCOFFStreamer12initSectionsEbRKNS_15MCSubtargetInfoE
libbcc.so.0:_ZN4llvm17MCWinCOFFStreamer13emitThumbFuncEPNS_8MCSymbolE
libbcc.so.0:_ZN4llvm17MCWinCOFFStreamer14emitInstToDataERKNS_6MCInstERKNS_15MCSubtargetInfoE
libbcc.so.0:_ZN4llvm17MCWinCOFFStreamer14emitSymbolDescEPNS_8MCSymbolEj
libbcc.so.0:_ZN4llvm17MCWinCOFFStreamer14emitTBSSSymbolEPNS_9MCSectionEPNS_8MCSymbolEmj
libbcc.so.0:_ZN4llvm17MCWinCOFFStreamer15emitCOFFSafeSEHEPKNS_8MCSymbolE
libbcc.so.0:_ZN4llvm17MCWinCOFFStreamer16emitCOFFImgRel32EPKNS_8MCSymbolEl
libbcc.so.0:_ZN4llvm17MCWinCOFFStreamer16emitCOFFSecRel32EPKNS_8MCSymbolEm
libbcc.so.0:_ZN4llvm17MCWinCOFFStreamer16emitCommonSymbolEPNS_8MCSymbolEmj
libbcc.so.0:_ZN4llvm17MCWinCOFFStreamer16endCOFFSymbolDefEv
libbcc.so.0:_ZN4llvm17MCWinCOFFStreamer17emitAssemblerFlagENS_15MCAssemblerFlagE
libbcc.so.0:_ZN4llvm17MCWinCOFFStreamer17emitWeakReferenceEPNS_8MCSymbolEPKS1_
libbcc.so.0:_ZN4llvm17MCWinCOFFStreamer17finalizeCGProfileEv
libbcc.so.0:_ZN4llvm17MCWinCOFFStreamer18beginCOFFSymbolDefEPKNS_8MCSymbolE
libbcc.so.0:_ZN4llvm17MCWinCOFFStreamer18emitCGProfileEntryEPKNS_15MCSymbolRefExprES3_m
libbcc.so.0:_ZN4llvm17MCWinCOFFStreamer18emitCOFFSymbolTypeEi
